opt subtitle "HI-TECH Software Omniscient Code Generator (PRO mode) build 10920"

opt pagewidth 120

	opt pm

	processor	16C77
clrc	macro
	bcf	3,0
	endm
clrz	macro
	bcf	3,2
	endm
setc	macro
	bsf	3,0
	endm
setz	macro
	bsf	3,2
	endm
skipc	macro
	btfss	3,0
	endm
skipz	macro
	btfss	3,2
	endm
skipnc	macro
	btfsc	3,0
	endm
skipnz	macro
	btfsc	3,2
	endm
indf	equ	0
indf0	equ	0
pc	equ	2
pcl	equ	2
status	equ	3
fsr	equ	4
fsr0	equ	4
c	equ	1
z	equ	0
pclath	equ	10
# 70 "C:\test__190531\AK7030-OTP\main.c"
	psect config,class=CONFIG,delta=2 ;#
# 70 "C:\test__190531\AK7030-OTP\main.c"
	dw 0x2FFF & 0x3FFF & 0x3FFF & 0x3FFF & 0x3FFF & 0x3FFF ;#
# 71 "C:\test__190531\AK7030-OTP\main.c"
	psect config,class=CONFIG,delta=2 ;#
# 71 "C:\test__190531\AK7030-OTP\main.c"
	dw 0x3FFF & 0x3FDF & 0x3FFF & 0x3FFE ;#
# 72 "C:\test__190531\AK7030-OTP\main.c"
	psect config,class=CONFIG,delta=2 ;#
# 72 "C:\test__190531\AK7030-OTP\main.c"
	dw 0X3FFF & 0x3FFF & 0x3FFF & 0x3FF8 ;#
	FNCALL	_main,_clock_config
	FNCALL	_main,_timer1_config
	FNCALL	_main,_timer1_interrupt_config
	FNCALL	_main,_adc_test_init
	FNCALL	_main,_dac_init
	FNCALL	_main,_op1_init
	FNCALL	_main,_op2_init
	FNCALL	_main,_adc_start
	FNROOT	_main
	FNCALL	_ISR,_setAD_ConvertFlag
	FNCALL	_ISR,_adc_get
	FNCALL	intlevel1,_ISR
	global	intlevel1
	FNROOT	intlevel1
	global	_sampleChannelSelect
psect	idataCOMMON,class=CODE,space=0,delta=2
global __pidataCOMMON
__pidataCOMMON:
	file	"C:\test__190531\AK7030-OTP\common.c"
	line	18

;initializer for _sampleChannelSelect
	retlw	0Dh
	global	_uiBigTimer
	global	_uiSmallTimer
	global	ISR@ucTimer1sCnt
	global	_ADCON0
_ADCON0	set	31
	global	_ADRESH
_ADRESH	set	30
	global	_OP1CON0
_OP1CON0	set	27
	global	_OP1CON1
_OP1CON1	set	28
	global	_OP1CON2
_OP1CON2	set	29
	global	_T1CON
_T1CON	set	16
	global	_TMR1H
_TMR1H	set	15
	global	_TMR1L
_TMR1L	set	14
	global	_ADIF
_ADIF	set	106
	global	_ADON
_ADON	set	248
	global	_GIE
_GIE	set	95
	global	_GO
_GO	set	249
	global	_PA0
_PA0	set	40
	global	_PA2
_PA2	set	42
	global	_PEIE
_PEIE	set	94
	global	_TMR1IF
_TMR1IF	set	96
	global	_ADCON1
_ADCON1	set	159
	global	_ADRESL
_ADRESL	set	158
	global	_DACCON
_DACCON	set	135
	global	_DACR0
_DACR0	set	136
	global	_OP2CON0
_OP2CON0	set	155
	global	_OP2CON1
_OP2CON1	set	156
	global	_OP2CON2
_OP2CON2	set	157
	global	_ADIE
_ADIE	set	1130
	global	_TMR1IE
_TMR1IE	set	1120
	global	_TRISA0
_TRISA0	set	1064
	global	_TRISA1
_TRISA1	set	1065
	global	_TRISA2
_TRISA2	set	1066
	global	_TRISA3
_TRISA3	set	1067
	global	_TRISA6
_TRISA6	set	1070
	global	_TRISA7
_TRISA7	set	1071
	global	_TRISB1
_TRISB1	set	1073
	global	_TRISB2
_TRISB2	set	1074
	global	_TRISB3
_TRISB3	set	1075
	global	_TRISB4
_TRISB4	set	1076
	global	_TRISB5
_TRISB5	set	1077
	global	_TRISB6
_TRISB6	set	1078
	global	_TRISB7
_TRISB7	set	1079
	global	_CLKPR
_CLKPR	set	264
	global	_CLKPCE
_CLKPCE	set	2119
	file	"ProjTest.as"
	line	#
psect cinit,class=CODE,delta=2
global start_initialization
start_initialization:

psect	bssCOMMON,class=COMMON,space=1
global __pbssCOMMON
__pbssCOMMON:
_uiBigTimer:
       ds      2

_uiSmallTimer:
       ds      2

ISR@ucTimer1sCnt:
       ds      1

psect	dataCOMMON,class=COMMON,space=1
global __pdataCOMMON
__pdataCOMMON:
	file	"C:\test__190531\AK7030-OTP\common.c"
_sampleChannelSelect:
       ds      1

; Clear objects allocated to COMMON
psect cinit,class=CODE,delta=2
	clrf	((__pbssCOMMON)+0)&07Fh
	clrf	((__pbssCOMMON)+1)&07Fh
	clrf	((__pbssCOMMON)+2)&07Fh
	clrf	((__pbssCOMMON)+3)&07Fh
	clrf	((__pbssCOMMON)+4)&07Fh
; Initialize objects allocated to COMMON
	global __pidataCOMMON
psect cinit,class=CODE,delta=2
	fcall	__pidataCOMMON+0		;fetch initializer
	movwf	__pdataCOMMON+0&07fh		
psect cinit,class=CODE,delta=2
global end_of_initialization

;End of C runtime variable initialization code

end_of_initialization:
clrf status
ljmp _main	;jump to C main() function
psect	cstackCOMMON,class=COMMON,space=1
global __pcstackCOMMON
__pcstackCOMMON:
	global	?_clock_config
?_clock_config:	; 0 bytes @ 0x0
	global	?_timer1_config
?_timer1_config:	; 0 bytes @ 0x0
	global	?_timer1_interrupt_config
?_timer1_interrupt_config:	; 0 bytes @ 0x0
	global	?_dac_init
?_dac_init:	; 0 bytes @ 0x0
	global	?_op1_init
?_op1_init:	; 0 bytes @ 0x0
	global	?_op2_init
?_op2_init:	; 0 bytes @ 0x0
	global	?_adc_start
?_adc_start:	; 0 bytes @ 0x0
	global	?_main
?_main:	; 0 bytes @ 0x0
	global	?_setAD_ConvertFlag
?_setAD_ConvertFlag:	; 0 bytes @ 0x0
	global	??_setAD_ConvertFlag
??_setAD_ConvertFlag:	; 0 bytes @ 0x0
	global	?_ISR
?_ISR:	; 0 bytes @ 0x0
	global	?_adc_get
?_adc_get:	; 2 bytes @ 0x0
	global	setAD_ConvertFlag@flag
setAD_ConvertFlag@flag:	; 1 bytes @ 0x0
	ds	2
	global	??_adc_get
??_adc_get:	; 0 bytes @ 0x2
	global	adc_get@val
adc_get@val:	; 2 bytes @ 0x2
	ds	2
	global	??_ISR
??_ISR:	; 0 bytes @ 0x4
	ds	4
psect	cstackBANK0,class=BANK0,space=1
global __pcstackBANK0
__pcstackBANK0:
	global	??_clock_config
??_clock_config:	; 0 bytes @ 0x0
	global	??_timer1_config
??_timer1_config:	; 0 bytes @ 0x0
	global	??_timer1_interrupt_config
??_timer1_interrupt_config:	; 0 bytes @ 0x0
	global	?_adc_test_init
?_adc_test_init:	; 0 bytes @ 0x0
	global	??_dac_init
??_dac_init:	; 0 bytes @ 0x0
	global	??_op1_init
??_op1_init:	; 0 bytes @ 0x0
	global	??_op2_init
??_op2_init:	; 0 bytes @ 0x0
	global	??_adc_start
??_adc_start:	; 0 bytes @ 0x0
	global	adc_test_init@ref
adc_test_init@ref:	; 1 bytes @ 0x0
	ds	1
	global	??_adc_test_init
??_adc_test_init:	; 0 bytes @ 0x1
	ds	1
	global	adc_test_init@channel
adc_test_init@channel:	; 1 bytes @ 0x2
	ds	1
	global	??_main
??_main:	; 0 bytes @ 0x3
;;Data sizes: Strings 0, constant 0, data 1, bss 5, persistent 0 stack 0
;;Auto spaces:   Size  Autos    Used
;; COMMON          14      8      14
;; BANK0           80      3       3
;; BANK1           80      0       0
;; BANK3           96      0       0
;; BANK2           96      0       0

;;
;; Pointer list with targets:

;; ?_adc_get	unsigned int  size(1) Largest target is 0
;;


;;
;; Critical Paths under _main in COMMON
;;
;;   None.
;;
;; Critical Paths under _ISR in COMMON
;;
;;   _ISR->_adc_get
;;
;; Critical Paths under _main in BANK0
;;
;;   _main->_adc_test_init
;;
;; Critical Paths under _ISR in BANK0
;;
;;   None.
;;
;; Critical Paths under _main in BANK1
;;
;;   None.
;;
;; Critical Paths under _ISR in BANK1
;;
;;   None.
;;
;; Critical Paths under _main in BANK3
;;
;;   None.
;;
;; Critical Paths under _ISR in BANK3
;;
;;   None.
;;
;; Critical Paths under _main in BANK2
;;
;;   None.
;;
;; Critical Paths under _ISR in BANK2
;;
;;   None.

;;
;;Main: autosize = 0, tempsize = 0, incstack = 0, save=0
;;

;;
;;Call Graph Tables:
;;
;; ---------------------------------------------------------------------------------
;; (Depth) Function   	        Calls       Base Space   Used Autos Params    Refs
;; ---------------------------------------------------------------------------------
;; (0) _main                                                 0     0      0      44
;;                       _clock_config
;;                      _timer1_config
;;            _timer1_interrupt_config
;;                      _adc_test_init
;;                           _dac_init
;;                           _op1_init
;;                           _op2_init
;;                          _adc_start
;; ---------------------------------------------------------------------------------
;; (1) _adc_start                                            0     0      0       0
;; ---------------------------------------------------------------------------------
;; (1) _op2_init                                             0     0      0       0
;; ---------------------------------------------------------------------------------
;; (1) _op1_init                                             0     0      0       0
;; ---------------------------------------------------------------------------------
;; (1) _dac_init                                             0     0      0       0
;; ---------------------------------------------------------------------------------
;; (1) _adc_test_init                                        3     2      1      44
;;                                              0 BANK0      3     2      1
;; ---------------------------------------------------------------------------------
;; (1) _timer1_interrupt_config                              0     0      0       0
;; ---------------------------------------------------------------------------------
;; (1) _timer1_config                                        0     0      0       0
;; ---------------------------------------------------------------------------------
;; (1) _clock_config                                         0     0      0       0
;; ---------------------------------------------------------------------------------
;; Estimated maximum stack depth 1
;; ---------------------------------------------------------------------------------
;; (Depth) Function   	        Calls       Base Space   Used Autos Params    Refs
;; ---------------------------------------------------------------------------------
;; (2) _ISR                                                  4     4      0      24
;;                                              4 COMMON     4     4      0
;;                  _setAD_ConvertFlag
;;                            _adc_get
;; ---------------------------------------------------------------------------------
;; (3) _adc_get                                              4     2      2      15
;;                                              0 COMMON     4     2      2
;; ---------------------------------------------------------------------------------
;; (3) _setAD_ConvertFlag                                    1     1      0       9
;;                                              0 COMMON     1     1      0
;; ---------------------------------------------------------------------------------
;; Estimated maximum stack depth 3
;; ---------------------------------------------------------------------------------

;; Call Graph Graphs:

;; _main (ROOT)
;;   _clock_config
;;   _timer1_config
;;   _timer1_interrupt_config
;;   _adc_test_init
;;   _dac_init
;;   _op1_init
;;   _op2_init
;;   _adc_start
;;
;; _ISR (ROOT)
;;   _setAD_ConvertFlag
;;   _adc_get
;;

;; Address spaces:

;;Name               Size   Autos  Total    Cost      Usage
;;BANK3               60      0       0      10        0.0%
;;BITBANK3            60      0       0       9        0.0%
;;SFR3                 0      0       0       4        0.0%
;;BITSFR3              0      0       0       4        0.0%
;;BANK2               60      0       0      12        0.0%
;;BITBANK2            60      0       0      11        0.0%
;;SFR2                 0      0       0       5        0.0%
;;BITSFR2              0      0       0       5        0.0%
;;SFR1                 0      0       0       2        0.0%
;;BITSFR1              0      0       0       2        0.0%
;;BANK1               50      0       0       8        0.0%
;;BITBANK1            50      0       0       7        0.0%
;;CODE                 0      0       0       0        0.0%
;;DATA                 0      0      16       6        0.0%
;;ABS                  0      0      11       3        0.0%
;;NULL                 0      0       0       0        0.0%
;;STACK                0      0       5       2        0.0%
;;BANK0               50      3       3       5        3.8%
;;BITBANK0            50      0       0       4        0.0%
;;SFR0                 0      0       0       1        0.0%
;;BITSFR0              0      0       0       1        0.0%
;;COMMON               E      8       E       1      100.0%
;;BITCOMMON            E      0       0       0        0.0%

	global	_main
psect	maintext,global,class=CODE,delta=2
global __pmaintext
__pmaintext:

;; *************** function _main *****************
;; Defined at:
;;		line 84 in file "C:\test__190531\AK7030-OTP\main.c"
;; Parameters:    Size  Location     Type
;;		None
;; Auto vars:     Size  Location     Type
;;		None
;; Return value:  Size  Location     Type
;;		None               void
;; Registers used:
;;		wreg, status,2, status,0, pclath, cstack
;; Tracked objects:
;;		On entry : 17F/0
;;		On exit  : 0/0
;;		Unchanged: FFE00/0
;; Data sizes:     COMMON   BANK0   BANK1   BANK3   BANK2
;;      Params:         0       0       0       0       0
;;      Locals:         0       0       0       0       0
;;      Temps:          0       0       0       0       0
;;      Totals:         0       0       0       0       0
;;Total ram usage:        0 bytes
;; Hardware stack levels required when called:    3
;; This function calls:
;;		_clock_config
;;		_timer1_config
;;		_timer1_interrupt_config
;;		_adc_test_init
;;		_dac_init
;;		_op1_init
;;		_op2_init
;;		_adc_start
;; This function is called by:
;;		Startup code after reset
;; This function uses a non-reentrant model
;;
psect	maintext
	file	"C:\test__190531\AK7030-OTP\main.c"
	line	84
	global	__size_of_main
	__size_of_main	equ	__end_of_main-_main
	
_main:	
	opt	stack 5
; Regs used in _main: [wreg+status,2+status,0+pclath+cstack]
	line	118
	
l2583:	
;main.c: 85: enum step
;main.c: 86: {
;main.c: 87: SENSE_PB2_INPUT_VOLTAGE = 0,
;main.c: 88: SENSE_PB2_DURATION_ONE_SECOND,
;main.c: 89: SENSE_PB2_INPUT_VOLTAGE__AGAIN,
;main.c: 90: SENSE_PB2_DURATION__SECOND,
;main.c: 91: SET_PA2_VALUE,
;main.c: 92: ADC1_VALUE_MEET_CONDITION,
;main.c: 93: PROCESS_AD_VALUE,
;main.c: 94: WAIT_SET_TIME_FINISHED,
;main.c: 95: SET_TIME_BE_FINISHED,
;main.c: 96: CHECKING_PULL_OUT_BATTERY,
;main.c: 97: CHECKING_INSTALLED_BATTERY,
;main.c: 98: };
;main.c: 100: enum workTimerType
;main.c: 101: {
	bsf	status, 5	;RP0=1, select bank1
	bcf	(1064/8)^080h,(1064)&7
	line	119
;main.c: 119: TRISA1 = 0;
	bcf	(1065/8)^080h,(1065)&7
	line	120
;main.c: 120: TRISA3 = 0;
	bcf	(1067/8)^080h,(1067)&7
	line	121
;main.c: 121: TRISA2 = 0;
	bcf	(1066/8)^080h,(1066)&7
	line	122
;main.c: 122: TRISA6 = 0;
	bcf	(1070/8)^080h,(1070)&7
	line	123
;main.c: 123: PA2 = 1;
	bcf	status, 5	;RP0=0, select bank0
	bsf	(42/8),(42)&7
	line	124
;main.c: 124: PA0 = 1;
	bsf	(40/8),(40)&7
	line	126
;main.c: 126: TRISB2 = 1;
	bsf	status, 5	;RP0=1, select bank1
	bsf	(1074/8)^080h,(1074)&7
	line	128
;main.c: 128: TRISB1 = 1;
	bsf	(1073/8)^080h,(1073)&7
	line	129
;main.c: 129: TRISB4 = 1;
	bsf	(1076/8)^080h,(1076)&7
	line	131
	
l2585:	
;main.c: 131: clock_config();
	fcall	_clock_config
	line	132
;main.c: 132: timer1_config();
	fcall	_timer1_config
	line	133
	
l2587:	
;main.c: 133: timer1_interrupt_config();
	fcall	_timer1_interrupt_config
	line	135
	
l2589:	
;main.c: 135: adc_test_init(13,3);
	movlw	(03h)
	bcf	status, 5	;RP0=0, select bank0
	movwf	(?_adc_test_init)
	movlw	(0Dh)
	fcall	_adc_test_init
	line	137
	
l2591:	
;main.c: 137: dac_init();
	fcall	_dac_init
	line	138
	
l2593:	
;main.c: 138: op1_init();
	fcall	_op1_init
	line	139
	
l2595:	
;main.c: 139: op2_init();
	fcall	_op2_init
	line	142
	
l2597:	
;main.c: 142: adc_start();
	fcall	_adc_start
	line	148
	
l2599:	
# 148 "C:\test__190531\AK7030-OTP\main.c"
 clrwdt ;#
psect	maintext
	goto	l2599
	global	start
	ljmp	start
	opt stack 0
psect	maintext
	line	406
GLOBAL	__end_of_main
	__end_of_main:
;; =============== function _main ends ============

	signat	_main,88
	global	_adc_start
psect	text239,local,class=CODE,delta=2
global __ptext239
__ptext239:

;; *************** function _adc_start *****************
;; Defined at:
;;		line 100 in file "C:\test__190531\AK7030-OTP\periph.c"
;; Parameters:    Size  Location     Type
;;		None
;; Auto vars:     Size  Location     Type
;;		None
;; Return value:  Size  Location     Type
;;		None               void
;; Registers used:
;;		None
;; Tracked objects:
;;		On entry : 17F/20
;;		On exit  : 17F/0
;;		Unchanged: FFE80/0
;; Data sizes:     COMMON   BANK0   BANK1   BANK3   BANK2
;;      Params:         0       0       0       0       0
;;      Locals:         0       0       0       0       0
;;      Temps:          0       0       0       0       0
;;      Totals:         0       0       0       0       0
;;Total ram usage:        0 bytes
;; Hardware stack levels used:    1
;; Hardware stack levels required when called:    2
;; This function calls:
;;		Nothing
;; This function is called by:
;;		_main
;; This function uses a non-reentrant model
;;
psect	text239
	file	"C:\test__190531\AK7030-OTP\periph.c"
	line	100
	global	__size_of_adc_start
	__size_of_adc_start	equ	__end_of_adc_start-_adc_start
	
_adc_start:	
	opt	stack 5
; Regs used in _adc_start: []
	line	101
	
l2581:	
;periph.c: 101: GO=1;
	bcf	status, 5	;RP0=0, select bank0
	bsf	(249/8),(249)&7
	line	102
	
l2069:	
	return
	opt stack 0
GLOBAL	__end_of_adc_start
	__end_of_adc_start:
;; =============== function _adc_start ends ============

	signat	_adc_start,88
	global	_op2_init
psect	text240,local,class=CODE,delta=2
global __ptext240
__ptext240:

;; *************** function _op2_init *****************
;; Defined at:
;;		line 45 in file "C:\test__190531\AK7030-OTP\periph.c"
;; Parameters:    Size  Location     Type
;;		None
;; Auto vars:     Size  Location     Type
;;		None
;; Return value:  Size  Location     Type
;;		None               void
;; Registers used:
;;		wreg
;; Tracked objects:
;;		On entry : 17F/20
;;		On exit  : 17F/20
;;		Unchanged: FFE80/0
;; Data sizes:     COMMON   BANK0   BANK1   BANK3   BANK2
;;      Params:         0       0       0       0       0
;;      Locals:         0       0       0       0       0
;;      Temps:          0       0       0       0       0
;;      Totals:         0       0       0       0       0
;;Total ram usage:        0 bytes
;; Hardware stack levels used:    1
;; Hardware stack levels required when called:    2
;; This function calls:
;;		Nothing
;; This function is called by:
;;		_main
;; This function uses a non-reentrant model
;;
psect	text240
	file	"C:\test__190531\AK7030-OTP\periph.c"
	line	45
	global	__size_of_op2_init
	__size_of_op2_init	equ	__end_of_op2_init-_op2_init
	
_op2_init:	
	opt	stack 5
; Regs used in _op2_init: [wreg]
	line	52
	
l2573:	
;periph.c: 52: OP2CON1=0x10;
	movlw	(010h)
	movwf	(156)^080h	;volatile
	line	54
;periph.c: 54: OP2CON2=0x90;
	movlw	(090h)
	movwf	(157)^080h	;volatile
	line	55
;periph.c: 55: OP2CON0=0x80;
	movlw	(080h)
	movwf	(155)^080h	;volatile
	line	58
	
l2575:	
;periph.c: 58: TRISA7=0;
	bcf	(1071/8)^080h,(1071)&7
	line	59
	
l2577:	
;periph.c: 59: TRISB6=1;
	bsf	(1078/8)^080h,(1078)&7
	line	60
	
l2579:	
;periph.c: 60: TRISB7 = 1;
	bsf	(1079/8)^080h,(1079)&7
	line	61
	
l2055:	
	return
	opt stack 0
GLOBAL	__end_of_op2_init
	__end_of_op2_init:
;; =============== function _op2_init ends ============

	signat	_op2_init,88
	global	_op1_init
psect	text241,local,class=CODE,delta=2
global __ptext241
__ptext241:

;; *************** function _op1_init *****************
;; Defined at:
;;		line 26 in file "C:\test__190531\AK7030-OTP\periph.c"
;; Parameters:    Size  Location     Type
;;		None
;; Auto vars:     Size  Location     Type
;;		None
;; Return value:  Size  Location     Type
;;		None               void
;; Registers used:
;;		wreg
;; Tracked objects:
;;		On entry : 17F/20
;;		On exit  : 17F/20
;;		Unchanged: FFE80/0
;; Data sizes:     COMMON   BANK0   BANK1   BANK3   BANK2
;;      Params:         0       0       0       0       0
;;      Locals:         0       0       0       0       0
;;      Temps:          0       0       0       0       0
;;      Totals:         0       0       0       0       0
;;Total ram usage:        0 bytes
;; Hardware stack levels used:    1
;; Hardware stack levels required when called:    2
;; This function calls:
;;		Nothing
;; This function is called by:
;;		_main
;; This function uses a non-reentrant model
;;
psect	text241
	file	"C:\test__190531\AK7030-OTP\periph.c"
	line	26
	global	__size_of_op1_init
	__size_of_op1_init	equ	__end_of_op1_init-_op1_init
	
_op1_init:	
	opt	stack 5
; Regs used in _op1_init: [wreg]
	line	33
	
l2565:	
;periph.c: 33: OP1CON1=0x02;
	movlw	(02h)
	bcf	status, 5	;RP0=0, select bank0
	movwf	(28)	;volatile
	line	34
;periph.c: 34: OP1CON2=0xA0;
	movlw	(0A0h)
	movwf	(29)	;volatile
	line	35
;periph.c: 35: OP1CON0=0x80;
	movlw	(080h)
	movwf	(27)	;volatile
	line	38
	
l2567:	
;periph.c: 38: TRISB3=1;
	bsf	status, 5	;RP0=1, select bank1
	bsf	(1075/8)^080h,(1075)&7
	line	39
	
l2569:	
;periph.c: 39: TRISB4=1;
	bsf	(1076/8)^080h,(1076)&7
	line	40
	
l2571:	
;periph.c: 40: TRISB5=0;
	bcf	(1077/8)^080h,(1077)&7
	line	41
	
l2052:	
	return
	opt stack 0
GLOBAL	__end_of_op1_init
	__end_of_op1_init:
;; =============== function _op1_init ends ============

	signat	_op1_init,88
	global	_dac_init
psect	text242,local,class=CODE,delta=2
global __ptext242
__ptext242:

;; *************** function _dac_init *****************
;; Defined at:
;;		line 14 in file "C:\test__190531\AK7030-OTP\periph.c"
;; Parameters:    Size  Location     Type
;;		None
;; Auto vars:     Size  Location     Type
;;		None
;; Return value:  Size  Location     Type
;;		None               void
;; Registers used:
;;		wreg
;; Tracked objects:
;;		On entry : 17F/20
;;		On exit  : 17F/20
;;		Unchanged: FFE80/0
;; Data sizes:     COMMON   BANK0   BANK1   BANK3   BANK2
;;      Params:         0       0       0       0       0
;;      Locals:         0       0       0       0       0
;;      Temps:          0       0       0       0       0
;;      Totals:         0       0       0       0       0
;;Total ram usage:        0 bytes
;; Hardware stack levels used:    1
;; Hardware stack levels required when called:    2
;; This function calls:
;;		Nothing
;; This function is called by:
;;		_main
;; This function uses a non-reentrant model
;;
psect	text242
	file	"C:\test__190531\AK7030-OTP\periph.c"
	line	14
	global	__size_of_dac_init
	__size_of_dac_init	equ	__end_of_dac_init-_dac_init
	
_dac_init:	
	opt	stack 5
; Regs used in _dac_init: [wreg]
	line	15
	
l2559:	
;periph.c: 15: DACCON|=1;
	bsf	(135)^080h+(0/8),(0)&7	;volatile
	line	17
	
l2561:	
;periph.c: 17: DACR0=0x0F;
	movlw	(0Fh)
	movwf	(136)^080h	;volatile
	line	18
	
l2563:	
;periph.c: 18: DACCON|=(1)<<2;
	bsf	(135)^080h+(2/8),(2)&7	;volatile
	line	22
	
l2049:	
	return
	opt stack 0
GLOBAL	__end_of_dac_init
	__end_of_dac_init:
;; =============== function _dac_init ends ============

	signat	_dac_init,88
	global	_adc_test_init
psect	text243,local,class=CODE,delta=2
global __ptext243
__ptext243:

;; *************** function _adc_test_init *****************
;; Defined at:
;;		line 85 in file "C:\test__190531\AK7030-OTP\periph.c"
;; Parameters:    Size  Location     Type
;;  channel         1    wreg     unsigned char 
;;  ref             1    0[BANK0 ] unsigned char 
;; Auto vars:     Size  Location     Type
;;  channel         1    2[BANK0 ] unsigned char 
;; Return value:  Size  Location     Type
;;		None               void
;; Registers used:
;;		wreg, status,2, status,0
;; Tracked objects:
;;		On entry : 17F/0
;;		On exit  : 17F/20
;;		Unchanged: FFE80/0
;; Data sizes:     COMMON   BANK0   BANK1   BANK3   BANK2
;;      Params:         0       1       0       0       0
;;      Locals:         0       1       0       0       0
;;      Temps:          0       1       0       0       0
;;      Totals:         0       3       0       0       0
;;Total ram usage:        3 bytes
;; Hardware stack levels used:    1
;; Hardware stack levels required when called:    2
;; This function calls:
;;		Nothing
;; This function is called by:
;;		_main
;; This function uses a non-reentrant model
;;
psect	text243
	file	"C:\test__190531\AK7030-OTP\periph.c"
	line	85
	global	__size_of_adc_test_init
	__size_of_adc_test_init	equ	__end_of_adc_test_init-_adc_test_init
	
_adc_test_init:	
	opt	stack 5
; Regs used in _adc_test_init: [wreg+status,2+status,0]
;adc_test_init@channel stored from wreg
	movwf	(adc_test_init@channel)
	line	86
	
l2549:	
;periph.c: 86: ADCON0 = 0x00;
	clrf	(31)	;volatile
	line	87
	
l2551:	
;periph.c: 87: ADCON0|=channel<<2;
	movf	(adc_test_init@channel),w
	movwf	(??_adc_test_init+0)+0
	clrc
	rlf	(??_adc_test_init+0)+0,f
	clrc
	rlf	(??_adc_test_init+0)+0,w
	iorwf	(31),f	;volatile
	line	88
	
l2553:	
;periph.c: 88: ADCON1|=ref<<6;
	movf	(adc_test_init@ref),w
	movwf	(??_adc_test_init+0)+0
	rrf	(??_adc_test_init+0)+0,f
	rrf	(??_adc_test_init+0)+0,f
	rrf	(??_adc_test_init+0)+0,w
	andlw	0c0h
	bsf	status, 5	;RP0=1, select bank1
	iorwf	(159)^080h,f	;volatile
	line	89
	
l2555:	
;periph.c: 89: ADON=1;
	bcf	status, 5	;RP0=0, select bank0
	bsf	(248/8),(248)&7
	line	90
	
l2557:	
;periph.c: 90: ADIE=1;
	bsf	status, 5	;RP0=1, select bank1
	bsf	(1130/8)^080h,(1130)&7
	line	91
	
l2063:	
	return
	opt stack 0
GLOBAL	__end_of_adc_test_init
	__end_of_adc_test_init:
;; =============== function _adc_test_init ends ============

	signat	_adc_test_init,8312
	global	_timer1_interrupt_config
psect	text244,local,class=CODE,delta=2
global __ptext244
__ptext244:

;; *************** function _timer1_interrupt_config *****************
;; Defined at:
;;		line 56 in file "C:\test__190531\AK7030-OTP\common.c"
;; Parameters:    Size  Location     Type
;;		None
;; Auto vars:     Size  Location     Type
;;		None
;; Return value:  Size  Location     Type
;;		None               void
;; Registers used:
;;		None
;; Tracked objects:
;;		On entry : 17F/20
;;		On exit  : 17F/20
;;		Unchanged: FFE80/0
;; Data sizes:     COMMON   BANK0   BANK1   BANK3   BANK2
;;      Params:         0       0       0       0       0
;;      Locals:         0       0       0       0       0
;;      Temps:          0       0       0       0       0
;;      Totals:         0       0       0       0       0
;;Total ram usage:        0 bytes
;; Hardware stack levels used:    1
;; Hardware stack levels required when called:    2
;; This function calls:
;;		Nothing
;; This function is called by:
;;		_main
;; This function uses a non-reentrant model
;;
psect	text244
	file	"C:\test__190531\AK7030-OTP\common.c"
	line	56
	global	__size_of_timer1_interrupt_config
	__size_of_timer1_interrupt_config	equ	__end_of_timer1_interrupt_config-_timer1_interrupt_config
	
_timer1_interrupt_config:	
	opt	stack 5
; Regs used in _timer1_interrupt_config: []
	line	57
	
l2547:	
;common.c: 57: GIE = 1;
	bsf	(95/8),(95)&7
	line	58
;common.c: 58: PEIE = 1;
	bsf	(94/8),(94)&7
	line	59
	
l1336:	
	return
	opt stack 0
GLOBAL	__end_of_timer1_interrupt_config
	__end_of_timer1_interrupt_config:
;; =============== function _timer1_interrupt_config ends ============

	signat	_timer1_interrupt_config,88
	global	_timer1_config
psect	text245,local,class=CODE,delta=2
global __ptext245
__ptext245:

;; *************** function _timer1_config *****************
;; Defined at:
;;		line 44 in file "C:\test__190531\AK7030-OTP\common.c"
;; Parameters:    Size  Location     Type
;;		None
;; Auto vars:     Size  Location     Type
;;		None
;; Return value:  Size  Location     Type
;;		None               void
;; Registers used:
;;		wreg
;; Tracked objects:
;;		On entry : 17F/40
;;		On exit  : 17F/20
;;		Unchanged: FFE80/0
;; Data sizes:     COMMON   BANK0   BANK1   BANK3   BANK2
;;      Params:         0       0       0       0       0
;;      Locals:         0       0       0       0       0
;;      Temps:          0       0       0       0       0
;;      Totals:         0       0       0       0       0
;;Total ram usage:        0 bytes
;; Hardware stack levels used:    1
;; Hardware stack levels required when called:    2
;; This function calls:
;;		Nothing
;; This function is called by:
;;		_main
;; This function uses a non-reentrant model
;;
psect	text245
	file	"C:\test__190531\AK7030-OTP\common.c"
	line	44
	global	__size_of_timer1_config
	__size_of_timer1_config	equ	__end_of_timer1_config-_timer1_config
	
_timer1_config:	
	opt	stack 5
; Regs used in _timer1_config: [wreg]
	line	46
	
l2543:	
;common.c: 46: TMR1H=0xCF;
	movlw	(0CFh)
	bcf	status, 6	;RP1=0, select bank0
	movwf	(15)	;volatile
	line	47
;common.c: 47: TMR1L=0x2C;
	movlw	(02Ch)
	movwf	(14)	;volatile
	line	48
;common.c: 48: T1CON=0xE1;
	movlw	(0E1h)
	movwf	(16)	;volatile
	line	49
	
l2545:	
;common.c: 49: TMR1IE=1;
	bsf	status, 5	;RP0=1, select bank1
	bsf	(1120/8)^080h,(1120)&7
	line	51
	
l1333:	
	return
	opt stack 0
GLOBAL	__end_of_timer1_config
	__end_of_timer1_config:
;; =============== function _timer1_config ends ============

	signat	_timer1_config,88
	global	_clock_config
psect	text246,local,class=CODE,delta=2
global __ptext246
__ptext246:

;; *************** function _clock_config *****************
;; Defined at:
;;		line 36 in file "C:\test__190531\AK7030-OTP\common.c"
;; Parameters:    Size  Location     Type
;;		None
;; Auto vars:     Size  Location     Type
;;		None
;; Return value:  Size  Location     Type
;;		None               void
;; Registers used:
;;		wreg, status,2
;; Tracked objects:
;;		On entry : 17F/20
;;		On exit  : 17F/40
;;		Unchanged: FFE80/0
;; Data sizes:     COMMON   BANK0   BANK1   BANK3   BANK2
;;      Params:         0       0       0       0       0
;;      Locals:         0       0       0       0       0
;;      Temps:          0       0       0       0       0
;;      Totals:         0       0       0       0       0
;;Total ram usage:        0 bytes
;; Hardware stack levels used:    1
;; Hardware stack levels required when called:    2
;; This function calls:
;;		Nothing
;; This function is called by:
;;		_main
;; This function uses a non-reentrant model
;;
psect	text246
	file	"C:\test__190531\AK7030-OTP\common.c"
	line	36
	global	__size_of_clock_config
	__size_of_clock_config	equ	__end_of_clock_config-_clock_config
	
_clock_config:	
	opt	stack 5
; Regs used in _clock_config: [wreg+status,2]
	line	38
	
l2539:	
;common.c: 38: CLKPR = 0x80;
	movlw	(080h)
	bcf	status, 5	;RP0=0, select bank2
	bsf	status, 6	;RP1=1, select bank2
	movwf	(264)^0100h	;volatile
	line	39
	
l2541:	
;common.c: 39: CLKPR = 0x00;
	clrf	(264)^0100h	;volatile
	line	40
;common.c: 40: while(CLKPCE);
	
l1327:	
	btfsc	(2119/8)^0100h,(2119)&7
	goto	u71
	goto	u70
u71:
	goto	l1327
u70:
	line	41
	
l1330:	
	return
	opt stack 0
GLOBAL	__end_of_clock_config
	__end_of_clock_config:
;; =============== function _clock_config ends ============

	signat	_clock_config,88
	global	_ISR
psect	text247,local,class=CODE,delta=2
global __ptext247
__ptext247:

;; *************** function _ISR *****************
;; Defined at:
;;		line 253 in file "C:\test__190531\AK7030-OTP\common.c"
;; Parameters:    Size  Location     Type
;;		None
;; Auto vars:     Size  Location     Type
;;		None
;; Return value:  Size  Location     Type
;;		None               void
;; Registers used:
;;		wreg, fsr0l, fsr0h, fsr1l, fsr1h, status,2, status,0, btemp+1, pclath, cstack
;; Tracked objects:
;;		On entry : 0/0
;;		On exit  : 60/0
;;		Unchanged: FFF9F/0
;; Data sizes:     COMMON   BANK0   BANK1   BANK3   BANK2
;;      Params:         0       0       0       0       0
;;      Locals:         0       0       0       0       0
;;      Temps:          4       0       0       0       0
;;      Totals:         4       0       0       0       0
;;Total ram usage:        4 bytes
;; Hardware stack levels used:    1
;; Hardware stack levels required when called:    1
;; This function calls:
;;		_setAD_ConvertFlag
;;		_adc_get
;; This function is called by:
;;		Interrupt level 1
;; This function uses a non-reentrant model
;;
psect	text247
	file	"C:\test__190531\AK7030-OTP\common.c"
	line	253
	global	__size_of_ISR
	__size_of_ISR	equ	__end_of_ISR-_ISR
	
_ISR:	
	opt	stack 5
; Regs used in _ISR: [allreg]
psect	intentry,class=CODE,delta=2
global __pintentry
__pintentry:
global interrupt_function
interrupt_function:
	global saved_w
	saved_w	set	btemp+0
	movwf	saved_w
	swapf	status,w
	movwf	(??_ISR+0)
	movf	fsr0,w
	movwf	(??_ISR+1)
	movf	pclath,w
	movwf	(??_ISR+2)
	bcf	status, 5	;RP0=0, select bank0
	bcf	status, 6	;RP1=0, select bank0
	movf	btemp+1,w
	movwf	(??_ISR+3)
	ljmp	_ISR
psect	text247
	line	256
	
i1l2485:	
;common.c: 254: static unsigned char ucTimer1sCnt = 0;
;common.c: 256: if(TMR1IF == 1)
	btfss	(96/8),(96)&7
	goto	u2_21
	goto	u2_20
u2_21:
	goto	i1l2503
u2_20:
	line	258
	
i1l2487:	
;common.c: 259: timer.timer10msStopWatch++;
	bcf	(96/8),(96)&7
	line	260
	
i1l2489:	
;common.c: 260: ucTimer1sCnt++;
	incf	(ISR@ucTimer1sCnt),f
	line	262
	
i1l2491:	
;common.c: 262: if(ucTimer1sCnt >= 100)
	movlw	(064h)
	subwf	(ISR@ucTimer1sCnt),w
	skipc
	goto	u3_21
	goto	u3_20
u3_21:
	goto	i1l2503
u3_20:
	line	264
	
i1l2493:	
;common.c: 263: {
;common.c: 264: PA0 = ~PA0;
	movlw	1<<((40)&7)
	xorwf	((40)/8),f
	line	265
	
i1l2495:	
;common.c: 265: ucTimer1sCnt = 0;
	clrf	(ISR@ucTimer1sCnt)
	line	266
	
i1l2497:	
;common.c: 266: if(uiBigTimer > 0)
	movf	(_uiBigTimer+1),w
	iorwf	(_uiBigTimer),w
	skipnz
	goto	u4_21
	goto	u4_20
u4_21:
	goto	i1l1417
u4_20:
	line	267
	
i1l2499:	
;common.c: 267: uiBigTimer--;
	movlw	low(01h)
	subwf	(_uiBigTimer),f
	movlw	high(01h)
	skipc
	decf	(_uiBigTimer+1),f
	subwf	(_uiBigTimer+1),f
	
i1l1417:	
	line	269
;common.c: 269: if(uiSmallTimer)
	movf	(_uiSmallTimer+1),w
	iorwf	(_uiSmallTimer),w
	skipnz
	goto	u5_21
	goto	u5_20
u5_21:
	goto	i1l2503
u5_20:
	line	270
	
i1l2501:	
;common.c: 270: uiSmallTimer--;
	movlw	low(01h)
	subwf	(_uiSmallTimer),f
	movlw	high(01h)
	skipc
	decf	(_uiSmallTimer+1),f
	subwf	(_uiSmallTimer+1),f
	line	274
	
i1l2503:	
;common.c: 271: }
;common.c: 272: }
;common.c: 274: if(ADIF)
	btfss	(106/8),(106)&7
	goto	u6_21
	goto	u6_20
u6_21:
	goto	i1l1422
u6_20:
	line	276
	
i1l2505:	
;common.c: 275: {
;common.c: 276: ADIF=0;
	bcf	(106/8),(106)&7
	line	277
	
i1l2507:	
;common.c: 277: setAD_ConvertFlag(1);
	movlw	(01h)
	fcall	_setAD_ConvertFlag
	line	278
	
i1l2509:	
;common.c: 278: adc_original_value = adc_get();
	fcall	_adc_get
	line	280
	
i1l2513:	
;common.c: 280: adc_original_CH1_value = adc_get();
	fcall	_adc_get
	line	285
	
i1l1422:	
	movf	(??_ISR+3),w
	bcf	status, 5	;RP0=0, select bank0
	movwf	btemp+1
	movf	(??_ISR+2),w
	movwf	pclath
	movf	(??_ISR+1),w
	movwf	fsr0
	swapf	(??_ISR+0)^0FFFFFF80h,w
	movwf	status
	swapf	saved_w,f
	swapf	saved_w,w
	retfie
	opt stack 0
GLOBAL	__end_of_ISR
	__end_of_ISR:
;; =============== function _ISR ends ============

	signat	_ISR,88
	global	_adc_get
psect	text248,local,class=CODE,delta=2
global __ptext248
__ptext248:

;; *************** function _adc_get *****************
;; Defined at:
;;		line 105 in file "C:\test__190531\AK7030-OTP\periph.c"
;; Parameters:    Size  Location     Type
;;		None
;; Auto vars:     Size  Location     Type
;;  val             2    2[COMMON] unsigned int 
;; Return value:  Size  Location     Type
;;                  2    0[COMMON] unsigned int 
;; Registers used:
;;		wreg
;; Tracked objects:
;;		On entry : 40/0
;;		On exit  : 60/20
;;		Unchanged: FFF9F/0
;; Data sizes:     COMMON   BANK0   BANK1   BANK3   BANK2
;;      Params:         2       0       0       0       0
;;      Locals:         2       0       0       0       0
;;      Temps:          0       0       0       0       0
;;      Totals:         4       0       0       0       0
;;Total ram usage:        4 bytes
;; Hardware stack levels used:    1
;; This function calls:
;;		Nothing
;; This function is called by:
;;		_ISR
;; This function uses a non-reentrant model
;;
psect	text248
	file	"C:\test__190531\AK7030-OTP\periph.c"
	line	105
	global	__size_of_adc_get
	__size_of_adc_get	equ	__end_of_adc_get-_adc_get
	
_adc_get:	
	opt	stack 5
; Regs used in _adc_get: [wreg]
	line	107
	
i1l2517:	
;periph.c: 106: unsigned int val;
;periph.c: 107: val = (ADRESH<<8) | ADRESL;
	bcf	status, 5	;RP0=0, select bank0
	movf	(30),w	;volatile
	movwf	(adc_get@val+1)
	clrf	(adc_get@val)
	bsf	status, 5	;RP0=1, select bank1
	movf	(158)^080h,w	;volatile
	iorwf	(adc_get@val),f
	line	108
;periph.c: 108: return val;
	movf	(adc_get@val+1),w
	movwf	(?_adc_get+1)
	movf	(adc_get@val),w
	movwf	(?_adc_get)
	line	109
	
i1l2072:	
	return
	opt stack 0
GLOBAL	__end_of_adc_get
	__end_of_adc_get:
;; =============== function _adc_get ends ============

	signat	_adc_get,90
	global	_setAD_ConvertFlag
psect	text249,local,class=CODE,delta=2
global __ptext249
__ptext249:

;; *************** function _setAD_ConvertFlag *****************
;; Defined at:
;;		line 70 in file "C:\test__190531\AK7030-OTP\common.c"
;; Parameters:    Size  Location     Type
;;  flag            1    wreg     unsigned char 
;; Auto vars:     Size  Location     Type
;;  flag            1    0[COMMON] unsigned char 
;; Return value:  Size  Location     Type
;;		None               void
;; Registers used:
;;		wreg
;; Tracked objects:
;;		On entry : 60/0
;;		On exit  : 60/0
;;		Unchanged: FFFFFF9F/0
;; Data sizes:     COMMON   BANK0   BANK1   BANK3   BANK2
;;      Params:         0       0       0       0       0
;;      Locals:         1       0       0       0       0
;;      Temps:          0       0       0       0       0
;;      Totals:         1       0       0       0       0
;;Total ram usage:        1 bytes
;; Hardware stack levels used:    1
;; This function calls:
;;		Nothing
;; This function is called by:
;;		_ISR
;; This function uses a non-reentrant model
;;
psect	text249
	file	"C:\test__190531\AK7030-OTP\common.c"
	line	70
	global	__size_of_setAD_ConvertFlag
	__size_of_setAD_ConvertFlag	equ	__end_of_setAD_ConvertFlag-_setAD_ConvertFlag
	
_setAD_ConvertFlag:	
	opt	stack 5
; Regs used in _setAD_ConvertFlag: [wreg]
	line	72
	
i1l1342:	
	return
	opt stack 0
GLOBAL	__end_of_setAD_ConvertFlag
	__end_of_setAD_ConvertFlag:
;; =============== function _setAD_ConvertFlag ends ============

	signat	_setAD_ConvertFlag,4216
psect	text250,local,class=CODE,delta=2
global __ptext250
__ptext250:
	global	btemp
	btemp set 07Eh

	DABS	1,126,2	;btemp
	global	wtemp0
	wtemp0 set btemp
	end
