

HI-TECH Software PIC PRO Macro Assembler V9.83 build 10920 
                                                                                               Wed Jun 19 11:50:06 2019

HI-TECH Software Omniscient Code Generator (PRO mode) build 10920
     1                           	processor	16C77
     2                           	opt	pw 120
     3                           	opt	pm
     4                           	psect	config,global,class=CONFIG,delta=2
     5                           	psect	idataBANK0,global,class=CODE,delta=2
     6                           	psect	cinit,global,class=CODE,delta=2
     7                           	psect	bssCOMMON,global,class=COMMON,space=1,delta=1
     8                           	psect	bssBANK0,global,class=BANK0,space=1,delta=1
     9                           	psect	dataBANK0,global,class=BANK0,space=1,delta=1
    10                           	psect	clrtext,global,class=CODE,delta=2
    11                           	psect	cstackCOMMON,global,class=COMMON,space=1,delta=1
    12                           	psect	cstackBANK0,global,class=BANK0,space=1,delta=1
    13                           	psect	maintext,global,class=CODE,delta=2
    14                           	psect	swtext1,local,class=CONST,delta=2
    15                           	psect	swtext2,local,class=CONST,delta=2
    16                           	psect	swtext3,local,class=CONST,delta=2
    17                           	psect	text601,local,class=CODE,delta=2
    18                           	psect	text602,local,class=CODE,delta=2
    19                           	psect	text608,local,class=CODE,delta=2
    20                           	psect	text609,local,class=CODE,delta=2
    21                           	psect	text610,local,class=CODE,delta=2
    22                           	psect	text611,local,class=CODE,delta=2
    23                           	psect	text612,local,class=CODE,delta=2
    24                           	psect	text613,local,class=CODE,delta=2
    25                           	psect	text614,local,class=CODE,delta=2
    26                           	psect	text615,local,class=CODE,delta=2
    27                           	psect	text616,local,class=CODE,delta=2
    28                           	psect	text617,local,class=CODE,delta=2
    29                           	psect	text618,local,class=CODE,delta=2
    30                           	psect	text620,local,class=CODE,delta=2
    31                           	psect	text621,local,class=CODE,delta=2
    32                           	psect	text622,local,class=CODE,delta=2
    33                           	psect	text624,local,class=CODE,delta=2
    34                           	psect	text625,local,class=CODE,delta=2
    35                           	psect	text626,local,class=CODE,delta=2
    36                           	psect	text627,local,class=CODE,delta=2
    37                           	psect	text631,local,class=CODE,delta=2
    38                           	psect	intentry,global,class=CODE,delta=2
    39                           	psect	text634,local,class=CODE,delta=2
    40                           	psect	pa_nodes,global,class=CODE,delta=2
    41                           	dabs	1,0x7E,2
    42  000A                     	;#
    43                           
    44                           	psect	config
    45  2000  2FFF               	dw	12287	;#
    46  2001  3FDE               	dw	16350	;#
    47  2002  3FF8               	dw	16376	;#
    48                           
    49                           	psect	idataBANK0
    50  0000                     __pidataBANK0:	
    51  001F                     _ADCON0	set	31
    52  001E                     _ADRESH	set	30
    53  001B                     _OP1CON0	set	27
    54  001C                     _OP1CON1	set	28
    55  001D                     _OP1CON2	set	29
    56  0010                     _T1CON	set	16
    57  000F                     _TMR1H	set	15
    58  000E                     _TMR1L	set	14
    59  006A                     _ADIF	set	106
    60  00F8                     _ADON	set	248
    61  005F                     _GIE	set	95
    62  00F9                     _GO	set	249
    63  0028                     _PA0	set	40
    64  0029                     _PA1	set	41
    65  002A                     _PA2	set	42
    66  002B                     _PA3	set	43
    67  002E                     _PA6	set	46
    68  002F                     _PA7	set	47
    69  0030                     _PB0	set	48
    70  0031                     _PB1	set	49
    71  0036                     _PB6	set	54
    72  005E                     _PEIE	set	94
    73  0060                     _TMR1IF	set	96
    74  009F                     _ADCON1	set	159
    75  009E                     _ADRESL	set	158
    76  0087                     _DACCON	set	135
    77  0088                     _DACR0	set	136
    78  009B                     _OP2CON0	set	155
    79  009C                     _OP2CON1	set	156
    80  009D                     _OP2CON2	set	157
    81  046A                     _ADIE	set	1130
    82  0460                     _TMR1IE	set	1120
    83  0428                     _TRISA0	set	1064
    84  0429                     _TRISA1	set	1065
    85  042A                     _TRISA2	set	1066
    86  042B                     _TRISA3	set	1067
    87  042E                     _TRISA6	set	1070
    88  042F                     _TRISA7	set	1071
    89  0430                     _TRISB0	set	1072
    90  0431                     _TRISB1	set	1073
    91  0432                     _TRISB2	set	1074
    92  0433                     _TRISB3	set	1075
    93  0434                     _TRISB4	set	1076
    94  0435                     _TRISB5	set	1077
    95  0436                     _TRISB6	set	1078
    96  0437                     _TRISB7	set	1079
    97  0108                     _CLKPR	set	264
    98  0847                     _CLKPCE	set	2119
    99  0C3F                     _PAOD7	set	3135
   100  0C46                     _PBOD6	set	3142
   101                           
   102                           	psect	cinit
   103  0458                     start_initialization:	
   104  0458  3020               	movlw	low __pbssBANK0
   105                           
   106                           ; Clear objects allocated to COMMON
   107  0459  01F6               	clrf	__pbssCOMMON& (0+127)
   108  045A  01F7               	clrf	(__pbssCOMMON+1)& (0+127)
   109  045B  01F8               	clrf	(__pbssCOMMON+2)& (0+127)
   110  045C  01F9               	clrf	(__pbssCOMMON+3)& (0+127)
   111  045D  01FA               	clrf	(__pbssCOMMON+4)& (0+127)
   112                           
   113                           ; Clear objects allocated to BANK0
   114  045E  1383               	bcf	3,7	;select IRP bank0
   115  045F  0084               	movwf	4
   116  0460  3056               	movlw	low (__pbssBANK0+54)
   117  0461  118A  24B7         	fcall	clear_ram
   118                           
   119                           ;initializer for _sampleChannelSelect
   120  0463  300E               	movlw	14
   121  0464  00DB               	movwf	__pdataBANK0& (0+127)
   122  0465                     end_of_initialization:	
   123                           ;End of C runtime variable initialization code
   124                           
   125  0465  0183               	clrf	3
   126  0466  118A  280D         	ljmp	_main	;jump to C main() function
   127                           
   128                           	psect	bssCOMMON
   129  0076                     __pbssCOMMON:	
   130  0076                     _uiTwentySecondsTimer:	
   131  0076                     	ds	2
   132  0078                     ISR@ucTimer1sCnt:	
   133  0078                     	ds	1
   134  0079                     _adc_convert_flag:	
   135  0079                     	ds	1
   136  007A                     _timer:	
   137  007A                     	ds	1
   138                           
   139                           	psect	bssBANK0
   140  0020                     __pbssBANK0:	
   141  0020                     _buffer_Sample_AD_Value:	
   142  0020                     	ds	12
   143  002C                     _adc_original_CH14_value:	
   144  002C                     	ds	2
   145  002E                     _adc_original_CH1_value:	
   146  002E                     	ds	2
   147  0030                     _adc_original_CH4_value:	
   148  0030                     	ds	2
   149  0032                     _adc_original_value:	
   150  0032                     	ds	2
   151  0034                     _multiFilterMaxValue:	
   152  0034                     	ds	2
   153  0036                     _multiFilterMinValue:	
   154  0036                     	ds	2
   155  0038                     _uiBigTimer:	
   156  0038                     	ds	2
   157  003A                     _uiSmallTimer:	
   158  003A                     	ds	2
   159  003C                     _sampleTimes:	
   160  003C                     	ds	1
   161  003D                     main@cTimer1s_809:	
   162  003D                     	ds	1
   163  003E                     main@enumBranchStep:	
   164  003E                     	ds	1
   165  003F                     main@enumInteralStep:	
   166  003F                     	ds	1
   167  0040                     main@enumMainLoopStep:	
   168  0040                     	ds	1
   169  0041                     main@ucADC4_Step:	
   170  0041                     	ds	1
   171  0042                     main@ucChannel4Type:	
   172  0042                     	ds	1
   173  0043                     main@ucLoaderStep:	
   174  0043                     	ds	1
   175  0044                     main@ucLoaderStep1:	
   176  0044                     	ds	1
   177  0045                     main@ucLoaderStep2:	
   178  0045                     	ds	1
   179  0046                     main@ucLoaderStep3:	
   180  0046                     	ds	1
   181  0047                     main@ucLoaderStep4:	
   182  0047                     	ds	1
   183  0048                     main@ucTimer1s:	
   184  0048                     	ds	1
   185  0049                     main@ucTimer20s:	
   186  0049                     	ds	1
   187  004A                     main@ucTimerADC1ZeroP5s:	
   188  004A                     	ds	1
   189  004B                     main@ucTimerDelay:	
   190  004B                     	ds	1
   191  004C                     main@ucTimerDelay1:	
   192  004C                     	ds	1
   193  004D                     main@ucTimerDelay2:	
   194  004D                     	ds	1
   195  004E                     main@ucTimerDelay3:	
   196  004E                     	ds	1
   197  004F                     main@ucTimerDelay4:	
   198  004F                     	ds	1
   199  0050                     main@ucTimerP3s:	
   200  0050                     	ds	1
   201  0051                     main@ucTimerRightP5s:	
   202  0051                     	ds	1
   203  0052                     main@ucTimerX1P5s:	
   204  0052                     	ds	1
   205  0053                     main@ucTimerX2P5s:	
   206  0053                     	ds	1
   207  0054                     main@ucTimerZeroPoint3s:	
   208  0054                     	ds	1
   209  0055                     main@ucTimerZeroPoint5s:	
   210  0055                     	ds	1
   211                           
   212                           	psect	dataBANK0
   213  005B                     __pdataBANK0:	
   214  005B                     _sampleChannelSelect:	
   215  005B                     	ds	1
   216                           
   217                           	psect	clrtext
   218  04B7                     clear_ram:	
   219                           ;	Called with FSR containing the base address, and
   220                           ;	W with the last address+1
   221                           
   222  04B7  0064               	clrwdt	;clear the watchdog before getting into this loop
   223  04B8                     clrloop:	
   224  04B8  0180               	clrf	0	;clear RAM location pointed to by FSR
   225  04B9  0A84               	incf	4,f	;increment pointer
   226  04BA  0604               	xorwf	4,w	;XOR with final address
   227  04BB  1903               	btfsc	3,2	;have we reached the end yet?
   228  04BC  3400               	retlw	0	;all done for this memory range, return
   229  04BD  0604               	xorwf	4,w	;XOR again to restore value
   230  04BE  2CB8               	goto	clrloop	;do the next byte
   231                           
   232                           	psect	cstackCOMMON
   233  0070                     __pcstackCOMMON:	
   234  0070                     ?_clearTwelveHoursTimer:	
   235  0070                     ?_clearThreeHoursTimer:	
   236                           ; 0 bytes @ 0x0
   237                           
   238  0070                     ?_clearTwentySecondsTimer:	
   239                           ; 0 bytes @ 0x0
   240                           
   241  0070                     ?_clock_config:	
   242                           ; 0 bytes @ 0x0
   243                           
   244  0070                     ?_timer1_config:	
   245                           ; 0 bytes @ 0x0
   246                           
   247  0070                     ?_timer1_interrupt_config:	
   248                           ; 0 bytes @ 0x0
   249                           
   250  0070                     ?_dac_init:	
   251                           ; 0 bytes @ 0x0
   252                           
   253  0070                     ?_op1_init:	
   254                           ; 0 bytes @ 0x0
   255                           
   256  0070                     ?_op2_init:	
   257                           ; 0 bytes @ 0x0
   258                           
   259  0070                     ?_adc_start:	
   260                           ; 0 bytes @ 0x0
   261                           
   262  0070                     ?_clrSampeTime:	
   263                           ; 0 bytes @ 0x0
   264                           
   265  0070                     ?_process_AD_Converter_Value:	
   266                           ; 0 bytes @ 0x0
   267                           
   268  0070                     ?_startTwentySecondsTimer:	
   269                           ; 0 bytes @ 0x0
   270                           
   271  0070                     ?_AD_Sample:	
   272                           ; 0 bytes @ 0x0
   273                           
   274  0070                     ?_clearAllTimer:	
   275                           ; 0 bytes @ 0x0
   276                           
   277  0070                     ?_clearPinPortAndTimer:	
   278                           ; 0 bytes @ 0x0
   279                           
   280  0070                     ?_initPin:	
   281                           ; 0 bytes @ 0x0
   282                           
   283  0070                     ?_main:	
   284                           ; 0 bytes @ 0x0
   285                           
   286  0070                     ?_setAD_ConvertFlag:	
   287                           ; 0 bytes @ 0x0
   288                           
   289  0070                     ?_ISR:	
   290                           ; 0 bytes @ 0x0
   291                           
   292  0070                     ?i1_setAD_ConvertFlag:	
   293                           ; 0 bytes @ 0x0
   294                           
   295  0070                     ??i1_setAD_ConvertFlag:	
   296                           ; 0 bytes @ 0x0
   297                           
   298  0070                     ?_isPermitSampleTime:	
   299                           ; 0 bytes @ 0x0
   300                           
   301  0070                     ?_isFinishedTwelveHoursTimer:	
   302                           ; 1 bytes @ 0x0
   303                           
   304  0070                     ?_isFinishedTwentySecondsTimer:	
   305                           ; 1 bytes @ 0x0
   306                           
   307  0070                     ?_isFinishedThreeHoursTimer:	
   308                           ; 1 bytes @ 0x0
   309                           
   310  0070                     ?_getAD_ConvertFlag:	
   311                           ; 1 bytes @ 0x0
   312                           
   313  0070                     ?_adc_get:	
   314                           ; 1 bytes @ 0x0
   315                           
   316  0070                     i1setAD_ConvertFlag@flag:	
   317                           ; 2 bytes @ 0x0
   318                           
   319                           
   320                           ; 1 bytes @ 0x0
   321  0070                     	ds	2
   322  0072                     ??_adc_get:	
   323  0072                     adc_get@val:	
   324                           ; 0 bytes @ 0x2
   325                           
   326                           
   327                           ; 2 bytes @ 0x2
   328  0072                     	ds	2
   329  0074                     ??_ISR:	
   330                           
   331                           ; 0 bytes @ 0x4
   332  0074                     	ds	2
   333                           
   334                           	psect	cstackBANK0
   335  0056                     __pcstackBANK0:	
   336  0056                     ??_clearTwelveHoursTimer:	
   337  0056                     ??_clearThreeHoursTimer:	
   338                           ; 0 bytes @ 0x0
   339                           
   340  0056                     ??_clearTwentySecondsTimer:	
   341                           ; 0 bytes @ 0x0
   342                           
   343  0056                     ??_clock_config:	
   344                           ; 0 bytes @ 0x0
   345                           
   346  0056                     ??_timer1_config:	
   347                           ; 0 bytes @ 0x0
   348                           
   349  0056                     ??_timer1_interrupt_config:	
   350                           ; 0 bytes @ 0x0
   351                           
   352  0056                     ?_adc_test_init:	
   353                           ; 0 bytes @ 0x0
   354                           
   355  0056                     ??_dac_init:	
   356                           ; 0 bytes @ 0x0
   357                           
   358  0056                     ??_op1_init:	
   359                           ; 0 bytes @ 0x0
   360                           
   361  0056                     ??_op2_init:	
   362                           ; 0 bytes @ 0x0
   363                           
   364  0056                     ??_adc_start:	
   365                           ; 0 bytes @ 0x0
   366                           
   367  0056                     ??_isPermitSampleTime:	
   368                           ; 0 bytes @ 0x0
   369                           
   370  0056                     ??_clrSampeTime:	
   371                           ; 0 bytes @ 0x0
   372                           
   373  0056                     ?_startTwelveHourTimer:	
   374                           ; 0 bytes @ 0x0
   375                           
   376  0056                     ??_isFinishedTwelveHoursTimer:	
   377                           ; 0 bytes @ 0x0
   378                           
   379  0056                     ??_startTwentySecondsTimer:	
   380                           ; 0 bytes @ 0x0
   381                           
   382  0056                     ??_isFinishedTwentySecondsTimer:	
   383                           ; 0 bytes @ 0x0
   384                           
   385  0056                     ?_startThreeHoursTimer:	
   386                           ; 0 bytes @ 0x0
   387                           
   388  0056                     ??_isFinishedThreeHoursTimer:	
   389                           ; 0 bytes @ 0x0
   390                           
   391  0056                     ??_clearAllTimer:	
   392                           ; 0 bytes @ 0x0
   393                           
   394  0056                     ??_clearPinPortAndTimer:	
   395                           ; 0 bytes @ 0x0
   396                           
   397  0056                     ??_initPin:	
   398                           ; 0 bytes @ 0x0
   399                           
   400  0056                     ??_getAD_ConvertFlag:	
   401                           ; 0 bytes @ 0x0
   402                           
   403  0056                     ??_setAD_ConvertFlag:	
   404                           ; 0 bytes @ 0x0
   405                           
   406  0056                     ?_getAdOriginalCh14Value:	
   407                           ; 0 bytes @ 0x0
   408                           
   409  0056                     ?_getAdOriginalCh1Value:	
   410                           ; 2 bytes @ 0x0
   411                           
   412  0056                     ?_getAdOriginaCh4Value:	
   413                           ; 2 bytes @ 0x0
   414                           
   415  0056                     ?_getAdOriginalValue:	
   416                           ; 2 bytes @ 0x0
   417                           
   418  0056                     setAD_ConvertFlag@flag:	
   419                           ; 2 bytes @ 0x0
   420                           
   421  0056                     adc_test_init@ref:	
   422                           ; 1 bytes @ 0x0
   423                           
   424  0056                     startTwelveHourTimer@uiSetTime:	
   425                           ; 1 bytes @ 0x0
   426                           
   427  0056                     startThreeHoursTimer@uiSetTime:	
   428                           ; 2 bytes @ 0x0
   429                           
   430                           
   431                           ; 2 bytes @ 0x0
   432  0056                     	ds	1
   433  0057                     ??_adc_test_init:	
   434                           
   435                           ; 0 bytes @ 0x1
   436  0057                     	ds	1
   437  0058                     ??_getAdOriginalCh14Value:	
   438  0058                     ??_getAdOriginalCh1Value:	
   439                           ; 0 bytes @ 0x2
   440                           
   441  0058                     ??_startTwelveHourTimer:	
   442                           ; 0 bytes @ 0x2
   443                           
   444  0058                     ??_getAdOriginaCh4Value:	
   445                           ; 0 bytes @ 0x2
   446                           
   447  0058                     ??_startThreeHoursTimer:	
   448                           ; 0 bytes @ 0x2
   449                           
   450  0058                     ??_AD_Sample:	
   451                           ; 0 bytes @ 0x2
   452                           
   453  0058                     ??_getAdOriginalValue:	
   454                           ; 0 bytes @ 0x2
   455                           
   456  0058                     adc_test_init@channel:	
   457                           ; 0 bytes @ 0x2
   458                           
   459                           
   460                           ; 1 bytes @ 0x2
   461  0058                     	ds	2
   462  005A                     AD_Sample@index:	
   463                           
   464                           ; 1 bytes @ 0x4
   465  005A                     	ds	1
   466  005B                     ??_process_AD_Converter_Value:	
   467  005B                     ??_main:	
   468                           ; 0 bytes @ 0x5
   469                           
   470                           
   471                           	psect	maintext
   472  000D                     __pmaintext:	
   473                           ; 0 bytes @ 0x5
   474 ;;Data sizes: Strings 0, constant 0, data 1, bss 59, persistent 0 stack 0
   475 ;;Auto spaces:   Size  Autos    Used
   476 ;; COMMON          14      6      11
   477 ;; BANK0           80      5      60
   478 ;; BANK1           80      0       0
   479 ;; BANK3           96      0       0
   480 ;; BANK2           96      0       0
   481 ;;
   482 ;; Pointer list with targets:
   483 ;; ?_adc_get	unsigned int  size(1) Largest target is 0
   484 ;;
   485 ;; ?_getAdOriginalCh14Value	unsigned int  size(1) Largest target is 0
   486 ;;
   487 ;; ?_getAdOriginaCh4Value	unsigned int  size(1) Largest target is 0
   488 ;;
   489 ;; ?_getAdOriginalCh1Value	unsigned int  size(1) Largest target is 0
   490 ;;
   491 ;; ?_getAdOriginalValue	unsigned int  size(1) Largest target is 0
   492 ;;
   493 ;;
   494 ;; Critical Paths under _main in COMMON
   495 ;;
   496 ;;   None.
   497 ;;
   498 ;; Critical Paths under _ISR in COMMON
   499 ;;
   500 ;;   _ISR->_adc_get
   501 ;;
   502 ;; Critical Paths under _main in BANK0
   503 ;;
   504 ;;   _process_AD_Converter_Value->_AD_Sample
   505 ;;   _AD_Sample->_getAdOriginalValue
   506 ;;
   507 ;; Critical Paths under _ISR in BANK0
   508 ;;
   509 ;;   None.
   510 ;;
   511 ;; Critical Paths under _main in BANK1
   512 ;;
   513 ;;   None.
   514 ;;
   515 ;; Critical Paths under _ISR in BANK1
   516 ;;
   517 ;;   None.
   518 ;;
   519 ;; Critical Paths under _main in BANK3
   520 ;;
   521 ;;   None.
   522 ;;
   523 ;; Critical Paths under _ISR in BANK3
   524 ;;
   525 ;;   None.
   526 ;;
   527 ;; Critical Paths under _main in BANK2
   528 ;;
   529 ;;   None.
   530 ;;
   531 ;; Critical Paths under _ISR in BANK2
   532 ;;
   533 ;;   None.
   534 ;;
   535 ;;Main: autosize = 0, tempsize = 0, incstack = 0, save=0
   536 ;;
   537 ;;
   538 ;;Call Graph Tables:
   539 ;;
   540 ;; ---------------------------------------------------------------------------------
   541 ;; (Depth) Function   	        Calls       Base Space   Used Autos Params    Refs
   542 ;; ---------------------------------------------------------------------------------
   543 ;; (0) _main                                                 0     0      0     222
   544 ;;                            _initPin
   545 ;;                       _clock_config
   546 ;;                      _timer1_config
   547 ;;            _timer1_interrupt_config
   548 ;;                      _adc_test_init
   549 ;;                           _dac_init
   550 ;;                           _op1_init
   551 ;;                           _op2_init
   552 ;;                          _adc_start
   553 ;;                 _isPermitSampleTime
   554 ;;                       _clrSampeTime
   555 ;;         _process_AD_Converter_Value
   556 ;;             _getAdOriginalCh14Value
   557 ;;               _clearPinPortAndTimer
   558 ;;              _getAdOriginalCh1Value
   559 ;;               _startTwelveHourTimer
   560 ;;         _isFinishedTwelveHoursTimer
   561 ;;            _startTwentySecondsTimer
   562 ;;               _getAdOriginaCh4Value
   563 ;;       _isFinishedTwentySecondsTimer
   564 ;;               _startThreeHoursTimer
   565 ;;          _isFinishedThreeHoursTimer
   566 ;;               _clearThreeHoursTimer
   567 ;;                      _clearAllTimer
   568 ;; ---------------------------------------------------------------------------------
   569 ;; (1) _process_AD_Converter_Value                           0     0      0     134
   570 ;;                  _getAD_ConvertFlag
   571 ;;                  _setAD_ConvertFlag
   572 ;;                          _AD_Sample
   573 ;;                      _adc_test_init
   574 ;;                          _adc_start
   575 ;; ---------------------------------------------------------------------------------
   576 ;; (1) _clearPinPortAndTimer                                 0     0      0       0
   577 ;;                      _clearAllTimer
   578 ;; ---------------------------------------------------------------------------------
   579 ;; (2) _AD_Sample                                            3     3      0      68
   580 ;;                                              2 BANK0      3     3      0
   581 ;;                 _getAdOriginalValue
   582 ;; ---------------------------------------------------------------------------------
   583 ;; (1) _clearAllTimer                                        0     0      0       0
   584 ;;              _clearTwelveHoursTimer
   585 ;;               _clearThreeHoursTimer
   586 ;;            _clearTwentySecondsTimer
   587 ;; ---------------------------------------------------------------------------------
   588 ;; (3) _getAdOriginalValue                                   2     0      2       0
   589 ;;                                              0 BANK0      2     0      2
   590 ;; ---------------------------------------------------------------------------------
   591 ;; (2) _setAD_ConvertFlag                                    1     1      0      22
   592 ;;                                              0 BANK0      1     1      0
   593 ;; ---------------------------------------------------------------------------------
   594 ;; (2) _getAD_ConvertFlag                                    0     0      0       0
   595 ;; ---------------------------------------------------------------------------------
   596 ;; (1) _isFinishedThreeHoursTimer                            0     0      0       0
   597 ;; ---------------------------------------------------------------------------------
   598 ;; (1) _startThreeHoursTimer                                 2     0      2      22
   599 ;;                                              0 BANK0      2     0      2
   600 ;; ---------------------------------------------------------------------------------
   601 ;; (1) _isFinishedTwentySecondsTimer                         0     0      0       0
   602 ;; ---------------------------------------------------------------------------------
   603 ;; (1) _getAdOriginaCh4Value                                 2     0      2       0
   604 ;;                                              0 BANK0      2     0      2
   605 ;; ---------------------------------------------------------------------------------
   606 ;; (1) _startTwentySecondsTimer                              0     0      0       0
   607 ;; ---------------------------------------------------------------------------------
   608 ;; (1) _isFinishedTwelveHoursTimer                           0     0      0       0
   609 ;; ---------------------------------------------------------------------------------
   610 ;; (1) _startTwelveHourTimer                                 2     0      2      22
   611 ;;                                              0 BANK0      2     0      2
   612 ;; ---------------------------------------------------------------------------------
   613 ;; (1) _getAdOriginalCh1Value                                2     0      2       0
   614 ;;                                              0 BANK0      2     0      2
   615 ;; ---------------------------------------------------------------------------------
   616 ;; (1) _getAdOriginalCh14Value                               2     0      2       0
   617 ;;                                              0 BANK0      2     0      2
   618 ;; ---------------------------------------------------------------------------------
   619 ;; (1) _clrSampeTime                                         0     0      0       0
   620 ;; ---------------------------------------------------------------------------------
   621 ;; (1) _isPermitSampleTime                                   0     0      0       0
   622 ;; ---------------------------------------------------------------------------------
   623 ;; (2) _adc_start                                            0     0      0       0
   624 ;; ---------------------------------------------------------------------------------
   625 ;; (1) _op2_init                                             0     0      0       0
   626 ;; ---------------------------------------------------------------------------------
   627 ;; (1) _op1_init                                             0     0      0       0
   628 ;; ---------------------------------------------------------------------------------
   629 ;; (1) _dac_init                                             0     0      0       0
   630 ;; ---------------------------------------------------------------------------------
   631 ;; (2) _adc_test_init                                        3     2      1      44
   632 ;;                                              0 BANK0      3     2      1
   633 ;; ---------------------------------------------------------------------------------
   634 ;; (1) _timer1_interrupt_config                              0     0      0       0
   635 ;; ---------------------------------------------------------------------------------
   636 ;; (1) _timer1_config                                        0     0      0       0
   637 ;; ---------------------------------------------------------------------------------
   638 ;; (1) _clock_config                                         0     0      0       0
   639 ;; ---------------------------------------------------------------------------------
   640 ;; (1) _initPin                                              0     0      0       0
   641 ;; ---------------------------------------------------------------------------------
   642 ;; (2) _clearTwentySecondsTimer                              0     0      0       0
   643 ;; ---------------------------------------------------------------------------------
   644 ;; (2) _clearThreeHoursTimer                                 0     0      0       0
   645 ;; ---------------------------------------------------------------------------------
   646 ;; (2) _clearTwelveHoursTimer                                0     0      0       0
   647 ;; ---------------------------------------------------------------------------------
   648 ;; Estimated maximum stack depth 3
   649 ;; ---------------------------------------------------------------------------------
   650 ;; (Depth) Function   	        Calls       Base Space   Used Autos Params    Refs
   651 ;; ---------------------------------------------------------------------------------
   652 ;; (4) _ISR                                                  2     2      0      97
   653 ;;                                              4 COMMON     2     2      0
   654 ;;                i1_setAD_ConvertFlag
   655 ;;                            _adc_get
   656 ;; ---------------------------------------------------------------------------------
   657 ;; (5) i1_setAD_ConvertFlag                                  1     1      0      73
   658 ;;                                              0 COMMON     1     1      0
   659 ;; ---------------------------------------------------------------------------------
   660 ;; (5) _adc_get                                              4     2      2      24
   661 ;;                                              0 COMMON     4     2      2
   662 ;; ---------------------------------------------------------------------------------
   663 ;; Estimated maximum stack depth 5
   664 ;; ---------------------------------------------------------------------------------
   665 ;; Call Graph Graphs:
   666 ;; _main (ROOT)
   667 ;;   _initPin
   668 ;;   _clock_config
   669 ;;   _timer1_config
   670 ;;   _timer1_interrupt_config
   671 ;;   _adc_test_init
   672 ;;   _dac_init
   673 ;;   _op1_init
   674 ;;   _op2_init
   675 ;;   _adc_start
   676 ;;   _isPermitSampleTime
   677 ;;   _clrSampeTime
   678 ;;   _process_AD_Converter_Value
   679 ;;     _getAD_ConvertFlag
   680 ;;     _setAD_ConvertFlag
   681 ;;     _AD_Sample
   682 ;;       _getAdOriginalValue
   683 ;;     _adc_test_init
   684 ;;     _adc_start
   685 ;;   _getAdOriginalCh14Value
   686 ;;   _clearPinPortAndTimer
   687 ;;     _clearAllTimer
   688 ;;       _clearTwelveHoursTimer
   689 ;;       _clearThreeHoursTimer
   690 ;;       _clearTwentySecondsTimer
   691 ;;   _getAdOriginalCh1Value
   692 ;;   _startTwelveHourTimer
   693 ;;   _isFinishedTwelveHoursTimer
   694 ;;   _startTwentySecondsTimer
   695 ;;   _getAdOriginaCh4Value
   696 ;;   _isFinishedTwentySecondsTimer
   697 ;;   _startThreeHoursTimer
   698 ;;   _isFinishedThreeHoursTimer
   699 ;;   _clearThreeHoursTimer
   700 ;;   _clearAllTimer
   701 ;;     _clearTwelveHoursTimer
   702 ;;     _clearThreeHoursTimer
   703 ;;     _clearTwentySecondsTimer
   704 ;;
   705 ;; _ISR (ROOT)
   706 ;;   i1_setAD_ConvertFlag
   707 ;;   _adc_get
   708 ;;
   709 ;; Address spaces:
   710 ;;Name               Size   Autos  Total    Cost      Usage
   711 ;;BANK3               60      0       0      10        0.0%
   712 ;;BITBANK3            60      0       0       9        0.0%
   713 ;;SFR3                 0      0       0       4        0.0%
   714 ;;BITSFR3              0      0       0       4        0.0%
   715 ;;BANK2               60      0       0      12        0.0%
   716 ;;BITBANK2            60      0       0      11        0.0%
   717 ;;SFR2                 0      0       0       5        0.0%
   718 ;;BITSFR2              0      0       0       5        0.0%
   719 ;;SFR1                 0      0       0       2        0.0%
   720 ;;BITSFR1              0      0       0       2        0.0%
   721 ;;BANK1               50      0       0       8        0.0%
   722 ;;BITBANK1            50      0       0       7        0.0%
   723 ;;CODE                 0      0       0       0        0.0%
   724 ;;DATA                 0      0      4E       6        0.0%
   725 ;;ABS                  0      0      47       3        0.0%
   726 ;;NULL                 0      0       0       0        0.0%
   727 ;;STACK                0      0       7       2        0.0%
   728 ;;BANK0               50      5      3C       5       75.0%
   729 ;;BITBANK0            50      0       0       4        0.0%
   730 ;;SFR0                 0      0       0       1        0.0%
   731 ;;BITSFR0              0      0       0       1        0.0%
   732 ;;COMMON               E      6       B       1       78.6%
   733 ;;BITCOMMON            E      0       0       0        0.0%
   734                           
   735                           
   736 ;; *************** function _main *****************
   737 ;; Defined at:
   738 ;;		line 129 in file "C:\190604\AK7030-OTP\main.c"
   739 ;; Parameters:    Size  Location     Type
   740 ;;		None
   741 ;; Auto vars:     Size  Location     Type
   742 ;;		None
   743 ;; Return value:  Size  Location     Type
   744 ;;		None               void
   745 ;; Registers used:
   746 ;;		wreg, fsr0l, fsr0h, status,2, status,0, pclath, cstack
   747 ;; Tracked objects:
   748 ;;		On entry : 17F/0
   749 ;;		On exit  : 60/0
   750 ;;		Unchanged: FFE00/0
   751 ;; Data sizes:     COMMON   BANK0   BANK1   BANK3   BANK2
   752 ;;      Params:         0       0       0       0       0
   753 ;;      Locals:         0       0       0       0       0
   754 ;;      Temps:          0       0       0       0       0
   755 ;;      Totals:         0       0       0       0       0
   756 ;;Total ram usage:        0 bytes
   757 ;; Hardware stack levels required when called:    5
   758 ;; This function calls:
   759 ;;		_initPin
   760 ;;		_clock_config
   761 ;;		_timer1_config
   762 ;;		_timer1_interrupt_config
   763 ;;		_adc_test_init
   764 ;;		_dac_init
   765 ;;		_op1_init
   766 ;;		_op2_init
   767 ;;		_adc_start
   768 ;;		_isPermitSampleTime
   769 ;;		_clrSampeTime
   770 ;;		_process_AD_Converter_Value
   771 ;;		_getAdOriginalCh14Value
   772 ;;		_clearPinPortAndTimer
   773 ;;		_getAdOriginalCh1Value
   774 ;;		_startTwelveHourTimer
   775 ;;		_isFinishedTwelveHoursTimer
   776 ;;		_startTwentySecondsTimer
   777 ;;		_getAdOriginaCh4Value
   778 ;;		_isFinishedTwentySecondsTimer
   779 ;;		_startThreeHoursTimer
   780 ;;		_isFinishedThreeHoursTimer
   781 ;;		_clearThreeHoursTimer
   782 ;;		_clearAllTimer
   783 ;; This function is called by:
   784 ;;		Startup code after reset
   785 ;; This function uses a non-reentrant model
   786 ;;
   787  000D                     _main:	
   788                           
   789                           ;main.c: 130: enum setp_Adc4
   790                           ;main.c: 131: {
   791                           ;main.c: 132: ADC4_STEP_INIT = 0,
   792                           ;main.c: 133: ADC4_STEP_FIRST,
   793                           ;main.c: 134: ADC4_STEP_SECOND,
   794                           ;main.c: 135: ADC4_STEP_THIRD,
   795                           ;main.c: 136: ADC4_STEP_FOURTH,
   796                           ;main.c: 137: ADC4_STEP_FIFTH,
   797                           ;main.c: 138: ADC4_STEP_SIXTH,
   798                           ;main.c: 139: };
   799                           ;main.c: 142: static unsigned char ucWaitTime1S = 0;
   800                           ;main.c: 144: static unsigned char ucWaitTimeO3s = 0;
   801                           ;main.c: 146: static unsigned char ucSmallTimerActionFlag = 0;
   802                           ;main.c: 148: static unsigned char ucSetSmallActionFlag = 0;
   803                           
   804                           ; Regs used in _main: [wreg-fsr0h+status,2+status,0+pclath+cstack]
   805  000D  1683               	bsf	3,5	;RP0=1, select bank1
   806  000E  1005               	bcf	5,0
   807                           
   808                           ;main.c: 151: TRISA1 = 0;
   809  000F  1085               	bcf	5,1
   810                           
   811                           ;main.c: 152: TRISA2 = 0;
   812  0010  1105               	bcf	5,2
   813                           
   814                           ;main.c: 153: TRISA3 = 0;
   815  0011  1185               	bcf	5,3
   816                           
   817                           ;main.c: 154: TRISB0 = 0;
   818  0012  1006               	bcf	6,0
   819                           
   820                           ;main.c: 155: TRISB1 = 0;
   821  0013  1086               	bcf	6,1
   822                           
   823                           ;main.c: 156: TRISA6 = 0;
   824  0014  1305               	bcf	5,6
   825                           
   826                           ;main.c: 157: TRISA7 = 0;
   827  0015  1385               	bcf	5,7
   828                           
   829                           ;main.c: 158: TRISB6 = 0;
   830  0016  1306               	bcf	6,6
   831                           
   832                           ;main.c: 161: initPin();
   833  0017  118A  2445  118A   	fcall	_initPin
   834                           
   835                           ;main.c: 164: TRISB2 = 1;
   836  001A  1303               	bcf	3,6	;RP1=0, select bank1
   837  001B  1506               	bsf	6,2
   838                           
   839                           ;main.c: 166: TRISB7 = 1;
   840  001C  1786               	bsf	6,7
   841                           
   842                           ;main.c: 167: TRISB4 = 1;
   843  001D  1606               	bsf	6,4
   844                           
   845                           ;main.c: 169: clock_config();
   846  001E  118A  24C7  118A   	fcall	_clock_config
   847                           
   848                           ;main.c: 170: timer1_config();
   849  0021  118A  249B  118A   	fcall	_timer1_config
   850                           
   851                           ;main.c: 171: timer1_interrupt_config();
   852  0024  118A  24FB  118A   	fcall	_timer1_interrupt_config
   853                           
   854                           ;main.c: 173: adc_test_init(14,3);
   855  0027  3003               	movlw	3
   856  0028  1283               	bcf	3,5	;RP0=0, select bank0
   857  0029  00D6               	movwf	?_adc_test_init
   858  002A  300E               	movlw	14
   859  002B  118A  23A1  118A   	fcall	_adc_test_init
   860                           
   861                           ;main.c: 175: dac_init();
   862  002E  118A  24F2  118A   	fcall	_dac_init
   863                           
   864                           ;main.c: 176: op1_init();
   865  0031  118A  2490  118A   	fcall	_op1_init
   866                           
   867                           ;main.c: 177: op2_init();
   868  0034  118A  24BF  118A   	fcall	_op2_init
   869                           
   870                           ;main.c: 180: adc_start();
   871  0037  118A  23B6  118A   	fcall	_adc_start
   872  003A                     l3960:	
   873  003A  0064               	clrwdt	;#
   874                           
   875                           ;main.c: 215: if(isPermitSampleTime())
   876  003B  118A  24ED  118A   	fcall	_isPermitSampleTime
   877  003E  3A00               	xorlw	0
   878  003F  1903               	skipnz
   879  0040  283A               	goto	l3960
   880                           
   881                           ;main.c: 216: {
   882                           ;main.c: 217: clrSampeTime();
   883  0041  118A  24FE  118A   	fcall	_clrSampeTime
   884                           
   885                           ;main.c: 218: process_AD_Converter_Value();
   886  0044  118A  2315  118A   	fcall	_process_AD_Converter_Value
   887                           
   888                           ;main.c: 220: switch(enumMainLoopStep)
   889  0047  2AF7               	goto	l4440
   890  0048                     l3968:	
   891                           
   892                           ;main.c: 223: {
   893                           ;main.c: 224: static unsigned char ucTimerZeroPoint5s = 0;
   894                           ;main.c: 225: if(getAdOriginalCh14Value() > 1950)
   895  0048  118A  24E8  118A   	fcall	_getAdOriginalCh14Value
   896  004B  3007               	movlw	7
   897  004C  0257               	subwf	?_getAdOriginalCh14Value+1,w
   898  004D  309F               	movlw	159
   899  004E  1903               	skipnz
   900  004F  0256               	subwf	?_getAdOriginalCh14Value,w
   901  0050  1C03               	skipc
   902  0051  2854               	goto	l3972
   903                           
   904                           ;main.c: 226: {
   905                           ;main.c: 227: ucTimerZeroPoint5s++;
   906  0052  0AD5               	incf	main@ucTimerZeroPoint5s,f
   907                           
   908                           ;main.c: 228: }
   909  0053  2855               	goto	l3974
   910  0054                     l3972:	
   911                           
   912                           ;main.c: 229: else
   913                           ;main.c: 230: ucTimerZeroPoint5s = 0;
   914  0054  01D5               	clrf	main@ucTimerZeroPoint5s
   915  0055                     l3974:	
   916                           
   917                           ;main.c: 232: if(ucTimerZeroPoint5s >= 5)
   918  0055  3005               	movlw	5
   919  0056  0255               	subwf	main@ucTimerZeroPoint5s,w
   920  0057  1C03               	skipc
   921  0058  283A               	goto	l3960
   922                           
   923                           ;main.c: 233: {
   924                           ;main.c: 234: ucTimerZeroPoint5s = 0;
   925  0059  01D5               	clrf	main@ucTimerZeroPoint5s
   926  005A                     l3978:	
   927                           
   928                           ;main.c: 235: enumMainLoopStep = MAIN_LOOP_STEP_FIRST;
   929  005A  01C0               	clrf	main@enumMainLoopStep
   930  005B  0AC0               	incf	main@enumMainLoopStep,f
   931  005C                     l706:	
   932                           
   933                           ;main.c: 236: }
   934                           ;main.c: 237: break;
   935  005C  283A               	goto	l3960
   936  005D                     l3980:	
   937                           
   938                           ;main.c: 241: {
   939                           ;main.c: 242: static unsigned char ucTimerZeroPoint3s = 0;
   940                           ;main.c: 244: if(ucTimerZeroPoint3s < 3)
   941  005D  3003               	movlw	3
   942  005E  0254               	subwf	main@ucTimerZeroPoint3s,w
   943  005F  1803               	skipnc
   944  0060  2863               	goto	l3984
   945                           
   946                           ;main.c: 245: {
   947                           ;main.c: 246: ucTimerZeroPoint3s++;
   948  0061  0AD4               	incf	main@ucTimerZeroPoint3s,f
   949                           
   950                           ;main.c: 247: }
   951  0062  283A               	goto	l3960
   952  0063                     l3984:	
   953                           
   954                           ;main.c: 248: else
   955                           ;main.c: 249: {
   956                           ;main.c: 250: ucTimerZeroPoint3s = 0;
   957  0063  01D4               	clrf	main@ucTimerZeroPoint3s
   958                           
   959                           ;main.c: 252: if(getAdOriginalCh14Value() > 1950)
   960  0064  118A  24E8  118A   	fcall	_getAdOriginalCh14Value
   961  0067  3007               	movlw	7
   962  0068  0257               	subwf	?_getAdOriginalCh14Value+1,w
   963  0069  309F               	movlw	159
   964  006A  1903               	skipnz
   965  006B  0256               	subwf	?_getAdOriginalCh14Value,w
   966  006C  1C03               	skipc
   967  006D  2870               	goto	l3990
   968  006E                     l3988:	
   969                           
   970                           ;main.c: 253: {
   971                           ;main.c: 255: enumMainLoopStep = MAIN_LOOP_STEP_SECOND;
   972  006E  3002               	movlw	2
   973  006F  28AC               	goto	L5
   974  0070                     l3990:	
   975                           ;main.c: 256: }
   976                           
   977                           
   978                           ;main.c: 257: else
   979                           ;main.c: 258: {
   980                           ;main.c: 259: clearPinPortAndTimer();
   981  0070  118A  242B  118A   	fcall	_clearPinPortAndTimer
   982  0073  283A               	goto	l3960
   983  0074                     l715:	
   984                           ;main.c: 263: }
   985                           ;main.c: 265: case MAIN_LOOP_STEP_SECOND:
   986                           
   987  0074  3003               	movlw	3
   988                           
   989                           ;main.c: 266: {
   990                           ;main.c: 268: PA6 = 1;
   991  0075  1705               	bsf	5,6
   992                           
   993                           ;main.c: 269: enumMainLoopStep = MAIN_LOOP_STEP_THIRD;
   994  0076  28AC               	goto	L5
   995  0077                     l3994:	
   996                           ;main.c: 271: break;
   997                           
   998                           
   999                           ;main.c: 275: {
  1000                           ;main.c: 276: static unsigned char ucTimerADC1ZeroP5s = 0;
  1001                           ;main.c: 278: if(getAdOriginalCh1Value() < 130)
  1002  0077  118A  24E3  118A   	fcall	_getAdOriginalCh1Value
  1003  007A  3000               	movlw	0
  1004  007B  0257               	subwf	?_getAdOriginalCh1Value+1,w
  1005  007C  3082               	movlw	130
  1006  007D  1903               	skipnz
  1007  007E  0256               	subwf	?_getAdOriginalCh1Value,w
  1008  007F  1803               	skipnc
  1009  0080  2883               	goto	l3998
  1010                           
  1011                           ;main.c: 279: {
  1012                           ;main.c: 280: ucTimerADC1ZeroP5s = 0;
  1013  0081  01CA               	clrf	main@ucTimerADC1ZeroP5s
  1014                           
  1015                           ;main.c: 282: }
  1016  0082  2884               	goto	l4000
  1017  0083                     l3998:	
  1018                           
  1019                           ;main.c: 283: else
  1020                           ;main.c: 284: {
  1021                           ;main.c: 285: ucTimerADC1ZeroP5s++;
  1022  0083  0ACA               	incf	main@ucTimerADC1ZeroP5s,f
  1023  0084                     l4000:	
  1024                           
  1025                           ;main.c: 286: }
  1026                           ;main.c: 288: if(ucTimerADC1ZeroP5s >= 1)
  1027  0084  084A               	movf	main@ucTimerADC1ZeroP5s,w
  1028  0085  1903               	btfsc	3,2
  1029  0086  288A               	goto	l4006
  1030  0087  3004               	movlw	4
  1031                           
  1032                           ;main.c: 289: {
  1033                           ;main.c: 290: ucTimerADC1ZeroP5s = 0;
  1034  0088  01CA               	clrf	main@ucTimerADC1ZeroP5s
  1035                           
  1036                           ;main.c: 291: enumMainLoopStep = MAIN_LOOP_STEP_FOURTH;
  1037  0089  28AC               	goto	L5
  1038  008A                     l4006:	
  1039                           ;main.c: 292: }
  1040                           
  1041                           
  1042                           ;main.c: 293: else
  1043                           ;main.c: 294: {
  1044                           ;main.c: 295: static unsigned char ucTimerRightP5s = 0;
  1045                           ;main.c: 297: if(getAdOriginalCh1Value() < 117)
  1046  008A  118A  24E3  118A   	fcall	_getAdOriginalCh1Value
  1047  008D  3000               	movlw	0
  1048  008E  0257               	subwf	?_getAdOriginalCh1Value+1,w
  1049  008F  3075               	movlw	117
  1050  0090  1903               	skipnz
  1051  0091  0256               	subwf	?_getAdOriginalCh1Value,w
  1052  0092  1803               	skipnc
  1053  0093  2896               	goto	l4010
  1054                           
  1055                           ;main.c: 298: {
  1056                           ;main.c: 299: ucTimerRightP5s++;
  1057  0094  0AD1               	incf	main@ucTimerRightP5s,f
  1058                           
  1059                           ;main.c: 300: }
  1060  0095  2897               	goto	l4012
  1061  0096                     l4010:	
  1062                           
  1063                           ;main.c: 301: else
  1064                           ;main.c: 302: {
  1065                           ;main.c: 303: ucTimerRightP5s = 0;
  1066  0096  01D1               	clrf	main@ucTimerRightP5s
  1067  0097                     l4012:	
  1068                           
  1069                           ;main.c: 304: }
  1070                           ;main.c: 306: if(ucTimerRightP5s >= 1)
  1071  0097  0851               	movf	main@ucTimerRightP5s,w
  1072  0098  1903               	btfsc	3,2
  1073  0099  283A               	goto	l3960
  1074  009A  3008               	movlw	8
  1075                           
  1076                           ;main.c: 307: {
  1077                           ;main.c: 308: ucTimerRightP5s = 0;
  1078  009B  01D1               	clrf	main@ucTimerRightP5s
  1079                           
  1080                           ;main.c: 309: enumMainLoopStep = MAIN_LOOP_STEP_3_HOUR_BRANCH;
  1081  009C  28AC               	goto	L5
  1082  009D                     l4018:	
  1083                           ;main.c: 310: }
  1084                           
  1085                           
  1086                           ;main.c: 321: {
  1087                           ;main.c: 323: startTwelveHourTimer(180);
  1088  009D  30B4               	movlw	180
  1089  009E  00D6               	movwf	?_startTwelveHourTimer
  1090  009F  01D7               	clrf	?_startTwelveHourTimer+1
  1091  00A0  118A  24AE  118A   	fcall	_startTwelveHourTimer
  1092                           
  1093                           ;main.c: 324: enumMainLoopStep = MAIN_LOOP_STEP_FIFTH;
  1094  00A3  3005               	movlw	5
  1095  00A4  28AC               	goto	L5
  1096  00A5                     l4022:	
  1097                           ;main.c: 326: break;
  1098                           
  1099                           
  1100                           ;main.c: 330: {
  1101                           ;main.c: 332: if(isFinishedTwelveHoursTimer())
  1102  00A5  118A  24DE  118A   	fcall	_isFinishedTwelveHoursTimer
  1103  00A8  3A00               	xorlw	0
  1104  00A9  1903               	skipnz
  1105  00AA  2A32               	goto	l4336
  1106  00AB                     l4024:	
  1107                           
  1108                           ;main.c: 333: {
  1109                           ;main.c: 334: enumMainLoopStep = MAIN_LOOP_STEP_12_HOUR_END;
  1110  00AB  3009               	movlw	9
  1111  00AC                     L5:	
  1112  00AC  00C0               	movwf	main@enumMainLoopStep
  1113                           
  1114                           ;main.c: 335: }
  1115  00AD  283A               	goto	l3960
  1116  00AE                     l4026:	
  1117                           
  1118                           ;main.c: 343: {
  1119                           ;main.c: 344: startTwentySecondsTimer();
  1120  00AE  118A  24F7  118A   	fcall	_startTwentySecondsTimer
  1121  00B1                     l4028:	
  1122                           
  1123                           ;main.c: 345: ucADC4_Step = ADC4_STEP_FIRST;
  1124  00B1  01C1               	clrf	main@ucADC4_Step
  1125  00B2  0AC1               	incf	main@ucADC4_Step,f
  1126                           
  1127                           ;main.c: 346: break;
  1128  00B3  283A               	goto	l3960
  1129  00B4                     l4030:	
  1130                           
  1131                           ;main.c: 350: {
  1132                           ;main.c: 351: if(getAdOriginaCh4Value() < 1911)
  1133  00B4  118A  24D9  118A   	fcall	_getAdOriginaCh4Value
  1134  00B7  3007               	movlw	7
  1135  00B8  0257               	subwf	?_getAdOriginaCh4Value+1,w
  1136  00B9  3077               	movlw	119
  1137  00BA  1903               	skipnz
  1138  00BB  0256               	subwf	?_getAdOriginaCh4Value,w
  1139  00BC  1803               	skipnc
  1140  00BD  28C0               	goto	l4034
  1141                           
  1142                           ;main.c: 352: ucChannel4Type = LESS_THAN_1911;
  1143  00BE  01C2               	clrf	main@ucChannel4Type
  1144  00BF  28E7               	goto	l740
  1145  00C0                     l4034:	
  1146                           
  1147                           ;main.c: 353: else if(getAdOriginaCh4Value() < 2067)
  1148  00C0  118A  24D9  118A   	fcall	_getAdOriginaCh4Value
  1149  00C3  3008               	movlw	8
  1150  00C4  0257               	subwf	?_getAdOriginaCh4Value+1,w
  1151  00C5  3013               	movlw	19
  1152  00C6  1903               	skipnz
  1153  00C7  0256               	subwf	?_getAdOriginaCh4Value,w
  1154  00C8  1803               	skipnc
  1155  00C9  28CD               	goto	l4038
  1156                           
  1157                           ;main.c: 354: ucChannel4Type = BETWEEN_1911_AND_2067;
  1158  00CA  01C2               	clrf	main@ucChannel4Type
  1159  00CB  0AC2               	incf	main@ucChannel4Type,f
  1160  00CC  28E7               	goto	l740
  1161  00CD                     l4038:	
  1162                           
  1163                           ;main.c: 355: else if(getAdOriginaCh4Value() < 2204)
  1164  00CD  118A  24D9  118A   	fcall	_getAdOriginaCh4Value
  1165  00D0  3008               	movlw	8
  1166  00D1  0257               	subwf	?_getAdOriginaCh4Value+1,w
  1167  00D2  309C               	movlw	156
  1168  00D3  1903               	skipnz
  1169  00D4  0256               	subwf	?_getAdOriginaCh4Value,w
  1170  00D5  1803               	skipnc
  1171  00D6  28D9               	goto	l4042
  1172                           
  1173                           ;main.c: 356: ucChannel4Type = BETWEEN_2067_AND_2204;
  1174  00D7  3002               	movlw	2
  1175  00D8  28E6               	goto	L6
  1176  00D9                     l4042:	
  1177                           
  1178                           ;main.c: 357: else if(getAdOriginaCh4Value() < 2340)
  1179  00D9  118A  24D9  118A   	fcall	_getAdOriginaCh4Value
  1180  00DC  3009               	movlw	9
  1181  00DD  0257               	subwf	?_getAdOriginaCh4Value+1,w
  1182  00DE  3024               	movlw	36
  1183  00DF  1903               	skipnz
  1184  00E0  0256               	subwf	?_getAdOriginaCh4Value,w
  1185  00E1  1803               	skipnc
  1186  00E2  28E5               	goto	l4046
  1187                           
  1188                           ;main.c: 358: ucChannel4Type = BETWEEN_2204_AND_2340;
  1189  00E3  3003               	movlw	3
  1190  00E4  28E6               	goto	L6
  1191  00E5                     l4046:	
  1192                           
  1193                           ;main.c: 359: else
  1194                           ;main.c: 360: ucChannel4Type = MORE_THAN_2340;
  1195  00E5  3004               	movlw	4
  1196  00E6                     L6:	
  1197  00E6  00C2               	movwf	main@ucChannel4Type
  1198  00E7                     l740:	
  1199                           
  1200                           ;main.c: 362: ucADC4_Step = ADC4_STEP_SECOND;
  1201  00E7  3002               	movlw	2
  1202  00E8  2A1F               	goto	L8
  1203  00E9                     l755:	
  1204                           ;main.c: 377: {
  1205                           ;main.c: 378: case 0:
  1206                           
  1207                           ;main.c: 363: break;
  1208                           
  1209                           
  1210                           ;main.c: 379: {
  1211                           ;main.c: 380: PB0 = 1;
  1212  00E9  1406               	bsf	6,0
  1213  00EA                     l4048:	
  1214                           
  1215                           ;main.c: 381: ucLoaderStep++;
  1216  00EA  0AC3               	incf	main@ucLoaderStep,f
  1217                           
  1218                           ;main.c: 382: break;
  1219  00EB  283A               	goto	l3960
  1220  00EC                     l4050:	
  1221                           
  1222                           ;main.c: 386: {
  1223                           ;main.c: 387: if(ucTimerDelay >= 5)
  1224  00EC  3005               	movlw	5
  1225  00ED  024B               	subwf	main@ucTimerDelay,w
  1226  00EE  1C03               	skipc
  1227  00EF  28F3               	goto	l4058
  1228                           
  1229                           ;main.c: 388: {
  1230                           ;main.c: 389: PA0 = 1;
  1231  00F0  1405               	bsf	5,0
  1232  00F1                     l4054:	
  1233                           
  1234                           ;main.c: 390: ucTimerDelay = 0;
  1235  00F1  01CB               	clrf	main@ucTimerDelay
  1236  00F2  28EA               	goto	l4048
  1237  00F3                     l4058:	
  1238                           
  1239                           ;main.c: 393: else
  1240                           ;main.c: 394: ucTimerDelay++;
  1241  00F3  0ACB               	incf	main@ucTimerDelay,f
  1242  00F4  283A               	goto	l3960
  1243  00F5                     l4060:	
  1244                           
  1245                           ;main.c: 399: {
  1246                           ;main.c: 400: if(ucTimerDelay >= 5)
  1247  00F5  3005               	movlw	5
  1248  00F6  024B               	subwf	main@ucTimerDelay,w
  1249  00F7  1C03               	skipc
  1250  00F8  28F3               	goto	l4058
  1251                           
  1252                           ;main.c: 401: {
  1253                           ;main.c: 402: PA1= 1;
  1254  00F9  1485               	bsf	5,1
  1255  00FA  28F1               	goto	l4054
  1256  00FB                     l4070:	
  1257                           
  1258                           ;main.c: 413: {
  1259                           ;main.c: 414: if(ucTimerDelay >= 5)
  1260  00FB  3005               	movlw	5
  1261  00FC  024B               	subwf	main@ucTimerDelay,w
  1262  00FD  1C03               	skipc
  1263  00FE  28F3               	goto	l4058
  1264                           
  1265                           ;main.c: 415: {
  1266                           ;main.c: 416: PA2= 1;
  1267  00FF  1505               	bsf	5,2
  1268  0100  28F1               	goto	l4054
  1269  0101                     l4080:	
  1270                           
  1271                           ;main.c: 426: {
  1272                           ;main.c: 427: if(ucTimerDelay >= 5)
  1273  0101  3005               	movlw	5
  1274  0102  024B               	subwf	main@ucTimerDelay,w
  1275  0103  1C03               	skipc
  1276  0104  28F3               	goto	l4058
  1277                           
  1278                           ;main.c: 428: {
  1279                           ;main.c: 429: PA3 = 1;
  1280  0105  1585               	bsf	5,3
  1281  0106  28F1               	goto	l4054
  1282  0107                     l4090:	
  1283                           
  1284                           ;main.c: 439: {
  1285                           ;main.c: 440: if(ucTimerDelay >= 5)
  1286  0107  3005               	movlw	5
  1287  0108  024B               	subwf	main@ucTimerDelay,w
  1288  0109  1C03               	skipc
  1289  010A  28F3               	goto	l4058
  1290                           
  1291                           ;main.c: 441: {
  1292                           ;main.c: 442: PB0 = 0;
  1293  010B  1006               	bcf	6,0
  1294                           
  1295                           ;main.c: 443: PA0 = 0;
  1296  010C  1005               	bcf	5,0
  1297                           
  1298                           ;main.c: 444: PA1 = 0;
  1299  010D  1085               	bcf	5,1
  1300                           
  1301                           ;main.c: 445: PA2 = 0;
  1302  010E  1105               	bcf	5,2
  1303                           
  1304                           ;main.c: 446: PA3 = 0;
  1305  010F  1185               	bcf	5,3
  1306  0110  28F1               	goto	l4054
  1307  0111                     l4100:	
  1308                           
  1309                           ;main.c: 456: {
  1310                           ;main.c: 457: if(ucTimerDelay >= 2)
  1311  0111  3002               	movlw	2
  1312  0112  024B               	subwf	main@ucTimerDelay,w
  1313  0113  1C03               	skipc
  1314  0114  28F3               	goto	l4058
  1315                           
  1316                           ;main.c: 458: {
  1317                           ;main.c: 459: ucTimerDelay = 0;
  1318  0115  01CB               	clrf	main@ucTimerDelay
  1319                           
  1320                           ;main.c: 461: ucLoaderStep = 0;
  1321  0116  01C3               	clrf	main@ucLoaderStep
  1322  0117                     l4104:	
  1323                           
  1324                           ;main.c: 462: ucADC4_Step = ADC4_STEP_THIRD;
  1325  0117  3003               	movlw	3
  1326  0118  2A1F               	goto	L8
  1327  0119                     l4110:	
  1328                           ;main.c: 463: }
  1329                           
  1330  0119  0843               	movf	main@ucLoaderStep,w
  1331                           
  1332                           ; Switch size 1, requested type "space"
  1333                           ; Number of cases is 7, Range of values is 0 to 6
  1334                           ; switch strategies available:
  1335                           ; Name         Instructions Cycles
  1336                           ; direct_byte           21     7 (fixed)
  1337                           ; simple_byte           22    12 (average)
  1338                           ; jumptable            260     6 (fixed)
  1339                           ; rangetable            11     6 (fixed)
  1340                           ; spacedrange           20     9 (fixed)
  1341                           ; locatedrange           7     3 (fixed)
  1342                           ;	Chosen strategy is direct_byte
  1343  011A  0084               	movwf	4
  1344  011B  3007               	movlw	7
  1345  011C  0204               	subwf	4,w
  1346  011D  1803               	skipnc
  1347  011E  283A               	goto	l3960
  1348  011F  3004               	movlw	high S4658
  1349  0120  008A               	movwf	10
  1350  0121  1003               	clrc
  1351  0122  0D04               	rlf	4,w
  1352  0123  3E68               	addlw	low S4658
  1353  0124  0082               	movwf	2
  1354  0125                     l783:	
  1355                           ;main.c: 482: {
  1356                           ;main.c: 483: case 0:
  1357                           
  1358                           
  1359                           ;main.c: 484: {
  1360                           ;main.c: 485: PB0 = 1;
  1361  0125  1406               	bsf	6,0
  1362  0126                     l4112:	
  1363                           
  1364                           ;main.c: 486: ucLoaderStep1++;
  1365  0126  0AC4               	incf	main@ucLoaderStep1,f
  1366                           
  1367                           ;main.c: 487: break;
  1368  0127  283A               	goto	l3960
  1369  0128                     l4114:	
  1370                           
  1371                           ;main.c: 491: {
  1372                           ;main.c: 492: if(ucTimerDelay1 >= 5)
  1373  0128  3005               	movlw	5
  1374  0129  024C               	subwf	main@ucTimerDelay1,w
  1375  012A  1C03               	skipc
  1376  012B  292F               	goto	l4122
  1377                           
  1378                           ;main.c: 493: {
  1379                           ;main.c: 494: PA0 = 1;
  1380  012C  1405               	bsf	5,0
  1381  012D                     l4118:	
  1382                           
  1383                           ;main.c: 495: ucTimerDelay1 = 0;
  1384  012D  01CC               	clrf	main@ucTimerDelay1
  1385  012E  2926               	goto	l4112
  1386  012F                     l4122:	
  1387                           
  1388                           ;main.c: 498: else
  1389                           ;main.c: 499: ucTimerDelay1++;
  1390  012F  0ACC               	incf	main@ucTimerDelay1,f
  1391  0130  283A               	goto	l3960
  1392  0131                     l4124:	
  1393                           
  1394                           ;main.c: 504: {
  1395                           ;main.c: 505: if(ucTimerDelay1 >= 5)
  1396  0131  3005               	movlw	5
  1397  0132  024C               	subwf	main@ucTimerDelay1,w
  1398  0133  1C03               	skipc
  1399  0134  292F               	goto	l4122
  1400                           
  1401                           ;main.c: 506: {
  1402                           ;main.c: 507: PA1= 1;
  1403  0135  1485               	bsf	5,1
  1404  0136  292D               	goto	l4118
  1405  0137                     l4134:	
  1406                           
  1407                           ;main.c: 517: {
  1408                           ;main.c: 518: if(ucTimerDelay1 >= 5)
  1409  0137  3005               	movlw	5
  1410  0138  024C               	subwf	main@ucTimerDelay1,w
  1411  0139  1C03               	skipc
  1412  013A  292F               	goto	l4122
  1413                           
  1414                           ;main.c: 519: {
  1415                           ;main.c: 520: PA2 = 1;
  1416  013B  1505               	bsf	5,2
  1417  013C  292D               	goto	l4118
  1418  013D                     l4144:	
  1419                           
  1420                           ;main.c: 530: {
  1421                           ;main.c: 531: if(ucTimerDelay1 >= 5)
  1422  013D  3005               	movlw	5
  1423  013E  024C               	subwf	main@ucTimerDelay1,w
  1424  013F  1C03               	skipc
  1425  0140  292F               	goto	l4122
  1426                           
  1427                           ;main.c: 532: {
  1428                           ;main.c: 533: PA3 = 1;
  1429  0141  1585               	bsf	5,3
  1430  0142  292D               	goto	l4118
  1431  0143                     l4154:	
  1432                           
  1433                           ;main.c: 543: {
  1434                           ;main.c: 544: if(ucTimerDelay1 >= 5)
  1435  0143  3005               	movlw	5
  1436  0144  024C               	subwf	main@ucTimerDelay1,w
  1437  0145  1C03               	skipc
  1438  0146  292F               	goto	l4122
  1439                           
  1440                           ;main.c: 545: {
  1441                           ;main.c: 546: PA0 = 0;
  1442  0147  1005               	bcf	5,0
  1443                           
  1444                           ;main.c: 547: PA1 = 0;
  1445  0148  1085               	bcf	5,1
  1446                           
  1447                           ;main.c: 548: PA2 = 0;
  1448  0149  1105               	bcf	5,2
  1449                           
  1450                           ;main.c: 549: PA3 = 0;
  1451  014A  1185               	bcf	5,3
  1452  014B  292D               	goto	l4118
  1453  014C                     l4164:	
  1454                           
  1455                           ;main.c: 559: {
  1456                           ;main.c: 560: if(ucTimerDelay1 >= 2)
  1457  014C  3002               	movlw	2
  1458  014D  024C               	subwf	main@ucTimerDelay1,w
  1459  014E  1C03               	skipc
  1460  014F  292F               	goto	l4122
  1461                           
  1462                           ;main.c: 561: {
  1463                           ;main.c: 562: ucTimerDelay1 = 0;
  1464  0150  01CC               	clrf	main@ucTimerDelay1
  1465                           
  1466                           ;main.c: 564: ucLoaderStep1 = 0;
  1467  0151  01C4               	clrf	main@ucLoaderStep1
  1468  0152  2917               	goto	l4104
  1469  0153                     l4174:	
  1470  0153  0844               	movf	main@ucLoaderStep1,w
  1471                           
  1472                           ; Switch size 1, requested type "space"
  1473                           ; Number of cases is 7, Range of values is 0 to 6
  1474                           ; switch strategies available:
  1475                           ; Name         Instructions Cycles
  1476                           ; direct_byte           21     7 (fixed)
  1477                           ; simple_byte           22    12 (average)
  1478                           ; jumptable            260     6 (fixed)
  1479                           ; rangetable            11     6 (fixed)
  1480                           ; spacedrange           20     9 (fixed)
  1481                           ; locatedrange           7     3 (fixed)
  1482                           ;	Chosen strategy is direct_byte
  1483  0154  0084               	movwf	4
  1484  0155  3007               	movlw	7
  1485  0156  0204               	subwf	4,w
  1486  0157  1803               	skipnc
  1487  0158  283A               	goto	l3960
  1488  0159  3004               	movlw	high S4660
  1489  015A  008A               	movwf	10
  1490  015B  1003               	clrc
  1491  015C  0D04               	rlf	4,w
  1492  015D  3E76               	addlw	low S4660
  1493  015E  0082               	movwf	2
  1494  015F                     l810:	
  1495                           ;main.c: 586: {
  1496                           ;main.c: 587: case 0:
  1497                           
  1498                           
  1499                           ;main.c: 588: {
  1500                           ;main.c: 589: PB0 = 1;
  1501  015F  1406               	bsf	6,0
  1502                           
  1503                           ;main.c: 590: PA0 = 1;
  1504  0160  1405               	bsf	5,0
  1505  0161                     l4176:	
  1506                           
  1507                           ;main.c: 591: ucLoaderStep2++;
  1508  0161  0AC5               	incf	main@ucLoaderStep2,f
  1509                           
  1510                           ;main.c: 592: break;
  1511  0162  283A               	goto	l3960
  1512  0163                     l4178:	
  1513                           
  1514                           ;main.c: 596: {
  1515                           ;main.c: 597: if(ucTimerDelay2 >= 5)
  1516  0163  3005               	movlw	5
  1517  0164  024D               	subwf	main@ucTimerDelay2,w
  1518  0165  1C03               	skipc
  1519  0166  296A               	goto	l4186
  1520                           
  1521                           ;main.c: 598: {
  1522                           ;main.c: 599: PA1 = 1;
  1523  0167  1485               	bsf	5,1
  1524  0168                     l4182:	
  1525                           
  1526                           ;main.c: 600: ucTimerDelay2 = 0;
  1527  0168  01CD               	clrf	main@ucTimerDelay2
  1528  0169  2961               	goto	l4176
  1529  016A                     l4186:	
  1530                           
  1531                           ;main.c: 603: else
  1532                           ;main.c: 604: ucTimerDelay2++;
  1533  016A  0ACD               	incf	main@ucTimerDelay2,f
  1534  016B  283A               	goto	l3960
  1535  016C                     l4188:	
  1536                           
  1537                           ;main.c: 609: {
  1538                           ;main.c: 610: if(ucTimerDelay2 >= 5)
  1539  016C  3005               	movlw	5
  1540  016D  024D               	subwf	main@ucTimerDelay2,w
  1541  016E  1C03               	skipc
  1542  016F  296A               	goto	l4186
  1543                           
  1544                           ;main.c: 611: {
  1545                           ;main.c: 612: PA2 = 1;
  1546  0170  1505               	bsf	5,2
  1547  0171  2968               	goto	l4182
  1548  0172                     l4198:	
  1549                           
  1550                           ;main.c: 622: {
  1551                           ;main.c: 623: if(ucTimerDelay2 >= 5)
  1552  0172  3005               	movlw	5
  1553  0173  024D               	subwf	main@ucTimerDelay2,w
  1554  0174  1C03               	skipc
  1555  0175  296A               	goto	l4186
  1556                           
  1557                           ;main.c: 624: {
  1558                           ;main.c: 625: PA3 = 1;
  1559  0176  1585               	bsf	5,3
  1560  0177  2968               	goto	l4182
  1561  0178                     l4208:	
  1562                           
  1563                           ;main.c: 635: {
  1564                           ;main.c: 636: if(ucTimerDelay2 >= 5)
  1565  0178  3005               	movlw	5
  1566  0179  024D               	subwf	main@ucTimerDelay2,w
  1567  017A  1C03               	skipc
  1568  017B  296A               	goto	l4186
  1569                           
  1570                           ;main.c: 637: {
  1571                           ;main.c: 639: PA1 = 0;
  1572  017C  1085               	bcf	5,1
  1573                           
  1574                           ;main.c: 640: PA2 = 0;
  1575  017D  1105               	bcf	5,2
  1576                           
  1577                           ;main.c: 641: PA3 = 0;
  1578  017E  1185               	bcf	5,3
  1579  017F  2968               	goto	l4182
  1580  0180                     l4218:	
  1581                           
  1582                           ;main.c: 651: {
  1583                           ;main.c: 652: if(ucTimerDelay2 >= 2)
  1584  0180  3002               	movlw	2
  1585  0181  024D               	subwf	main@ucTimerDelay2,w
  1586  0182  1C03               	skipc
  1587  0183  296A               	goto	l4186
  1588                           
  1589                           ;main.c: 653: {
  1590                           ;main.c: 654: ucTimerDelay2 = 0;
  1591  0184  01CD               	clrf	main@ucTimerDelay2
  1592                           
  1593                           ;main.c: 656: ucLoaderStep2 = 0;
  1594  0185  01C5               	clrf	main@ucLoaderStep2
  1595  0186  2917               	goto	l4104
  1596  0187                     l4228:	
  1597  0187  0845               	movf	main@ucLoaderStep2,w
  1598                           
  1599                           ; Switch size 1, requested type "space"
  1600                           ; Number of cases is 6, Range of values is 0 to 5
  1601                           ; switch strategies available:
  1602                           ; Name         Instructions Cycles
  1603                           ; direct_byte           19     7 (fixed)
  1604                           ; simple_byte           19    10 (average)
  1605                           ; jumptable            260     6 (fixed)
  1606                           ; rangetable            10     6 (fixed)
  1607                           ; spacedrange           18     9 (fixed)
  1608                           ; locatedrange           6     3 (fixed)
  1609                           ;	Chosen strategy is direct_byte
  1610  0188  0084               	movwf	4
  1611  0189  3006               	movlw	6
  1612  018A  0204               	subwf	4,w
  1613  018B  1803               	skipnc
  1614  018C  283A               	goto	l3960
  1615  018D  3004               	movlw	high S4662
  1616  018E  008A               	movwf	10
  1617  018F  1003               	clrc
  1618  0190  0D04               	rlf	4,w
  1619  0191  3E84               	addlw	low S4662
  1620  0192  0082               	movwf	2
  1621  0193                     l834:	
  1622                           ;main.c: 678: {
  1623                           ;main.c: 679: case 0:
  1624                           
  1625                           
  1626                           ;main.c: 680: {
  1627                           ;main.c: 681: PB0 = 1;
  1628  0193  1406               	bsf	6,0
  1629                           
  1630                           ;main.c: 682: PA0 = 1;
  1631  0194  1405               	bsf	5,0
  1632                           
  1633                           ;main.c: 683: PA1 = 1;
  1634  0195  1485               	bsf	5,1
  1635  0196                     l4230:	
  1636                           
  1637                           ;main.c: 684: ucLoaderStep3++;
  1638  0196  0AC6               	incf	main@ucLoaderStep3,f
  1639                           
  1640                           ;main.c: 685: break;
  1641  0197  283A               	goto	l3960
  1642  0198                     l4232:	
  1643                           
  1644                           ;main.c: 689: {
  1645                           ;main.c: 690: if(ucTimerDelay3 >= 5)
  1646  0198  3005               	movlw	5
  1647  0199  024E               	subwf	main@ucTimerDelay3,w
  1648  019A  1C03               	skipc
  1649  019B  299F               	goto	l4240
  1650                           
  1651                           ;main.c: 691: {
  1652                           ;main.c: 692: PA2 = 1;
  1653  019C  1505               	bsf	5,2
  1654  019D                     l4236:	
  1655                           
  1656                           ;main.c: 693: ucTimerDelay3 = 0;
  1657  019D  01CE               	clrf	main@ucTimerDelay3
  1658  019E  2996               	goto	l4230
  1659  019F                     l4240:	
  1660                           
  1661                           ;main.c: 696: else
  1662                           ;main.c: 697: ucTimerDelay3++;
  1663  019F  0ACE               	incf	main@ucTimerDelay3,f
  1664  01A0  283A               	goto	l3960
  1665  01A1                     l4242:	
  1666                           
  1667                           ;main.c: 702: {
  1668                           ;main.c: 703: if(ucTimerDelay3 >= 5)
  1669  01A1  3005               	movlw	5
  1670  01A2  024E               	subwf	main@ucTimerDelay3,w
  1671  01A3  1C03               	skipc
  1672  01A4  299F               	goto	l4240
  1673                           
  1674                           ;main.c: 704: {
  1675                           ;main.c: 705: PA3 = 1;
  1676  01A5  1585               	bsf	5,3
  1677  01A6  299D               	goto	l4236
  1678  01A7                     l4252:	
  1679                           
  1680                           ;main.c: 716: {
  1681                           ;main.c: 717: if(ucTimerDelay3 >= 5)
  1682  01A7  3005               	movlw	5
  1683  01A8  024E               	subwf	main@ucTimerDelay3,w
  1684  01A9  1C03               	skipc
  1685  01AA  299F               	goto	l4240
  1686                           
  1687                           ;main.c: 718: {
  1688                           ;main.c: 720: PA2 = 0;
  1689  01AB  1105               	bcf	5,2
  1690                           
  1691                           ;main.c: 721: PA3 = 0;
  1692  01AC  1185               	bcf	5,3
  1693  01AD  299D               	goto	l4236
  1694  01AE                     l4262:	
  1695                           
  1696                           ;main.c: 731: {
  1697                           ;main.c: 732: if(ucTimerDelay3 >= 2)
  1698  01AE  3002               	movlw	2
  1699  01AF  024E               	subwf	main@ucTimerDelay3,w
  1700  01B0  1C03               	skipc
  1701  01B1  299F               	goto	l4240
  1702                           
  1703                           ;main.c: 733: {
  1704                           ;main.c: 734: ucTimerDelay3 = 0;
  1705  01B2  01CE               	clrf	main@ucTimerDelay3
  1706                           
  1707                           ;main.c: 736: ucLoaderStep3 = 0;
  1708  01B3  01C6               	clrf	main@ucLoaderStep3
  1709  01B4  2917               	goto	l4104
  1710  01B5                     l4272:	
  1711  01B5  0846               	movf	main@ucLoaderStep3,w
  1712                           
  1713                           ; Switch size 1, requested type "space"
  1714                           ; Number of cases is 5, Range of values is 0 to 4
  1715                           ; switch strategies available:
  1716                           ; Name         Instructions Cycles
  1717                           ; simple_byte           16     9 (average)
  1718                           ; direct_byte           17     7 (fixed)
  1719                           ; jumptable            260     6 (fixed)
  1720                           ; rangetable             9     6 (fixed)
  1721                           ; spacedrange           16     9 (fixed)
  1722                           ; locatedrange           5     3 (fixed)
  1723                           ;	Chosen strategy is simple_byte
  1724  01B6  3A00               	xorlw	0	; case 0
  1725  01B7  1903               	skipnz
  1726  01B8  2993               	goto	l834
  1727  01B9  3A01               	xorlw	1	; case 1
  1728  01BA  1903               	skipnz
  1729  01BB  2998               	goto	l4232
  1730  01BC  3A03               	xorlw	3	; case 2
  1731  01BD  1903               	skipnz
  1732  01BE  29A1               	goto	l4242
  1733  01BF  3A01               	xorlw	1	; case 3
  1734  01C0  1903               	skipnz
  1735  01C1  29A7               	goto	l4252
  1736  01C2  3A07               	xorlw	7	; case 4
  1737  01C3  1903               	skipnz
  1738  01C4  29AE               	goto	l4262
  1739  01C5  285C               	goto	l706
  1740  01C6                     l855:	
  1741                           ;main.c: 758: {
  1742                           ;main.c: 759: case 0:
  1743                           
  1744                           
  1745                           ;main.c: 760: {
  1746                           ;main.c: 761: PB0 = 1;
  1747  01C6  1406               	bsf	6,0
  1748                           
  1749                           ;main.c: 762: PA0 = 1;
  1750  01C7  1405               	bsf	5,0
  1751                           
  1752                           ;main.c: 763: PA1 = 1;
  1753  01C8  1485               	bsf	5,1
  1754                           
  1755                           ;main.c: 764: PA2 = 1;
  1756  01C9  1505               	bsf	5,2
  1757  01CA                     l4274:	
  1758                           
  1759                           ;main.c: 765: ucLoaderStep4++;
  1760  01CA  0AC7               	incf	main@ucLoaderStep4,f
  1761                           
  1762                           ;main.c: 766: break;
  1763  01CB  283A               	goto	l3960
  1764  01CC                     l4276:	
  1765                           
  1766                           ;main.c: 770: {
  1767                           ;main.c: 771: if(ucTimerDelay4 >= 5)
  1768  01CC  3005               	movlw	5
  1769  01CD  024F               	subwf	main@ucTimerDelay4,w
  1770  01CE  1C03               	skipc
  1771  01CF  29D3               	goto	l4284
  1772                           
  1773                           ;main.c: 772: {
  1774                           ;main.c: 773: PA3 = 1;
  1775  01D0  1585               	bsf	5,3
  1776  01D1                     l4280:	
  1777                           
  1778                           ;main.c: 774: ucTimerDelay4 = 0;
  1779  01D1  01CF               	clrf	main@ucTimerDelay4
  1780  01D2  29CA               	goto	l4274
  1781  01D3                     l4284:	
  1782                           
  1783                           ;main.c: 777: else
  1784                           ;main.c: 778: ucTimerDelay4++;
  1785  01D3  0ACF               	incf	main@ucTimerDelay4,f
  1786  01D4  283A               	goto	l3960
  1787  01D5                     l4286:	
  1788                           
  1789                           ;main.c: 783: {
  1790                           ;main.c: 784: if(ucTimerDelay4 >= 5)
  1791  01D5  3005               	movlw	5
  1792  01D6  024F               	subwf	main@ucTimerDelay4,w
  1793  01D7  1C03               	skipc
  1794  01D8  29D3               	goto	l4284
  1795                           
  1796                           ;main.c: 785: {
  1797                           ;main.c: 786: PA3 = 0;
  1798  01D9  1185               	bcf	5,3
  1799  01DA  29D1               	goto	l4280
  1800  01DB                     l4296:	
  1801                           
  1802                           ;main.c: 796: {
  1803                           ;main.c: 797: if(ucTimerDelay4 >= 2)
  1804  01DB  3002               	movlw	2
  1805  01DC  024F               	subwf	main@ucTimerDelay4,w
  1806  01DD  1C03               	skipc
  1807  01DE  29D3               	goto	l4284
  1808                           
  1809                           ;main.c: 798: {
  1810                           ;main.c: 799: ucTimerDelay4 = 0;
  1811  01DF  01CF               	clrf	main@ucTimerDelay4
  1812                           
  1813                           ;main.c: 801: ucLoaderStep4 = 0;
  1814  01E0  01C7               	clrf	main@ucLoaderStep4
  1815  01E1  2917               	goto	l4104
  1816  01E2                     l4306:	
  1817  01E2  0847               	movf	main@ucLoaderStep4,w
  1818                           
  1819                           ; Switch size 1, requested type "space"
  1820                           ; Number of cases is 4, Range of values is 0 to 3
  1821                           ; switch strategies available:
  1822                           ; Name         Instructions Cycles
  1823                           ; simple_byte           13     7 (average)
  1824                           ; direct_byte           15     7 (fixed)
  1825                           ; jumptable            260     6 (fixed)
  1826                           ; rangetable             8     6 (fixed)
  1827                           ; spacedrange           14     9 (fixed)
  1828                           ; locatedrange           4     3 (fixed)
  1829                           ;	Chosen strategy is simple_byte
  1830  01E3  3A00               	xorlw	0	; case 0
  1831  01E4  1903               	skipnz
  1832  01E5  29C6               	goto	l855
  1833  01E6  3A01               	xorlw	1	; case 1
  1834  01E7  1903               	skipnz
  1835  01E8  29CC               	goto	l4276
  1836  01E9  3A03               	xorlw	3	; case 2
  1837  01EA  1903               	skipnz
  1838  01EB  29D5               	goto	l4286
  1839  01EC  3A01               	xorlw	1	; case 3
  1840  01ED  1903               	skipnz
  1841  01EE  29DB               	goto	l4296
  1842  01EF  285C               	goto	l706
  1843  01F0                     l4310:	
  1844  01F0  0842               	movf	main@ucChannel4Type,w
  1845                           
  1846                           ; Switch size 1, requested type "space"
  1847                           ; Number of cases is 5, Range of values is 0 to 4
  1848                           ; switch strategies available:
  1849                           ; Name         Instructions Cycles
  1850                           ; simple_byte           16     9 (average)
  1851                           ; direct_byte           17     7 (fixed)
  1852                           ; jumptable            260     6 (fixed)
  1853                           ; rangetable             9     6 (fixed)
  1854                           ; spacedrange           16     9 (fixed)
  1855                           ; locatedrange           5     3 (fixed)
  1856                           ;	Chosen strategy is simple_byte
  1857  01F1  3A00               	xorlw	0	; case 0
  1858  01F2  1903               	skipnz
  1859  01F3  2919               	goto	l4110
  1860  01F4  3A01               	xorlw	1	; case 1
  1861  01F5  1903               	skipnz
  1862  01F6  2953               	goto	l4174
  1863  01F7  3A03               	xorlw	3	; case 2
  1864  01F8  1903               	skipnz
  1865  01F9  2987               	goto	l4228
  1866  01FA  3A01               	xorlw	1	; case 3
  1867  01FB  1903               	skipnz
  1868  01FC  29B5               	goto	l4272
  1869  01FD  3A07               	xorlw	7	; case 4
  1870  01FE  1903               	skipnz
  1871  01FF  29E2               	goto	l4306
  1872  0200  285C               	goto	l706
  1873  0201                     l4312:	
  1874                           
  1875                           ;main.c: 825: {
  1876                           ;main.c: 826: if(isFinishedTwentySecondsTimer())
  1877  0201  118A  24D4  118A   	fcall	_isFinishedTwentySecondsTimer
  1878  0204  3A00               	xorlw	0
  1879  0205  1903               	skipnz
  1880  0206  28B1               	goto	l4028
  1881                           
  1882                           ;main.c: 827: {
  1883                           ;main.c: 828: PBOD6 =0;
  1884  0207  1683               	bsf	3,5	;RP0=1, select bank3
  1885  0208  1703               	bsf	3,6	;RP1=1, select bank3
  1886  0209  1308               	bcf	8,6
  1887                           
  1888                           ;main.c: 829: PB6 = 1;
  1889  020A  1283               	bcf	3,5	;RP0=0, select bank0
  1890  020B  1303               	bcf	3,6	;RP1=0, select bank0
  1891  020C  1706               	bsf	6,6
  1892                           
  1893                           ;main.c: 830: PA6 = 0;
  1894  020D  1305               	bcf	5,6
  1895                           
  1896                           ;main.c: 837: if((getAdOriginalCh14Value() > 2800))
  1897  020E  118A  24E8  118A   	fcall	_getAdOriginalCh14Value
  1898  0211  300A               	movlw	10
  1899  0212  0257               	subwf	?_getAdOriginalCh14Value+1,w
  1900  0213  30F1               	movlw	241
  1901  0214  1903               	skipnz
  1902  0215  0256               	subwf	?_getAdOriginalCh14Value,w
  1903  0216  1C03               	skipc
  1904  0217  2A1A               	goto	l4320
  1905                           
  1906                           ;main.c: 838: DACR0=0x0F;
  1907  0218  300F               	movlw	15
  1908  0219  2A1B               	goto	L9
  1909  021A                     l4320:	
  1910                           
  1911                           ;main.c: 839: else
  1912                           ;main.c: 840: DACR0=0x07;
  1913  021A  3007               	movlw	7
  1914  021B                     L9:	
  1915  021B  1683               	bsf	3,5	;RP0=1, select bank1
  1916  021C  0088               	movwf	8	;volatile
  1917                           
  1918                           ;main.c: 842: ucADC4_Step = ADC4_STEP_FOURTH;
  1919  021D  3004               	movlw	4
  1920  021E  1283               	bcf	3,5	;RP0=0, select bank0
  1921  021F                     L8:	
  1922  021F  00C1               	movwf	main@ucADC4_Step
  1923                           
  1924                           ;main.c: 843: }
  1925  0220  283A               	goto	l3960
  1926  0221                     l4322:	
  1927                           
  1928                           ;main.c: 851: {
  1929                           ;main.c: 852: static unsigned char ucTimer1s = 0;
  1930                           ;main.c: 853: if(ucTimer1s < 5)
  1931  0221  3005               	movlw	5
  1932  0222  0248               	subwf	main@ucTimer1s,w
  1933  0223  1803               	skipnc
  1934  0224  2A27               	goto	l4326
  1935                           
  1936                           ;main.c: 854: {
  1937                           ;main.c: 855: ucTimer1s++;
  1938  0225  0AC8               	incf	main@ucTimer1s,f
  1939                           
  1940                           ;main.c: 856: }
  1941  0226  283A               	goto	l3960
  1942  0227                     l4326:	
  1943                           
  1944                           ;main.c: 857: else
  1945                           ;main.c: 858: {
  1946                           ;main.c: 859: ucTimer1s = 0;
  1947  0227  01C8               	clrf	main@ucTimer1s
  1948                           
  1949                           ;main.c: 860: PB6 = 1;
  1950  0228  1706               	bsf	6,6
  1951                           
  1952                           ;main.c: 861: PBOD6 = 1;
  1953  0229  1683               	bsf	3,5	;RP0=1, select bank3
  1954  022A  1703               	bsf	3,6	;RP1=1, select bank3
  1955  022B  1708               	bsf	8,6
  1956                           
  1957                           ;main.c: 862: enumMainLoopStep = MAIN_LOOP_STEP_FIRST;
  1958  022C  1283               	bcf	3,5	;RP0=0, select bank0
  1959  022D  1303               	bcf	3,6	;RP1=0, select bank0
  1960  022E  01C0               	clrf	main@enumMainLoopStep
  1961  022F  0AC0               	incf	main@enumMainLoopStep,f
  1962                           
  1963                           ;main.c: 863: ucADC4_Step = ADC4_STEP_INIT;
  1964  0230  01C1               	clrf	main@ucADC4_Step
  1965  0231  283A               	goto	l3960
  1966  0232                     l4336:	
  1967  0232  0841               	movf	main@ucADC4_Step,w
  1968                           
  1969                           ; Switch size 1, requested type "space"
  1970                           ; Number of cases is 5, Range of values is 0 to 4
  1971                           ; switch strategies available:
  1972                           ; Name         Instructions Cycles
  1973                           ; simple_byte           16     9 (average)
  1974                           ; direct_byte           17     7 (fixed)
  1975                           ; jumptable            260     6 (fixed)
  1976                           ; rangetable             9     6 (fixed)
  1977                           ; spacedrange           16     9 (fixed)
  1978                           ; locatedrange           5     3 (fixed)
  1979                           ;	Chosen strategy is simple_byte
  1980  0233  3A00               	xorlw	0	; case 0
  1981  0234  1903               	skipnz
  1982  0235  28AE               	goto	l4026
  1983  0236  3A01               	xorlw	1	; case 1
  1984  0237  1903               	skipnz
  1985  0238  28B4               	goto	l4030
  1986  0239  3A03               	xorlw	3	; case 2
  1987  023A  1903               	skipnz
  1988  023B  29F0               	goto	l4310
  1989  023C  3A01               	xorlw	1	; case 3
  1990  023D  1903               	skipnz
  1991  023E  2A01               	goto	l4312
  1992  023F  3A07               	xorlw	7	; case 4
  1993  0240  1903               	skipnz
  1994  0241  2A21               	goto	l4322
  1995  0242  285C               	goto	l706
  1996  0243                     l883:	
  1997                           ;main.c: 889: {
  1998                           ;main.c: 890: case HOUR_3_BRANCH_STEP_FIRST:
  1999                           
  2000                           
  2001                           ;main.c: 891: {
  2002                           ;main.c: 892: PA7 = 1;
  2003  0243  1785               	bsf	5,7
  2004                           
  2005                           ;main.c: 893: PAOD7 = 1;
  2006  0244  1683               	bsf	3,5	;RP0=1, select bank3
  2007  0245  303C               	movlw	60
  2008  0246  1703               	bsf	3,6	;RP1=1, select bank3
  2009  0247  1787               	bsf	7,7
  2010                           
  2011                           ;main.c: 894: startThreeHoursTimer(60);
  2012  0248  1283               	bcf	3,5	;RP0=0, select bank0
  2013  0249  1303               	bcf	3,6	;RP1=0, select bank0
  2014  024A  00D6               	movwf	?_startThreeHoursTimer
  2015  024B  01D7               	clrf	?_startThreeHoursTimer+1
  2016  024C  118A  24A5  118A   	fcall	_startThreeHoursTimer
  2017                           
  2018                           ;main.c: 896: enumBranchStep = HOUR_3_BRANCH_STEP_SECOND;
  2019  024F  01BE               	clrf	main@enumBranchStep
  2020  0250  0ABE               	incf	main@enumBranchStep,f
  2021                           
  2022                           ;main.c: 897: break;
  2023  0251  283A               	goto	l3960
  2024  0252                     l4342:	
  2025                           
  2026                           ;main.c: 901: {
  2027                           ;main.c: 902: static unsigned char ucTimer20s = 0;
  2028                           ;main.c: 904: if(ucTimer20s < 200)
  2029  0252  30C8               	movlw	200
  2030  0253  0249               	subwf	main@ucTimer20s,w
  2031  0254  1803               	skipnc
  2032  0255  2A5D               	goto	l4356
  2033                           
  2034                           ;main.c: 905: {
  2035                           ;main.c: 906: ucTimer20s++;
  2036  0256  0AC9               	incf	main@ucTimer20s,f
  2037                           
  2038                           ;main.c: 907: PB0 = 1;
  2039  0257  1406               	bsf	6,0
  2040                           
  2041                           ;main.c: 908: PA0 = 1;
  2042  0258  1405               	bsf	5,0
  2043                           
  2044                           ;main.c: 909: PA1 = 1;
  2045  0259  1485               	bsf	5,1
  2046                           
  2047                           ;main.c: 910: PA2 = 1;
  2048  025A  1505               	bsf	5,2
  2049                           
  2050                           ;main.c: 911: PA3 = 1;
  2051  025B  1585               	bsf	5,3
  2052                           
  2053                           ;main.c: 912: }
  2054  025C  283A               	goto	l3960
  2055  025D                     l4356:	
  2056  025D  3002               	movlw	2
  2057                           
  2058                           ;main.c: 913: else
  2059                           ;main.c: 914: {
  2060                           ;main.c: 916: ucTimer20s = 0;
  2061  025E  01C9               	clrf	main@ucTimer20s
  2062                           
  2063                           ;main.c: 919: enumBranchStep = HOUR_3_BRANCH_STEP_THIRD;
  2064  025F  00BE               	movwf	main@enumBranchStep
  2065  0260  283A               	goto	l3960
  2066  0261                     l890:	
  2067                           ;main.c: 922: }
  2068                           ;main.c: 924: case HOUR_3_BRANCH_STEP_THIRD:
  2069                           
  2070                           
  2071                           ;main.c: 925: {
  2072                           ;main.c: 926: PA6 = 0;
  2073  0261  1305               	bcf	5,6
  2074                           
  2075                           ;main.c: 928: if(isFinishedThreeHoursTimer())
  2076  0262  118A  24CF  118A   	fcall	_isFinishedThreeHoursTimer
  2077  0265  3A00               	xorlw	0
  2078  0266  1903               	skipnz
  2079  0267  2A6A               	goto	l4366
  2080                           
  2081                           ;main.c: 929: {
  2082                           ;main.c: 930: enumBranchStep = HOUR_3_BRANCH_STEP_FIRST;
  2083  0268  01BE               	clrf	main@enumBranchStep
  2084  0269  28AB               	goto	l4024
  2085  026A                     l4366:	
  2086                           
  2087                           ;main.c: 933: else
  2088                           ;main.c: 934: {
  2089                           ;main.c: 935: static unsigned char ucTimerX1P5s = 0;
  2090                           ;main.c: 937: if(getAdOriginalCh1Value() < 130)
  2091  026A  118A  24E3  118A   	fcall	_getAdOriginalCh1Value
  2092  026D  3000               	movlw	0
  2093  026E  0257               	subwf	?_getAdOriginalCh1Value+1,w
  2094  026F  3082               	movlw	130
  2095  0270  1903               	skipnz
  2096  0271  0256               	subwf	?_getAdOriginalCh1Value,w
  2097  0272  1803               	skipnc
  2098  0273  2A76               	goto	l4370
  2099                           
  2100                           ;main.c: 938: {
  2101                           ;main.c: 939: ucTimerX1P5s = 0;
  2102  0274  01D2               	clrf	main@ucTimerX1P5s
  2103                           
  2104                           ;main.c: 940: }
  2105  0275  2A77               	goto	l4372
  2106  0276                     l4370:	
  2107                           
  2108                           ;main.c: 941: else
  2109                           ;main.c: 942: {
  2110                           ;main.c: 943: ucTimerX1P5s++;
  2111  0276  0AD2               	incf	main@ucTimerX1P5s,f
  2112  0277                     l4372:	
  2113                           
  2114                           ;main.c: 944: }
  2115                           ;main.c: 946: if(ucTimerX1P5s >= 1)
  2116  0277  0852               	movf	main@ucTimerX1P5s,w
  2117  0278  1903               	btfsc	3,2
  2118  0279  2A86               	goto	l4386
  2119                           
  2120                           ;main.c: 947: {
  2121                           ;main.c: 948: ucTimerX1P5s = 0;
  2122  027A  01D2               	clrf	main@ucTimerX1P5s
  2123                           
  2124                           ;main.c: 949: PAOD7 = 0;
  2125  027B  1683               	bsf	3,5	;RP0=1, select bank3
  2126  027C  1703               	bsf	3,6	;RP1=1, select bank3
  2127  027D  1387               	bcf	7,7
  2128                           
  2129                           ;main.c: 950: PA7 = 0;
  2130  027E  1283               	bcf	3,5	;RP0=0, select bank0
  2131  027F  1303               	bcf	3,6	;RP1=0, select bank0
  2132  0280  1385               	bcf	5,7
  2133                           
  2134                           ;main.c: 951: clearThreeHoursTimer();
  2135  0281  118A  243F  118A   	fcall	_clearThreeHoursTimer
  2136                           
  2137                           ;main.c: 953: enumBranchStep = HOUR_3_BRANCH_STEP_FIRST;
  2138  0284  01BE               	clrf	main@enumBranchStep
  2139  0285  286E               	goto	l3988
  2140  0286                     l4386:	
  2141                           
  2142                           ;main.c: 957: else
  2143                           ;main.c: 958: {
  2144                           ;main.c: 959: static unsigned char ucTimerX2P5s = 0;
  2145                           ;main.c: 961: if(getAdOriginalCh14Value() >= 1950)
  2146  0286  118A  24E8  118A   	fcall	_getAdOriginalCh14Value
  2147  0289  3007               	movlw	7
  2148  028A  0257               	subwf	?_getAdOriginalCh14Value+1,w
  2149  028B  309E               	movlw	158
  2150  028C  1903               	skipnz
  2151  028D  0256               	subwf	?_getAdOriginalCh14Value,w
  2152  028E  1C03               	skipc
  2153  028F  2A92               	goto	l4390
  2154                           
  2155                           ;main.c: 962: {
  2156                           ;main.c: 963: ucTimerX2P5s++;
  2157  0290  0AD3               	incf	main@ucTimerX2P5s,f
  2158                           
  2159                           ;main.c: 964: }
  2160  0291  2A93               	goto	l4392
  2161  0292                     l4390:	
  2162                           
  2163                           ;main.c: 965: else
  2164                           ;main.c: 966: {
  2165                           ;main.c: 967: ucTimerX2P5s = 0;
  2166  0292  01D3               	clrf	main@ucTimerX2P5s
  2167  0293                     l4392:	
  2168                           
  2169                           ;main.c: 968: }
  2170                           ;main.c: 970: if(ucTimerX2P5s >= 1)
  2171  0293  0853               	movf	main@ucTimerX2P5s,w
  2172  0294  1903               	btfsc	3,2
  2173  0295  2A98               	goto	l4396
  2174                           
  2175                           ;main.c: 971: {
  2176                           ;main.c: 972: ucTimerX2P5s = 0;
  2177  0296  01D3               	clrf	main@ucTimerX2P5s
  2178                           
  2179                           ;main.c: 973: }
  2180  0297  283A               	goto	l3960
  2181  0298                     l4396:	
  2182                           
  2183                           ;main.c: 974: else
  2184                           ;main.c: 975: {
  2185                           ;main.c: 976: clearPinPortAndTimer();
  2186  0298  118A  242B  118A   	fcall	_clearPinPortAndTimer
  2187  029B  285A               	goto	l3978
  2188  029C                     l4402:	
  2189  029C  083E               	movf	main@enumBranchStep,w
  2190                           
  2191                           ; Switch size 1, requested type "space"
  2192                           ; Number of cases is 3, Range of values is 0 to 2
  2193                           ; switch strategies available:
  2194                           ; Name         Instructions Cycles
  2195                           ; simple_byte           10     6 (average)
  2196                           ; direct_byte           13     7 (fixed)
  2197                           ; jumptable            260     6 (fixed)
  2198                           ; rangetable             7     6 (fixed)
  2199                           ; spacedrange           12     9 (fixed)
  2200                           ; locatedrange           3     3 (fixed)
  2201                           ;	Chosen strategy is simple_byte
  2202  029D  3A00               	xorlw	0	; case 0
  2203  029E  1903               	skipnz
  2204  029F  2A43               	goto	l883
  2205  02A0  3A01               	xorlw	1	; case 1
  2206  02A1  1903               	skipnz
  2207  02A2  2A52               	goto	l4342
  2208  02A3  3A03               	xorlw	3	; case 2
  2209  02A4  1903               	skipnz
  2210  02A5  2A61               	goto	l890
  2211  02A6  285C               	goto	l706
  2212  02A7                     l910:	
  2213                           ;main.c: 1006: {
  2214                           ;main.c: 1007: case INTERNAL_FIRST_STEP:
  2215                           
  2216                           
  2217                           ;main.c: 1008: {
  2218                           ;main.c: 1009: PB0 = 0;
  2219  02A7  1006               	bcf	6,0
  2220                           
  2221                           ;main.c: 1010: PB1 = 0;
  2222  02A8  1086               	bcf	6,1
  2223                           
  2224                           ;main.c: 1011: PA0 = 0;
  2225  02A9  1005               	bcf	5,0
  2226                           
  2227                           ;main.c: 1012: PA1 = 0;
  2228  02AA  1085               	bcf	5,1
  2229                           
  2230                           ;main.c: 1013: PA2 = 0;
  2231  02AB  1105               	bcf	5,2
  2232                           
  2233                           ;main.c: 1014: PA3 = 0;
  2234  02AC  1185               	bcf	5,3
  2235                           
  2236                           ;main.c: 1015: PBOD6 = 0;
  2237  02AD  1683               	bsf	3,5	;RP0=1, select bank3
  2238  02AE  1703               	bsf	3,6	;RP1=1, select bank3
  2239  02AF  1308               	bcf	8,6
  2240                           
  2241                           ;main.c: 1016: PB6 = 1;
  2242  02B0  1283               	bcf	3,5	;RP0=0, select bank0
  2243  02B1  1303               	bcf	3,6	;RP1=0, select bank0
  2244  02B2  1706               	bsf	6,6
  2245                           
  2246                           ;main.c: 1017: PA6 =0;
  2247  02B3  1305               	bcf	5,6
  2248                           
  2249                           ;main.c: 1019: enumInteralStep = INTERNAL_SECOND_STEP;
  2250  02B4  01BF               	clrf	main@enumInteralStep
  2251  02B5  0ABF               	incf	main@enumInteralStep,f
  2252                           
  2253                           ;main.c: 1020: break;
  2254  02B6  283A               	goto	l3960
  2255  02B7                     l4404:	
  2256                           
  2257                           ;main.c: 1024: {
  2258                           ;main.c: 1025: static unsigned char ucTimer1s = 0;
  2259                           ;main.c: 1027: if(getAdOriginalCh14Value() <= 1000)
  2260  02B7  118A  24E8  118A   	fcall	_getAdOriginalCh14Value
  2261  02BA  3003               	movlw	3
  2262  02BB  0257               	subwf	?_getAdOriginalCh14Value+1,w
  2263  02BC  30E9               	movlw	233
  2264  02BD  1903               	skipnz
  2265  02BE  0256               	subwf	?_getAdOriginalCh14Value,w
  2266  02BF  1803               	skipnc
  2267  02C0  2AC3               	goto	l4408
  2268                           
  2269                           ;main.c: 1028: {
  2270                           ;main.c: 1029: ucTimer1s++;
  2271  02C1  0ABD               	incf	main@cTimer1s_809,f
  2272                           
  2273                           ;main.c: 1030: }
  2274  02C2  2AC4               	goto	l4410
  2275  02C3                     l4408:	
  2276                           
  2277                           ;main.c: 1031: else
  2278                           ;main.c: 1032: ucTimer1s = 0;
  2279  02C3  01BD               	clrf	main@cTimer1s_809
  2280  02C4                     l4410:	
  2281                           
  2282                           ;main.c: 1034: if(ucTimer1s >= 10)
  2283  02C4  300A               	movlw	10
  2284  02C5  023D               	subwf	main@cTimer1s_809,w
  2285  02C6  1C03               	skipc
  2286  02C7  283A               	goto	l3960
  2287                           
  2288                           ;main.c: 1035: {
  2289                           ;main.c: 1036: enumInteralStep = INTERNAL_THIRD_STEP;
  2290  02C8  3002               	movlw	2
  2291  02C9  00BF               	movwf	main@enumInteralStep
  2292                           
  2293                           ;main.c: 1037: ucTimer1s = 0;
  2294  02CA  01BD               	clrf	main@cTimer1s_809
  2295  02CB  283A               	goto	l3960
  2296  02CC                     l4416:	
  2297                           
  2298                           ;main.c: 1043: {
  2299                           ;main.c: 1044: static unsigned char ucTimerP3s = 0;
  2300                           ;main.c: 1046: if(getAdOriginalCh14Value() >= 1950)
  2301  02CC  118A  24E8  118A   	fcall	_getAdOriginalCh14Value
  2302  02CF  3007               	movlw	7
  2303  02D0  0257               	subwf	?_getAdOriginalCh14Value+1,w
  2304  02D1  309E               	movlw	158
  2305  02D2  1903               	skipnz
  2306  02D3  0256               	subwf	?_getAdOriginalCh14Value,w
  2307  02D4  1C03               	skipc
  2308  02D5  2AD8               	goto	l4420
  2309                           
  2310                           ;main.c: 1047: {
  2311                           ;main.c: 1048: ucTimerP3s++;
  2312  02D6  0AD0               	incf	main@ucTimerP3s,f
  2313                           
  2314                           ;main.c: 1049: }
  2315  02D7  2AD9               	goto	l4422
  2316  02D8                     l4420:	
  2317                           
  2318                           ;main.c: 1050: else
  2319                           ;main.c: 1051: ucTimerP3s = 0;
  2320  02D8  01D0               	clrf	main@ucTimerP3s
  2321  02D9                     l4422:	
  2322                           
  2323                           ;main.c: 1053: if(ucTimerP3s >= 3)
  2324  02D9  3003               	movlw	3
  2325  02DA  0250               	subwf	main@ucTimerP3s,w
  2326  02DB  1C03               	skipc
  2327  02DC  283A               	goto	l3960
  2328                           
  2329                           ;main.c: 1054: {
  2330                           ;main.c: 1055: enumInteralStep = INTERNAL_FIRST_STEP;
  2331  02DD  01BF               	clrf	main@enumInteralStep
  2332                           
  2333                           ;main.c: 1056: ucTimerP3s = 0;
  2334  02DE  01D0               	clrf	main@ucTimerP3s
  2335                           
  2336                           ;main.c: 1057: clearAllTimer();
  2337  02DF  118A  2437  118A   	fcall	_clearAllTimer
  2338                           
  2339                           ;main.c: 1059: DACR0=0x0F;
  2340  02E2  300F               	movlw	15
  2341  02E3  1683               	bsf	3,5	;RP0=1, select bank1
  2342  02E4  0088               	movwf	8	;volatile
  2343                           
  2344                           ;main.c: 1060: initPin();
  2345  02E5  118A  2445  118A   	fcall	_initPin
  2346                           
  2347                           ;main.c: 1063: enumMainLoopStep = MAIN_LOOP_STEP_INIT;
  2348  02E8  1283               	bcf	3,5	;RP0=0, select bank0
  2349  02E9  1303               	bcf	3,6	;RP1=0, select bank0
  2350  02EA  01C0               	clrf	main@enumMainLoopStep
  2351  02EB  283A               	goto	l3960
  2352  02EC                     l4436:	
  2353  02EC  083F               	movf	main@enumInteralStep,w
  2354                           
  2355                           ; Switch size 1, requested type "space"
  2356                           ; Number of cases is 3, Range of values is 0 to 2
  2357                           ; switch strategies available:
  2358                           ; Name         Instructions Cycles
  2359                           ; simple_byte           10     6 (average)
  2360                           ; direct_byte           13     7 (fixed)
  2361                           ; jumptable            260     6 (fixed)
  2362                           ; rangetable             7     6 (fixed)
  2363                           ; spacedrange           12     9 (fixed)
  2364                           ; locatedrange           3     3 (fixed)
  2365                           ;	Chosen strategy is simple_byte
  2366  02ED  3A00               	xorlw	0	; case 0
  2367  02EE  1903               	skipnz
  2368  02EF  2AA7               	goto	l910
  2369  02F0  3A01               	xorlw	1	; case 1
  2370  02F1  1903               	skipnz
  2371  02F2  2AB7               	goto	l4404
  2372  02F3  3A03               	xorlw	3	; case 2
  2373  02F4  1903               	skipnz
  2374  02F5  2ACC               	goto	l4416
  2375  02F6  285C               	goto	l706
  2376  02F7                     l4440:	
  2377  02F7  1283               	bcf	3,5	;RP0=0, select bank0
  2378  02F8  1303               	bcf	3,6	;RP1=0, select bank0
  2379  02F9  0840               	movf	main@enumMainLoopStep,w
  2380                           
  2381                           ; Switch size 1, requested type "space"
  2382                           ; Number of cases is 8, Range of values is 0 to 9
  2383                           ; switch strategies available:
  2384                           ; Name         Instructions Cycles
  2385                           ; simple_byte           25    13 (average)
  2386                           ; direct_byte           27     7 (fixed)
  2387                           ; jumptable            260     6 (fixed)
  2388                           ; rangetable            14     6 (fixed)
  2389                           ; spacedrange           26     9 (fixed)
  2390                           ; locatedrange          10     3 (fixed)
  2391                           ;	Chosen strategy is simple_byte
  2392  02FA  3A00               	xorlw	0	; case 0
  2393  02FB  1903               	skipnz
  2394  02FC  2848               	goto	l3968
  2395  02FD  3A01               	xorlw	1	; case 1
  2396  02FE  1903               	skipnz
  2397  02FF  285D               	goto	l3980
  2398  0300  3A03               	xorlw	3	; case 2
  2399  0301  1903               	skipnz
  2400  0302  2874               	goto	l715
  2401  0303  3A01               	xorlw	1	; case 3
  2402  0304  1903               	skipnz
  2403  0305  2877               	goto	l3994
  2404  0306  3A07               	xorlw	7	; case 4
  2405  0307  1903               	skipnz
  2406  0308  289D               	goto	l4018
  2407  0309  3A01               	xorlw	1	; case 5
  2408  030A  1903               	skipnz
  2409  030B  28A5               	goto	l4022
  2410  030C  3A0D               	xorlw	13	; case 8
  2411  030D  1903               	skipnz
  2412  030E  2A9C               	goto	l4402
  2413  030F  3A01               	xorlw	1	; case 9
  2414  0310  1903               	skipnz
  2415  0311  2AEC               	goto	l4436
  2416  0312  285C               	goto	l706
  2417  0313  118A  280B         	ljmp	start
  2418  0315                     __end_of_main:	
  2419                           
  2420                           	psect	swtext1
  2421  0468                     __pswtext1:	
  2422  0468                     S4658:	
  2423  0468  118A  28E9         	ljmp	l755
  2424  046A  118A  28EC         	ljmp	l4050
  2425  046C  118A  28F5         	ljmp	l4060
  2426  046E  118A  28FB         	ljmp	l4070
  2427  0470  118A  2901         	ljmp	l4080
  2428  0472  118A  2907         	ljmp	l4090
  2429  0474  118A  2911         	ljmp	l4100
  2430                           
  2431                           	psect	swtext2
  2432  0476                     __pswtext2:	
  2433  0476                     S4660:	
  2434  0476  118A  2925         	ljmp	l783
  2435  0478  118A  2928         	ljmp	l4114
  2436  047A  118A  2931         	ljmp	l4124
  2437  047C  118A  2937         	ljmp	l4134
  2438  047E  118A  293D         	ljmp	l4144
  2439  0480  118A  2943         	ljmp	l4154
  2440  0482  118A  294C         	ljmp	l4164
  2441                           
  2442                           	psect	swtext3
  2443  0484                     __pswtext3:	
  2444  0484                     S4662:	
  2445  0484  118A  295F         	ljmp	l810
  2446  0486  118A  2963         	ljmp	l4178
  2447  0488  118A  296C         	ljmp	l4188
  2448  048A  118A  2972         	ljmp	l4198
  2449  048C  118A  2978         	ljmp	l4208
  2450  048E  118A  2980         	ljmp	l4218
  2451                           
  2452                           	psect	text601
  2453  0315                     __ptext601:	
  2454 ;; =============== function _main ends ============
  2455                           
  2456                           
  2457 ;; *************** function _process_AD_Converter_Value *****************
  2458 ;; Defined at:
  2459 ;;		line 102 in file "C:\190604\AK7030-OTP\common.c"
  2460 ;; Parameters:    Size  Location     Type
  2461 ;;		None
  2462 ;; Auto vars:     Size  Location     Type
  2463 ;;		None
  2464 ;; Return value:  Size  Location     Type
  2465 ;;		None               void
  2466 ;; Registers used:
  2467 ;;		wreg, fsr0l, fsr0h, status,2, status,0, pclath, cstack
  2468 ;; Tracked objects:
  2469 ;;		On entry : 0/0
  2470 ;;		On exit  : 0/0
  2471 ;;		Unchanged: FFE9F/0
  2472 ;; Data sizes:     COMMON   BANK0   BANK1   BANK3   BANK2
  2473 ;;      Params:         0       0       0       0       0
  2474 ;;      Locals:         0       0       0       0       0
  2475 ;;      Temps:          0       0       0       0       0
  2476 ;;      Totals:         0       0       0       0       0
  2477 ;;Total ram usage:        0 bytes
  2478 ;; Hardware stack levels used:    1
  2479 ;; Hardware stack levels required when called:    4
  2480 ;; This function calls:
  2481 ;;		_getAD_ConvertFlag
  2482 ;;		_setAD_ConvertFlag
  2483 ;;		_AD_Sample
  2484 ;;		_adc_test_init
  2485 ;;		_adc_start
  2486 ;; This function is called by:
  2487 ;;		_main
  2488 ;; This function uses a non-reentrant model
  2489 ;;
  2490  0315                     _process_AD_Converter_Value:	
  2491                           
  2492                           ;common.c: 67: return adc_convert_flag;
  2493                           
  2494                           ; Regs used in _getAD_ConvertFlag: [wreg]
  2495                           
  2496                           ;common.c: 103: if(getAD_ConvertFlag())
  2497                           
  2498                           ; Regs used in _process_AD_Converter_Value: [wreg-fsr0h+status,2+status,0+pclath+cstack]
  2499  0315  0879               	movf	_adc_convert_flag,w
  2500  0316  3A00               	xorlw	0
  2501  0317  1903               	skipnz
  2502  0318  0008               	return
  2503                           
  2504                           ;common.c: 104: {
  2505                           ;common.c: 105: setAD_ConvertFlag(0);
  2506  0319  3000               	movlw	0
  2507  031A  2334  118A         	fcall	_setAD_ConvertFlag
  2508                           
  2509                           ;common.c: 106: AD_Sample();
  2510  031C  2339  118A         	fcall	_AD_Sample
  2511                           
  2512                           ;common.c: 107: if(4 == sampleChannelSelect)
  2513  031E  085B               	movf	_sampleChannelSelect,w
  2514  031F  3A04               	xorlw	4
  2515  0320  1D03               	skipz
  2516  0321  2B26               	goto	l3930
  2517                           
  2518                           ;common.c: 108: adc_test_init(4,3);
  2519  0322  3003               	movlw	3
  2520  0323  00D6               	movwf	?_adc_test_init
  2521  0324  3004               	movlw	4
  2522  0325  2B2F               	goto	L10
  2523  0326                     l3930:	
  2524                           
  2525                           ;common.c: 109: else if(1 == sampleChannelSelect)
  2526  0326  0B5B               	decfsz	_sampleChannelSelect,w
  2527  0327  2B2C               	goto	l3934
  2528                           
  2529                           ;common.c: 110: adc_test_init(1,3);
  2530  0328  3003               	movlw	3
  2531  0329  00D6               	movwf	?_adc_test_init
  2532  032A  3001               	movlw	1
  2533  032B  2B2F               	goto	L10
  2534  032C                     l3934:	
  2535                           
  2536                           ;common.c: 111: else
  2537                           ;common.c: 112: adc_test_init(14,3);
  2538  032C  3003               	movlw	3
  2539  032D  00D6               	movwf	?_adc_test_init
  2540  032E  300E               	movlw	14
  2541  032F                     L10:	
  2542  032F  23A1  118A         	fcall	_adc_test_init
  2543                           
  2544                           ;common.c: 114: adc_start();
  2545  0331  2BB6               	ljmp	l3742
  2546  0332                     __end_of_process_AD_Converter_Value:	
  2547  0332                     __ptext607:	
  2548 ;; =============== function _setAD_ConvertFlag ends ============
  2549                           
  2550                           
  2551 ;; *************** function _getAD_ConvertFlag *****************
  2552 ;; Defined at:
  2553 ;;		line 66 in file "C:\190604\AK7030-OTP\common.c"
  2554 ;; Parameters:    Size  Location     Type
  2555 ;;		None
  2556 ;; Auto vars:     Size  Location     Type
  2557 ;;		None
  2558 ;; Return value:  Size  Location     Type
  2559 ;;                  1    wreg      unsigned char 
  2560 ;; Registers used:
  2561 ;;		wreg
  2562 ;; Tracked objects:
  2563 ;;		On entry : 0/0
  2564 ;;		On exit  : 0/0
  2565 ;;		Unchanged: FFFFF/0
  2566 ;; Data sizes:     COMMON   BANK0   BANK1   BANK3   BANK2
  2567 ;;      Params:         0       0       0       0       0
  2568 ;;      Locals:         0       0       0       0       0
  2569 ;;      Temps:          0       0       0       0       0
  2570 ;;      Totals:         0       0       0       0       0
  2571 ;;Total ram usage:        0 bytes
  2572 ;; Hardware stack levels used:    1
  2573 ;; Hardware stack levels required when called:    2
  2574 ;; This function calls:
  2575 ;;		Nothing
  2576 ;; This function is called by:
  2577 ;;		_process_AD_Converter_Value
  2578 ;; This function uses a non-reentrant model
  2579 ;;
  2580  0332                     _getAD_ConvertFlag:	
  2581                           
  2582                           ;common.c: 67: return adc_convert_flag;
  2583                           
  2584                           ; Regs used in _getAD_ConvertFlag: [wreg]
  2585  0332  0879               	movf	_adc_convert_flag,w
  2586  0333  0008               	return
  2587  0334                     __end_of_getAD_ConvertFlag:	
  2588  0334                     __ptext606:	
  2589 ;; =============== function _getAdOriginalValue ends ============
  2590                           
  2591                           
  2592 ;; *************** function _setAD_ConvertFlag *****************
  2593 ;; Defined at:
  2594 ;;		line 72 in file "C:\190604\AK7030-OTP\common.c"
  2595 ;; Parameters:    Size  Location     Type
  2596 ;;  flag            1    wreg     unsigned char 
  2597 ;; Auto vars:     Size  Location     Type
  2598 ;;  flag            1    0[BANK0 ] unsigned char 
  2599 ;; Return value:  Size  Location     Type
  2600 ;;		None               void
  2601 ;; Registers used:
  2602 ;;		wreg
  2603 ;; Tracked objects:
  2604 ;;		On entry : 0/0
  2605 ;;		On exit  : 60/0
  2606 ;;		Unchanged: FFF9F/0
  2607 ;; Data sizes:     COMMON   BANK0   BANK1   BANK3   BANK2
  2608 ;;      Params:         0       0       0       0       0
  2609 ;;      Locals:         0       1       0       0       0
  2610 ;;      Temps:          0       0       0       0       0
  2611 ;;      Totals:         0       1       0       0       0
  2612 ;;Total ram usage:        1 bytes
  2613 ;; Hardware stack levels used:    1
  2614 ;; Hardware stack levels required when called:    2
  2615 ;; This function calls:
  2616 ;;		Nothing
  2617 ;; This function is called by:
  2618 ;;		_process_AD_Converter_Value
  2619 ;; This function uses a non-reentrant model
  2620 ;;
  2621  0334                     _setAD_ConvertFlag:	
  2622                           
  2623                           ; Regs used in _setAD_ConvertFlag: [wreg]
  2624                           ;setAD_ConvertFlag@flag stored from wreg
  2625  0334  1283               	bcf	3,5	;RP0=0, select bank0
  2626  0335  1303               	bcf	3,6	;RP1=0, select bank0
  2627  0336  00D6               	movwf	setAD_ConvertFlag@flag
  2628                           
  2629                           ;common.c: 73: adc_convert_flag = flag;
  2630  0337  00F9               	movwf	_adc_convert_flag
  2631  0338  0008               	return
  2632  0339                     __end_of_setAD_ConvertFlag:	
  2633  0339                     __ptext603:	
  2634 ;; =============== function _clearPinPortAndTimer ends ============
  2635                           
  2636                           
  2637 ;; *************** function _AD_Sample *****************
  2638 ;; Defined at:
  2639 ;;		line 128 in file "C:\190604\AK7030-OTP\common.c"
  2640 ;; Parameters:    Size  Location     Type
  2641 ;;		None
  2642 ;; Auto vars:     Size  Location     Type
  2643 ;;  index           1    4[BANK0 ] unsigned char 
  2644 ;; Return value:  Size  Location     Type
  2645 ;;		None               void
  2646 ;; Registers used:
  2647 ;;		wreg, fsr0l, fsr0h, status,2, status,0, pclath, cstack
  2648 ;; Tracked objects:
  2649 ;;		On entry : 60/0
  2650 ;;		On exit  : 60/0
  2651 ;;		Unchanged: FFE9F/0
  2652 ;; Data sizes:     COMMON   BANK0   BANK1   BANK3   BANK2
  2653 ;;      Params:         0       0       0       0       0
  2654 ;;      Locals:         0       1       0       0       0
  2655 ;;      Temps:          0       2       0       0       0
  2656 ;;      Totals:         0       3       0       0       0
  2657 ;;Total ram usage:        3 bytes
  2658 ;; Hardware stack levels used:    1
  2659 ;; Hardware stack levels required when called:    3
  2660 ;; This function calls:
  2661 ;;		_getAdOriginalValue
  2662 ;; This function is called by:
  2663 ;;		_process_AD_Converter_Value
  2664 ;; This function uses a non-reentrant model
  2665 ;;
  2666  0339                     _AD_Sample:	
  2667                           
  2668                           ;common.c: 129: if(sampleTimes < 6)
  2669                           
  2670                           ; Regs used in _AD_Sample: [wreg-fsr0h+status,2+status,0+pclath+cstack]
  2671  0339  3006               	movlw	6
  2672  033A  023C               	subwf	_sampleTimes,w
  2673  033B  1803               	skipnc
  2674  033C  0008               	return
  2675                           
  2676                           ;common.c: 130: {
  2677                           ;common.c: 132: buffer_Sample_AD_Value[sampleTimes] = getAdOriginalValue();
  2678  033D  239C  118A         	fcall	_getAdOriginalValue
  2679  033F  1003               	clrc
  2680  0340  0D3C               	rlf	_sampleTimes,w
  2681  0341  3E20               	addlw	_buffer_Sample_AD_Value& (0+255)
  2682  0342  0084               	movwf	4
  2683  0343  0856               	movf	?_getAdOriginalValue,w
  2684  0344  1383               	bcf	3,7	;select IRP bank0
  2685  0345  0080               	movwf	0
  2686  0346  0A84               	incf	4,f
  2687  0347  0857               	movf	?_getAdOriginalValue+1,w
  2688  0348  0080               	movwf	0
  2689                           
  2690                           ;common.c: 134: if(sampleTimes == 0)
  2691  0349  08BC               	movf	_sampleTimes,f
  2692  034A  1D03               	skipz
  2693  034B  2B54               	goto	l3878
  2694                           
  2695                           ;common.c: 135: {
  2696                           ;common.c: 136: multiFilterMaxValue = buffer_Sample_AD_Value[0];
  2697  034C  0821               	movf	_buffer_Sample_AD_Value+1,w
  2698  034D  00B5               	movwf	_multiFilterMaxValue+1
  2699  034E  0820               	movf	_buffer_Sample_AD_Value,w
  2700  034F  00B4               	movwf	_multiFilterMaxValue
  2701                           
  2702                           ;common.c: 137: multiFilterMinValue = buffer_Sample_AD_Value[0];
  2703  0350  0821               	movf	_buffer_Sample_AD_Value+1,w
  2704  0351  00B7               	movwf	_multiFilterMinValue+1
  2705  0352  0820               	movf	_buffer_Sample_AD_Value,w
  2706  0353  00B6               	movwf	_multiFilterMinValue
  2707  0354                     l3878:	
  2708                           
  2709                           ;common.c: 138: }
  2710                           ;common.c: 140: if(multiFilterMaxValue < buffer_Sample_AD_Value[sampleTimes])
  2711  0354  23B9  118A         	fcall	PL2	;call to abstracted procedure
  2712  0356  0235               	subwf	_multiFilterMaxValue+1,w
  2713  0357  1D03               	skipz
  2714  0358  2B5B               	goto	u955
  2715  0359  0858               	movf	??_AD_Sample,w
  2716  035A  0234               	subwf	_multiFilterMaxValue,w
  2717  035B                     u955:	
  2718  035B  1803               	skipnc
  2719  035C  2B66               	goto	l1643
  2720                           
  2721                           ;common.c: 141: {
  2722                           ;common.c: 142: multiFilterMaxValue = buffer_Sample_AD_Value[sampleTimes];
  2723  035D  1003               	clrc
  2724  035E  0D3C               	rlf	_sampleTimes,w
  2725  035F  3E20               	addlw	_buffer_Sample_AD_Value& (0+255)
  2726  0360  0084               	movwf	4
  2727  0361  0800               	movf	0,w
  2728  0362  00B4               	movwf	_multiFilterMaxValue
  2729  0363  0A84               	incf	4,f
  2730  0364  0800               	movf	0,w
  2731  0365  00B5               	movwf	_multiFilterMaxValue+1
  2732  0366                     l1643:	
  2733                           
  2734                           ;common.c: 143: }
  2735                           ;common.c: 144: if(multiFilterMinValue > buffer_Sample_AD_Value[sampleTimes])
  2736  0366  23B9  118A         	fcall	PL2	;call to abstracted procedure
  2737  0368  0837               	movf	_multiFilterMinValue+1,w
  2738  0369  0259               	subwf	??_AD_Sample+1,w
  2739  036A  1D03               	skipz
  2740  036B  2B6E               	goto	u965
  2741  036C  0836               	movf	_multiFilterMinValue,w
  2742  036D  0258               	subwf	??_AD_Sample,w
  2743  036E                     u965:	
  2744  036E  1803               	skipnc
  2745  036F  2B79               	goto	l3884
  2746                           
  2747                           ;common.c: 145: {
  2748                           ;common.c: 146: multiFilterMinValue = buffer_Sample_AD_Value[sampleTimes];
  2749  0370  1003               	clrc
  2750  0371  0D3C               	rlf	_sampleTimes,w
  2751  0372  3E20               	addlw	_buffer_Sample_AD_Value& (0+255)
  2752  0373  0084               	movwf	4
  2753  0374  0800               	movf	0,w
  2754  0375  00B6               	movwf	_multiFilterMinValue
  2755  0376  0A84               	incf	4,f
  2756  0377  0800               	movf	0,w
  2757  0378  00B7               	movwf	_multiFilterMinValue+1
  2758  0379                     l3884:	
  2759  0379  3006               	movlw	6
  2760                           
  2761                           ;common.c: 151: sampleTimes++;
  2762  037A  0ABC               	incf	_sampleTimes,f
  2763                           
  2764                           ;common.c: 153: if(sampleTimes >= 6)
  2765  037B  023C               	subwf	_sampleTimes,w
  2766  037C  1C03               	skipc
  2767  037D  0008               	return
  2768                           
  2769                           ;common.c: 154: {
  2770                           ;common.c: 155: sampleTimes = 0;
  2771  037E  01BC               	clrf	_sampleTimes
  2772                           
  2773                           ;common.c: 158: {
  2774                           ;common.c: 160: sampleCH14Value = ((multiFilterSumValue - multiFilterMaxValue - multiFil
      +                          terMinValue))>> 2;
  2775  037F  085B               	movf	_sampleChannelSelect,w
  2776  0380  3A0E               	xorlw	14
  2777  0381  1D03               	skipz
  2778  0382  2B85               	goto	l3894
  2779                           
  2780                           ;common.c: 161: sampleChannelSelect = 4;
  2781  0383  3004               	movlw	4
  2782  0384  2B8D               	goto	L11
  2783  0385                     l3894:	
  2784                           ;common.c: 162: }
  2785                           
  2786                           
  2787                           ;common.c: 164: {
  2788                           ;common.c: 165: sampleCH4Value = ((multiFilterSumValue - multiFilterMaxValue - multiFilt
      +                          erMinValue))>> 2;
  2789  0385  085B               	movf	_sampleChannelSelect,w
  2790  0386  3A04               	xorlw	4
  2791  0387  1D03               	skipz
  2792  0388  2B8C               	goto	l3900
  2793                           
  2794                           ;common.c: 166: sampleChannelSelect = 1;
  2795  0389  01DB               	clrf	_sampleChannelSelect
  2796  038A  0ADB               	incf	_sampleChannelSelect,f
  2797                           
  2798                           ;common.c: 167: }
  2799  038B  2B8E               	goto	l3904
  2800  038C                     l3900:	
  2801                           
  2802                           ;common.c: 171: sampleChannelSelect = 14;
  2803  038C  300E               	movlw	14
  2804  038D                     L11:	
  2805  038D  00DB               	movwf	_sampleChannelSelect
  2806  038E                     l3904:	
  2807                           ;common.c: 172: }
  2808                           
  2809                           
  2810                           ;common.c: 177: }
  2811                           ;common.c: 179: for(unsigned char index = 0; index < 6;index++)
  2812  038E  01DA               	clrf	AD_Sample@index
  2813  038F                     l3910:	
  2814                           
  2815                           ;common.c: 180: buffer_Sample_AD_Value[index] = 0;
  2816  038F  1003               	clrc
  2817  0390  0D5A               	rlf	AD_Sample@index,w
  2818  0391  3E20               	addlw	_buffer_Sample_AD_Value& (0+255)
  2819  0392  0084               	movwf	4
  2820  0393  3006               	movlw	6
  2821  0394  0180               	clrf	0
  2822  0395  0A84               	incf	4,f
  2823  0396  0180               	clrf	0
  2824  0397  0ADA               	incf	AD_Sample@index,f
  2825  0398  025A               	subwf	AD_Sample@index,w
  2826  0399  1803               	btfsc	3,0
  2827  039A  0008               	return
  2828  039B  2B8F               	goto	l3910
  2829  039C                     __end_of_AD_Sample:	
  2830  039C                     __ptext605:	
  2831 ;; =============== function _clearAllTimer ends ============
  2832                           
  2833                           
  2834 ;; *************** function _getAdOriginalValue *****************
  2835 ;; Defined at:
  2836 ;;		line 78 in file "C:\190604\AK7030-OTP\common.c"
  2837 ;; Parameters:    Size  Location     Type
  2838 ;;		None
  2839 ;; Auto vars:     Size  Location     Type
  2840 ;;		None
  2841 ;; Return value:  Size  Location     Type
  2842 ;;                  2    0[BANK0 ] unsigned int 
  2843 ;; Registers used:
  2844 ;;		wreg
  2845 ;; Tracked objects:
  2846 ;;		On entry : 60/0
  2847 ;;		On exit  : 60/0
  2848 ;;		Unchanged: FFF9F/0
  2849 ;; Data sizes:     COMMON   BANK0   BANK1   BANK3   BANK2
  2850 ;;      Params:         0       2       0       0       0
  2851 ;;      Locals:         0       0       0       0       0
  2852 ;;      Temps:          0       0       0       0       0
  2853 ;;      Totals:         0       2       0       0       0
  2854 ;;Total ram usage:        2 bytes
  2855 ;; Hardware stack levels used:    1
  2856 ;; Hardware stack levels required when called:    2
  2857 ;; This function calls:
  2858 ;;		Nothing
  2859 ;; This function is called by:
  2860 ;;		_AD_Sample
  2861 ;; This function uses a non-reentrant model
  2862 ;;
  2863  039C                     _getAdOriginalValue:	
  2864                           
  2865                           ;common.c: 79: return adc_original_value;
  2866                           
  2867                           ; Regs used in _getAdOriginalValue: [wreg]
  2868  039C  0833               	movf	_adc_original_value+1,w
  2869  039D  00D7               	movwf	?_getAdOriginalValue+1
  2870  039E  0832               	movf	_adc_original_value,w
  2871  039F  00D6               	movwf	?_getAdOriginalValue
  2872  03A0  0008               	return
  2873  03A1                     __end_of_getAdOriginalValue:	
  2874  03A1                     __ptext623:	
  2875 ;; =============== function _dac_init ends ============
  2876                           
  2877                           
  2878 ;; *************** function _adc_test_init *****************
  2879 ;; Defined at:
  2880 ;;		line 85 in file "C:\190604\AK7030-OTP\periph.c"
  2881 ;; Parameters:    Size  Location     Type
  2882 ;;  channel         1    wreg     unsigned char 
  2883 ;;  ref             1    0[BANK0 ] unsigned char 
  2884 ;; Auto vars:     Size  Location     Type
  2885 ;;  channel         1    2[BANK0 ] unsigned char 
  2886 ;; Return value:  Size  Location     Type
  2887 ;;		None               void
  2888 ;; Registers used:
  2889 ;;		wreg, status,2, status,0
  2890 ;; Tracked objects:
  2891 ;;		On entry : 60/0
  2892 ;;		On exit  : 60/20
  2893 ;;		Unchanged: FFF9F/0
  2894 ;; Data sizes:     COMMON   BANK0   BANK1   BANK3   BANK2
  2895 ;;      Params:         0       1       0       0       0
  2896 ;;      Locals:         0       1       0       0       0
  2897 ;;      Temps:          0       1       0       0       0
  2898 ;;      Totals:         0       3       0       0       0
  2899 ;;Total ram usage:        3 bytes
  2900 ;; Hardware stack levels used:    1
  2901 ;; Hardware stack levels required when called:    2
  2902 ;; This function calls:
  2903 ;;		Nothing
  2904 ;; This function is called by:
  2905 ;;		_main
  2906 ;;		_process_AD_Converter_Value
  2907 ;; This function uses a non-reentrant model
  2908 ;;
  2909  03A1                     _adc_test_init:	
  2910                           
  2911                           ; Regs used in _adc_test_init: [wreg+status,2+status,0]
  2912                           ;adc_test_init@channel stored from wreg
  2913  03A1  00D8               	movwf	adc_test_init@channel
  2914                           
  2915                           ;periph.c: 86: ADCON0 = 0x00;
  2916  03A2  019F               	clrf	31	;volatile
  2917                           
  2918                           ;periph.c: 87: ADCON0|=channel<<2;
  2919  03A3  00D7               	movwf	??_adc_test_init
  2920  03A4  1003               	clrc
  2921  03A5  0DD7               	rlf	??_adc_test_init,f
  2922  03A6  1003               	clrc
  2923  03A7  0D57               	rlf	??_adc_test_init,w
  2924  03A8  049F               	iorwf	31,f	;volatile
  2925                           
  2926                           ;periph.c: 88: ADCON1|=ref<<6;
  2927  03A9  0856               	movf	adc_test_init@ref,w
  2928  03AA  00D7               	movwf	??_adc_test_init
  2929  03AB  0CD7               	rrf	??_adc_test_init,f
  2930  03AC  0CD7               	rrf	??_adc_test_init,f
  2931  03AD  0C57               	rrf	??_adc_test_init,w
  2932  03AE  39C0               	andlw	192
  2933  03AF  1683               	bsf	3,5	;RP0=1, select bank1
  2934  03B0  049F               	iorwf	31,f	;volatile
  2935                           
  2936                           ;periph.c: 89: ADON=1;
  2937  03B1  1283               	bcf	3,5	;RP0=0, select bank0
  2938  03B2  141F               	bsf	31,0
  2939                           
  2940                           ;periph.c: 90: ADIE=1;
  2941  03B3  1683               	bsf	3,5	;RP0=1, select bank1
  2942  03B4  150D               	bsf	13,2
  2943  03B5  0008               	return
  2944  03B6                     __end_of_adc_test_init:	
  2945  03B6                     __ptext619:	
  2946 ;; =============== function _isPermitSampleTime ends ============
  2947                           
  2948                           
  2949 ;; *************** function _adc_start *****************
  2950 ;; Defined at:
  2951 ;;		line 100 in file "C:\190604\AK7030-OTP\periph.c"
  2952 ;; Parameters:    Size  Location     Type
  2953 ;;		None
  2954 ;; Auto vars:     Size  Location     Type
  2955 ;;		None
  2956 ;; Return value:  Size  Location     Type
  2957 ;;		None               void
  2958 ;; Registers used:
  2959 ;;		None
  2960 ;; Tracked objects:
  2961 ;;		On entry : 60/20
  2962 ;;		On exit  : 60/0
  2963 ;;		Unchanged: FFF9F/0
  2964 ;; Data sizes:     COMMON   BANK0   BANK1   BANK3   BANK2
  2965 ;;      Params:         0       0       0       0       0
  2966 ;;      Locals:         0       0       0       0       0
  2967 ;;      Temps:          0       0       0       0       0
  2968 ;;      Totals:         0       0       0       0       0
  2969 ;;Total ram usage:        0 bytes
  2970 ;; Hardware stack levels used:    1
  2971 ;; Hardware stack levels required when called:    2
  2972 ;; This function calls:
  2973 ;;		Nothing
  2974 ;; This function is called by:
  2975 ;;		_main
  2976 ;;		_process_AD_Converter_Value
  2977 ;; This function uses a non-reentrant model
  2978 ;;
  2979  03B6                     _adc_start:	
  2980  03B6                     l3742:	
  2981                           ; Regs used in _adc_start: []
  2982                           
  2983                           
  2984                           ;periph.c: 101: GO=1;
  2985  03B6  1283               	bcf	3,5	;RP0=0, select bank0
  2986  03B7  149F               	bsf	31,1
  2987  03B8  0008               	return
  2988  03B9                     __end_of_adc_start:	
  2989  03B9                     PL2:	
  2990  03B9  1003               	clrc
  2991  03BA  0D3C               	rlf	_sampleTimes,w
  2992  03BB  3E20               	addlw	_buffer_Sample_AD_Value& (0+255)
  2993  03BC  0084               	movwf	4
  2994  03BD  0800               	movf	0,w
  2995  03BE  00D8               	movwf	??_AD_Sample
  2996  03BF  0A84               	incf	4,f
  2997  03C0  0800               	movf	0,w
  2998  03C1  00D9               	movwf	??_AD_Sample+1
  2999  03C2  0008               	return
  3000                           
  3001                           	psect	text602
  3002  042B                     __ptext602:	
  3003 ;; =============== function _process_AD_Converter_Value ends ============
  3004                           
  3005                           
  3006 ;; *************** function _clearPinPortAndTimer *****************
  3007 ;; Defined at:
  3008 ;;		line 92 in file "C:\190604\AK7030-OTP\main.c"
  3009 ;; Parameters:    Size  Location     Type
  3010 ;;		None
  3011 ;; Auto vars:     Size  Location     Type
  3012 ;;		None
  3013 ;; Return value:  Size  Location     Type
  3014 ;;		None               void
  3015 ;; Registers used:
  3016 ;;		status,2, status,0, pclath, cstack
  3017 ;; Tracked objects:
  3018 ;;		On entry : 60/0
  3019 ;;		On exit  : 60/0
  3020 ;;		Unchanged: FFF9F/0
  3021 ;; Data sizes:     COMMON   BANK0   BANK1   BANK3   BANK2
  3022 ;;      Params:         0       0       0       0       0
  3023 ;;      Locals:         0       0       0       0       0
  3024 ;;      Temps:          0       0       0       0       0
  3025 ;;      Totals:         0       0       0       0       0
  3026 ;;Total ram usage:        0 bytes
  3027 ;; Hardware stack levels used:    1
  3028 ;; Hardware stack levels required when called:    4
  3029 ;; This function calls:
  3030 ;;		_clearAllTimer
  3031 ;; This function is called by:
  3032 ;;		_main
  3033 ;; This function uses a non-reentrant model
  3034 ;;
  3035  042B                     _clearPinPortAndTimer:	
  3036                           
  3037                           ;main.c: 93: PB0 = 0;
  3038                           
  3039                           ; Regs used in _clearPinPortAndTimer: [status,2+status,0+pclath+cstack]
  3040  042B  1006               	bcf	6,0
  3041                           
  3042                           ;main.c: 94: PA0 = 0;
  3043  042C  1005               	bcf	5,0
  3044                           
  3045                           ;main.c: 95: PA1 = 0;
  3046  042D  1085               	bcf	5,1
  3047                           
  3048                           ;main.c: 96: PA2 = 0;
  3049  042E  1105               	bcf	5,2
  3050                           
  3051                           ;main.c: 97: PA3 = 0;
  3052  042F  1185               	bcf	5,3
  3053                           
  3054                           ;main.c: 98: PAOD7 = 0;
  3055  0430  1683               	bsf	3,5	;RP0=1, select bank3
  3056  0431  1703               	bsf	3,6	;RP1=1, select bank3
  3057  0432  1387               	bcf	7,7
  3058                           
  3059                           ;main.c: 99: PA7 = 0;
  3060  0433  1283               	bcf	3,5	;RP0=0, select bank0
  3061  0434  1303               	bcf	3,6	;RP1=0, select bank0
  3062  0435  1385               	bcf	5,7
  3063                           
  3064                           ;main.c: 100: clearAllTimer();
  3065  0436  2C37               	ljmp	l3868
  3066  0437                     __end_of_clearPinPortAndTimer:	
  3067  0437                     __ptext604:	
  3068 ;; =============== function _AD_Sample ends ============
  3069                           
  3070                           
  3071 ;; *************** function _clearAllTimer *****************
  3072 ;; Defined at:
  3073 ;;		line 83 in file "C:\190604\AK7030-OTP\main.c"
  3074 ;; Parameters:    Size  Location     Type
  3075 ;;		None
  3076 ;; Auto vars:     Size  Location     Type
  3077 ;;		None
  3078 ;; Return value:  Size  Location     Type
  3079 ;;		None               void
  3080 ;; Registers used:
  3081 ;;		status,2, status,0, pclath, cstack
  3082 ;; Tracked objects:
  3083 ;;		On entry : 60/0
  3084 ;;		On exit  : 60/0
  3085 ;;		Unchanged: FFF9F/0
  3086 ;; Data sizes:     COMMON   BANK0   BANK1   BANK3   BANK2
  3087 ;;      Params:         0       0       0       0       0
  3088 ;;      Locals:         0       0       0       0       0
  3089 ;;      Temps:          0       0       0       0       0
  3090 ;;      Totals:         0       0       0       0       0
  3091 ;;Total ram usage:        0 bytes
  3092 ;; Hardware stack levels used:    1
  3093 ;; Hardware stack levels required when called:    3
  3094 ;; This function calls:
  3095 ;;		_clearTwelveHoursTimer
  3096 ;;		_clearThreeHoursTimer
  3097 ;;		_clearTwentySecondsTimer
  3098 ;; This function is called by:
  3099 ;;		_clearPinPortAndTimer
  3100 ;;		_main
  3101 ;; This function uses a non-reentrant model
  3102 ;;
  3103  0437                     _clearAllTimer:	
  3104  0437                     l3868:	
  3105                           ; Regs used in _clearAllTimer: [status,2+status,0+pclath+cstack]
  3106                           
  3107                           
  3108                           ;main.c: 84: clearTwelveHoursTimer();
  3109  0437  243C  118A         	fcall	_clearTwelveHoursTimer
  3110                           
  3111                           ;main.c: 85: clearThreeHoursTimer();
  3112  0439  243F  118A         	fcall	_clearThreeHoursTimer
  3113                           
  3114                           ;main.c: 86: clearTwentySecondsTimer();
  3115  043B  2C42               	ljmp	l3700
  3116  043C                     __end_of_clearAllTimer:	
  3117  043C                     __ptext630:	
  3118 ;; =============== function _clearThreeHoursTimer ends ============
  3119                           
  3120                           
  3121 ;; *************** function _clearTwelveHoursTimer *****************
  3122 ;; Defined at:
  3123 ;;		line 216 in file "C:\190604\AK7030-OTP\common.c"
  3124 ;; Parameters:    Size  Location     Type
  3125 ;;		None
  3126 ;; Auto vars:     Size  Location     Type
  3127 ;;		None
  3128 ;; Return value:  Size  Location     Type
  3129 ;;		None               void
  3130 ;; Registers used:
  3131 ;;		status,2
  3132 ;; Tracked objects:
  3133 ;;		On entry : 60/0
  3134 ;;		On exit  : 60/0
  3135 ;;		Unchanged: FFF9F/0
  3136 ;; Data sizes:     COMMON   BANK0   BANK1   BANK3   BANK2
  3137 ;;      Params:         0       0       0       0       0
  3138 ;;      Locals:         0       0       0       0       0
  3139 ;;      Temps:          0       0       0       0       0
  3140 ;;      Totals:         0       0       0       0       0
  3141 ;;Total ram usage:        0 bytes
  3142 ;; Hardware stack levels used:    1
  3143 ;; Hardware stack levels required when called:    2
  3144 ;; This function calls:
  3145 ;;		Nothing
  3146 ;; This function is called by:
  3147 ;;		_clearAllTimer
  3148 ;; This function uses a non-reentrant model
  3149 ;;
  3150  043C                     _clearTwelveHoursTimer:	
  3151                           
  3152                           ;common.c: 217: uiBigTimer = 0;
  3153                           
  3154                           ; Regs used in _clearTwelveHoursTimer: [status,2]
  3155  043C  01B8               	clrf	_uiBigTimer
  3156  043D  01B9               	clrf	_uiBigTimer+1
  3157  043E  0008               	return
  3158  043F                     __end_of_clearTwelveHoursTimer:	
  3159  043F                     __ptext629:	
  3160 ;; =============== function _clearTwentySecondsTimer ends ============
  3161                           
  3162                           
  3163 ;; *************** function _clearThreeHoursTimer *****************
  3164 ;; Defined at:
  3165 ;;		line 222 in file "C:\190604\AK7030-OTP\common.c"
  3166 ;; Parameters:    Size  Location     Type
  3167 ;;		None
  3168 ;; Auto vars:     Size  Location     Type
  3169 ;;		None
  3170 ;; Return value:  Size  Location     Type
  3171 ;;		None               void
  3172 ;; Registers used:
  3173 ;;		status,2
  3174 ;; Tracked objects:
  3175 ;;		On entry : 60/0
  3176 ;;		On exit  : 60/0
  3177 ;;		Unchanged: FFF9F/0
  3178 ;; Data sizes:     COMMON   BANK0   BANK1   BANK3   BANK2
  3179 ;;      Params:         0       0       0       0       0
  3180 ;;      Locals:         0       0       0       0       0
  3181 ;;      Temps:          0       0       0       0       0
  3182 ;;      Totals:         0       0       0       0       0
  3183 ;;Total ram usage:        0 bytes
  3184 ;; Hardware stack levels used:    1
  3185 ;; Hardware stack levels required when called:    2
  3186 ;; This function calls:
  3187 ;;		Nothing
  3188 ;; This function is called by:
  3189 ;;		_clearAllTimer
  3190 ;;		_main
  3191 ;; This function uses a non-reentrant model
  3192 ;;
  3193  043F                     _clearThreeHoursTimer:	
  3194                           
  3195                           ;common.c: 223: uiSmallTimer = 0;
  3196                           
  3197                           ; Regs used in _clearThreeHoursTimer: [status,2]
  3198  043F  01BA               	clrf	_uiSmallTimer
  3199  0440  01BB               	clrf	_uiSmallTimer+1
  3200  0441  0008               	return
  3201  0442                     __end_of_clearThreeHoursTimer:	
  3202  0442                     __ptext628:	
  3203 ;; =============== function _initPin ends ============
  3204                           
  3205                           
  3206 ;; *************** function _clearTwentySecondsTimer *****************
  3207 ;; Defined at:
  3208 ;;		line 227 in file "C:\190604\AK7030-OTP\common.c"
  3209 ;; Parameters:    Size  Location     Type
  3210 ;;		None
  3211 ;; Auto vars:     Size  Location     Type
  3212 ;;		None
  3213 ;; Return value:  Size  Location     Type
  3214 ;;		None               void
  3215 ;; Registers used:
  3216 ;;		status,2
  3217 ;; Tracked objects:
  3218 ;;		On entry : 60/0
  3219 ;;		On exit  : 60/0
  3220 ;;		Unchanged: FFF9F/0
  3221 ;; Data sizes:     COMMON   BANK0   BANK1   BANK3   BANK2
  3222 ;;      Params:         0       0       0       0       0
  3223 ;;      Locals:         0       0       0       0       0
  3224 ;;      Temps:          0       0       0       0       0
  3225 ;;      Totals:         0       0       0       0       0
  3226 ;;Total ram usage:        0 bytes
  3227 ;; Hardware stack levels used:    1
  3228 ;; Hardware stack levels required when called:    2
  3229 ;; This function calls:
  3230 ;;		Nothing
  3231 ;; This function is called by:
  3232 ;;		_clearAllTimer
  3233 ;; This function uses a non-reentrant model
  3234 ;;
  3235  0442                     _clearTwentySecondsTimer:	
  3236  0442                     l3700:	
  3237                           ; Regs used in _clearTwentySecondsTimer: [status,2]
  3238                           
  3239                           
  3240                           ;common.c: 228: uiTwentySecondsTimer = 0;
  3241  0442  01F6               	clrf	_uiTwentySecondsTimer
  3242  0443  01F7               	clrf	_uiTwentySecondsTimer+1
  3243  0444  0008               	return
  3244  0445                     __end_of_clearTwentySecondsTimer:	
  3245                           
  3246                           	psect	text608
  3247  04CF                     __ptext608:	
  3248 ;; =============== function _getAD_ConvertFlag ends ============
  3249                           
  3250                           
  3251 ;; *************** function _isFinishedThreeHoursTimer *****************
  3252 ;; Defined at:
  3253 ;;		line 267 in file "C:\190604\AK7030-OTP\common.c"
  3254 ;; Parameters:    Size  Location     Type
  3255 ;;		None
  3256 ;; Auto vars:     Size  Location     Type
  3257 ;;		None
  3258 ;; Return value:  Size  Location     Type
  3259 ;;                  1    wreg      unsigned char 
  3260 ;; Registers used:
  3261 ;;		wreg, status,2, status,0
  3262 ;; Tracked objects:
  3263 ;;		On entry : 60/0
  3264 ;;		On exit  : 60/0
  3265 ;;		Unchanged: FFF9F/0
  3266 ;; Data sizes:     COMMON   BANK0   BANK1   BANK3   BANK2
  3267 ;;      Params:         0       0       0       0       0
  3268 ;;      Locals:         0       0       0       0       0
  3269 ;;      Temps:          0       0       0       0       0
  3270 ;;      Totals:         0       0       0       0       0
  3271 ;;Total ram usage:        0 bytes
  3272 ;; Hardware stack levels used:    1
  3273 ;; Hardware stack levels required when called:    2
  3274 ;; This function calls:
  3275 ;;		Nothing
  3276 ;; This function is called by:
  3277 ;;		_main
  3278 ;; This function uses a non-reentrant model
  3279 ;;
  3280  04CF                     _isFinishedThreeHoursTimer:	
  3281                           
  3282                           ;common.c: 268: if(uiSmallTimer == 0)
  3283                           
  3284                           ; Regs used in _isFinishedThreeHoursTimer: [wreg+status,2+status,0]
  3285  04CF  083B               	movf	_uiSmallTimer+1,w
  3286  04D0  043A               	iorwf	_uiSmallTimer,w
  3287  04D1  1903               	btfsc	3,2
  3288                           
  3289                           ;common.c: 269: return 1;
  3290  04D2  3401               	retlw	1
  3291                           
  3292                           ;common.c: 270: else
  3293                           ;common.c: 271: return 0;
  3294  04D3  3400               	retlw	0
  3295  04D4                     __end_of_isFinishedThreeHoursTimer:	
  3296                           
  3297                           	psect	text609
  3298  04A5                     __ptext609:	
  3299 ;; =============== function _isFinishedThreeHoursTimer ends ============
  3300                           
  3301                           
  3302 ;; *************** function _startThreeHoursTimer *****************
  3303 ;; Defined at:
  3304 ;;		line 233 in file "C:\190604\AK7030-OTP\common.c"
  3305 ;; Parameters:    Size  Location     Type
  3306 ;;  uiSetTime       2    0[BANK0 ] unsigned int 
  3307 ;; Auto vars:     Size  Location     Type
  3308 ;;		None
  3309 ;; Return value:  Size  Location     Type
  3310 ;;		None               void
  3311 ;; Registers used:
  3312 ;;		wreg, status,2, status,0
  3313 ;; Tracked objects:
  3314 ;;		On entry : 60/0
  3315 ;;		On exit  : 60/0
  3316 ;;		Unchanged: FFF9F/0
  3317 ;; Data sizes:     COMMON   BANK0   BANK1   BANK3   BANK2
  3318 ;;      Params:         0       2       0       0       0
  3319 ;;      Locals:         0       0       0       0       0
  3320 ;;      Temps:          0       0       0       0       0
  3321 ;;      Totals:         0       2       0       0       0
  3322 ;;Total ram usage:        2 bytes
  3323 ;; Hardware stack levels used:    1
  3324 ;; Hardware stack levels required when called:    2
  3325 ;; This function calls:
  3326 ;;		Nothing
  3327 ;; This function is called by:
  3328 ;;		_main
  3329 ;; This function uses a non-reentrant model
  3330 ;;
  3331  04A5                     _startThreeHoursTimer:	
  3332                           
  3333                           ;common.c: 234: if(0 == uiSmallTimer)
  3334                           
  3335                           ; Regs used in _startThreeHoursTimer: [wreg+status,2+status,0]
  3336  04A5  083B               	movf	_uiSmallTimer+1,w
  3337  04A6  043A               	iorwf	_uiSmallTimer,w
  3338  04A7  1D03               	skipz
  3339  04A8  0008               	return
  3340                           
  3341                           ;common.c: 235: uiSmallTimer = uiSetTime;
  3342  04A9  0857               	movf	startThreeHoursTimer@uiSetTime+1,w
  3343  04AA  00BB               	movwf	_uiSmallTimer+1
  3344  04AB  0856               	movf	startThreeHoursTimer@uiSetTime,w
  3345  04AC  00BA               	movwf	_uiSmallTimer
  3346  04AD  0008               	return
  3347  04AE                     __end_of_startThreeHoursTimer:	
  3348                           
  3349                           	psect	text610
  3350  04D4                     __ptext610:	
  3351 ;; =============== function _startThreeHoursTimer ends ============
  3352                           
  3353                           
  3354 ;; *************** function _isFinishedTwentySecondsTimer *****************
  3355 ;; Defined at:
  3356 ;;		line 250 in file "C:\190604\AK7030-OTP\common.c"
  3357 ;; Parameters:    Size  Location     Type
  3358 ;;		None
  3359 ;; Auto vars:     Size  Location     Type
  3360 ;;		None
  3361 ;; Return value:  Size  Location     Type
  3362 ;;                  1    wreg      unsigned char 
  3363 ;; Registers used:
  3364 ;;		wreg, status,2, status,0
  3365 ;; Tracked objects:
  3366 ;;		On entry : 60/0
  3367 ;;		On exit  : 60/0
  3368 ;;		Unchanged: FFF9F/0
  3369 ;; Data sizes:     COMMON   BANK0   BANK1   BANK3   BANK2
  3370 ;;      Params:         0       0       0       0       0
  3371 ;;      Locals:         0       0       0       0       0
  3372 ;;      Temps:          0       0       0       0       0
  3373 ;;      Totals:         0       0       0       0       0
  3374 ;;Total ram usage:        0 bytes
  3375 ;; Hardware stack levels used:    1
  3376 ;; Hardware stack levels required when called:    2
  3377 ;; This function calls:
  3378 ;;		Nothing
  3379 ;; This function is called by:
  3380 ;;		_main
  3381 ;; This function uses a non-reentrant model
  3382 ;;
  3383  04D4                     _isFinishedTwentySecondsTimer:	
  3384                           
  3385                           ;common.c: 251: if(0 == uiTwentySecondsTimer)
  3386                           
  3387                           ; Regs used in _isFinishedTwentySecondsTimer: [wreg+status,2+status,0]
  3388  04D4  0877               	movf	_uiTwentySecondsTimer+1,w
  3389  04D5  0476               	iorwf	_uiTwentySecondsTimer,w
  3390  04D6  1903               	btfsc	3,2
  3391                           
  3392                           ;common.c: 252: return 1;
  3393  04D7  3401               	retlw	1
  3394                           
  3395                           ;common.c: 253: else
  3396                           ;common.c: 254: return 0;
  3397  04D8  3400               	retlw	0
  3398  04D9                     __end_of_isFinishedTwentySecondsTimer:	
  3399                           
  3400                           	psect	text611
  3401  04D9                     __ptext611:	
  3402 ;; =============== function _isFinishedTwentySecondsTimer ends ============
  3403                           
  3404                           
  3405 ;; *************** function _getAdOriginaCh4Value *****************
  3406 ;; Defined at:
  3407 ;;		line 89 in file "C:\190604\AK7030-OTP\common.c"
  3408 ;; Parameters:    Size  Location     Type
  3409 ;;		None
  3410 ;; Auto vars:     Size  Location     Type
  3411 ;;		None
  3412 ;; Return value:  Size  Location     Type
  3413 ;;                  2    0[BANK0 ] unsigned int 
  3414 ;; Registers used:
  3415 ;;		wreg
  3416 ;; Tracked objects:
  3417 ;;		On entry : 60/0
  3418 ;;		On exit  : 60/0
  3419 ;;		Unchanged: FFF9F/0
  3420 ;; Data sizes:     COMMON   BANK0   BANK1   BANK3   BANK2
  3421 ;;      Params:         0       2       0       0       0
  3422 ;;      Locals:         0       0       0       0       0
  3423 ;;      Temps:          0       0       0       0       0
  3424 ;;      Totals:         0       2       0       0       0
  3425 ;;Total ram usage:        2 bytes
  3426 ;; Hardware stack levels used:    1
  3427 ;; Hardware stack levels required when called:    2
  3428 ;; This function calls:
  3429 ;;		Nothing
  3430 ;; This function is called by:
  3431 ;;		_main
  3432 ;; This function uses a non-reentrant model
  3433 ;;
  3434  04D9                     _getAdOriginaCh4Value:	
  3435                           
  3436                           ;common.c: 90: return adc_original_CH4_value;
  3437                           
  3438                           ; Regs used in _getAdOriginaCh4Value: [wreg]
  3439  04D9  0831               	movf	_adc_original_CH4_value+1,w
  3440  04DA  00D7               	movwf	?_getAdOriginaCh4Value+1
  3441  04DB  0830               	movf	_adc_original_CH4_value,w
  3442  04DC  00D6               	movwf	?_getAdOriginaCh4Value
  3443  04DD  0008               	return
  3444  04DE                     __end_of_getAdOriginaCh4Value:	
  3445                           
  3446                           	psect	text612
  3447  04F7                     __ptext612:	
  3448 ;; =============== function _getAdOriginaCh4Value ends ============
  3449                           
  3450                           
  3451 ;; *************** function _startTwentySecondsTimer *****************
  3452 ;; Defined at:
  3453 ;;		line 244 in file "C:\190604\AK7030-OTP\common.c"
  3454 ;; Parameters:    Size  Location     Type
  3455 ;;		None
  3456 ;; Auto vars:     Size  Location     Type
  3457 ;;		None
  3458 ;; Return value:  Size  Location     Type
  3459 ;;		None               void
  3460 ;; Registers used:
  3461 ;;		wreg
  3462 ;; Tracked objects:
  3463 ;;		On entry : 60/0
  3464 ;;		On exit  : 60/0
  3465 ;;		Unchanged: FFF9F/0
  3466 ;; Data sizes:     COMMON   BANK0   BANK1   BANK3   BANK2
  3467 ;;      Params:         0       0       0       0       0
  3468 ;;      Locals:         0       0       0       0       0
  3469 ;;      Temps:          0       0       0       0       0
  3470 ;;      Totals:         0       0       0       0       0
  3471 ;;Total ram usage:        0 bytes
  3472 ;; Hardware stack levels used:    1
  3473 ;; Hardware stack levels required when called:    2
  3474 ;; This function calls:
  3475 ;;		Nothing
  3476 ;; This function is called by:
  3477 ;;		_main
  3478 ;; This function uses a non-reentrant model
  3479 ;;
  3480  04F7                     _startTwentySecondsTimer:	
  3481                           
  3482                           ;common.c: 245: uiTwentySecondsTimer = 20;
  3483                           
  3484                           ; Regs used in _startTwentySecondsTimer: [wreg]
  3485  04F7  3014               	movlw	20
  3486  04F8  00F6               	movwf	_uiTwentySecondsTimer
  3487  04F9  01F7               	clrf	_uiTwentySecondsTimer+1
  3488  04FA  0008               	return
  3489  04FB                     __end_of_startTwentySecondsTimer:	
  3490                           
  3491                           	psect	text613
  3492  04DE                     __ptext613:	
  3493 ;; =============== function _startTwentySecondsTimer ends ============
  3494                           
  3495                           
  3496 ;; *************** function _isFinishedTwelveHoursTimer *****************
  3497 ;; Defined at:
  3498 ;;		line 259 in file "C:\190604\AK7030-OTP\common.c"
  3499 ;; Parameters:    Size  Location     Type
  3500 ;;		None
  3501 ;; Auto vars:     Size  Location     Type
  3502 ;;		None
  3503 ;; Return value:  Size  Location     Type
  3504 ;;                  1    wreg      unsigned char 
  3505 ;; Registers used:
  3506 ;;		wreg, status,2, status,0
  3507 ;; Tracked objects:
  3508 ;;		On entry : 60/0
  3509 ;;		On exit  : 60/0
  3510 ;;		Unchanged: FFF9F/0
  3511 ;; Data sizes:     COMMON   BANK0   BANK1   BANK3   BANK2
  3512 ;;      Params:         0       0       0       0       0
  3513 ;;      Locals:         0       0       0       0       0
  3514 ;;      Temps:          0       0       0       0       0
  3515 ;;      Totals:         0       0       0       0       0
  3516 ;;Total ram usage:        0 bytes
  3517 ;; Hardware stack levels used:    1
  3518 ;; Hardware stack levels required when called:    2
  3519 ;; This function calls:
  3520 ;;		Nothing
  3521 ;; This function is called by:
  3522 ;;		_main
  3523 ;; This function uses a non-reentrant model
  3524 ;;
  3525  04DE                     _isFinishedTwelveHoursTimer:	
  3526                           
  3527                           ;common.c: 260: if(uiBigTimer == 0)
  3528                           
  3529                           ; Regs used in _isFinishedTwelveHoursTimer: [wreg+status,2+status,0]
  3530  04DE  0839               	movf	_uiBigTimer+1,w
  3531  04DF  0438               	iorwf	_uiBigTimer,w
  3532  04E0  1903               	btfsc	3,2
  3533                           
  3534                           ;common.c: 261: return 1;
  3535  04E1  3401               	retlw	1
  3536                           
  3537                           ;common.c: 262: else
  3538                           ;common.c: 263: return 0;
  3539  04E2  3400               	retlw	0
  3540  04E3                     __end_of_isFinishedTwelveHoursTimer:	
  3541                           
  3542                           	psect	text614
  3543  04AE                     __ptext614:	
  3544 ;; =============== function _isFinishedTwelveHoursTimer ends ============
  3545                           
  3546                           
  3547 ;; *************** function _startTwelveHourTimer *****************
  3548 ;; Defined at:
  3549 ;;		line 205 in file "C:\190604\AK7030-OTP\common.c"
  3550 ;; Parameters:    Size  Location     Type
  3551 ;;  uiSetTime       2    0[BANK0 ] unsigned int 
  3552 ;; Auto vars:     Size  Location     Type
  3553 ;;		None
  3554 ;; Return value:  Size  Location     Type
  3555 ;;		None               void
  3556 ;; Registers used:
  3557 ;;		wreg, status,2, status,0
  3558 ;; Tracked objects:
  3559 ;;		On entry : 60/0
  3560 ;;		On exit  : 60/0
  3561 ;;		Unchanged: FFF9F/0
  3562 ;; Data sizes:     COMMON   BANK0   BANK1   BANK3   BANK2
  3563 ;;      Params:         0       2       0       0       0
  3564 ;;      Locals:         0       0       0       0       0
  3565 ;;      Temps:          0       0       0       0       0
  3566 ;;      Totals:         0       2       0       0       0
  3567 ;;Total ram usage:        2 bytes
  3568 ;; Hardware stack levels used:    1
  3569 ;; Hardware stack levels required when called:    2
  3570 ;; This function calls:
  3571 ;;		Nothing
  3572 ;; This function is called by:
  3573 ;;		_main
  3574 ;; This function uses a non-reentrant model
  3575 ;;
  3576  04AE                     _startTwelveHourTimer:	
  3577                           
  3578                           ;common.c: 206: if(0 == uiBigTimer)
  3579                           
  3580                           ; Regs used in _startTwelveHourTimer: [wreg+status,2+status,0]
  3581  04AE  0839               	movf	_uiBigTimer+1,w
  3582  04AF  0438               	iorwf	_uiBigTimer,w
  3583  04B0  1D03               	skipz
  3584  04B1  0008               	return
  3585                           
  3586                           ;common.c: 207: uiBigTimer = uiSetTime;
  3587  04B2  0857               	movf	startTwelveHourTimer@uiSetTime+1,w
  3588  04B3  00B9               	movwf	_uiBigTimer+1
  3589  04B4  0856               	movf	startTwelveHourTimer@uiSetTime,w
  3590  04B5  00B8               	movwf	_uiBigTimer
  3591  04B6  0008               	return
  3592  04B7                     __end_of_startTwelveHourTimer:	
  3593                           
  3594                           	psect	text615
  3595  04E3                     __ptext615:	
  3596 ;; =============== function _startTwelveHourTimer ends ============
  3597                           
  3598                           
  3599 ;; *************** function _getAdOriginalCh1Value *****************
  3600 ;; Defined at:
  3601 ;;		line 83 in file "C:\190604\AK7030-OTP\common.c"
  3602 ;; Parameters:    Size  Location     Type
  3603 ;;		None
  3604 ;; Auto vars:     Size  Location     Type
  3605 ;;		None
  3606 ;; Return value:  Size  Location     Type
  3607 ;;                  2    0[BANK0 ] unsigned int 
  3608 ;; Registers used:
  3609 ;;		wreg
  3610 ;; Tracked objects:
  3611 ;;		On entry : 60/0
  3612 ;;		On exit  : 60/0
  3613 ;;		Unchanged: FFF9F/0
  3614 ;; Data sizes:     COMMON   BANK0   BANK1   BANK3   BANK2
  3615 ;;      Params:         0       2       0       0       0
  3616 ;;      Locals:         0       0       0       0       0
  3617 ;;      Temps:          0       0       0       0       0
  3618 ;;      Totals:         0       2       0       0       0
  3619 ;;Total ram usage:        2 bytes
  3620 ;; Hardware stack levels used:    1
  3621 ;; Hardware stack levels required when called:    2
  3622 ;; This function calls:
  3623 ;;		Nothing
  3624 ;; This function is called by:
  3625 ;;		_main
  3626 ;; This function uses a non-reentrant model
  3627 ;;
  3628  04E3                     _getAdOriginalCh1Value:	
  3629                           
  3630                           ;common.c: 84: return adc_original_CH1_value;
  3631                           
  3632                           ; Regs used in _getAdOriginalCh1Value: [wreg]
  3633  04E3  082F               	movf	_adc_original_CH1_value+1,w
  3634  04E4  00D7               	movwf	?_getAdOriginalCh1Value+1
  3635  04E5  082E               	movf	_adc_original_CH1_value,w
  3636  04E6  00D6               	movwf	?_getAdOriginalCh1Value
  3637  04E7  0008               	return
  3638  04E8                     __end_of_getAdOriginalCh1Value:	
  3639                           
  3640                           	psect	text616
  3641  04E8                     __ptext616:	
  3642 ;; =============== function _getAdOriginalCh1Value ends ============
  3643                           
  3644                           
  3645 ;; *************** function _getAdOriginalCh14Value *****************
  3646 ;; Defined at:
  3647 ;;		line 95 in file "C:\190604\AK7030-OTP\common.c"
  3648 ;; Parameters:    Size  Location     Type
  3649 ;;		None
  3650 ;; Auto vars:     Size  Location     Type
  3651 ;;		None
  3652 ;; Return value:  Size  Location     Type
  3653 ;;                  2    0[BANK0 ] unsigned int 
  3654 ;; Registers used:
  3655 ;;		wreg
  3656 ;; Tracked objects:
  3657 ;;		On entry : 60/0
  3658 ;;		On exit  : 60/0
  3659 ;;		Unchanged: FFF9F/0
  3660 ;; Data sizes:     COMMON   BANK0   BANK1   BANK3   BANK2
  3661 ;;      Params:         0       2       0       0       0
  3662 ;;      Locals:         0       0       0       0       0
  3663 ;;      Temps:          0       0       0       0       0
  3664 ;;      Totals:         0       2       0       0       0
  3665 ;;Total ram usage:        2 bytes
  3666 ;; Hardware stack levels used:    1
  3667 ;; Hardware stack levels required when called:    2
  3668 ;; This function calls:
  3669 ;;		Nothing
  3670 ;; This function is called by:
  3671 ;;		_main
  3672 ;; This function uses a non-reentrant model
  3673 ;;
  3674  04E8                     _getAdOriginalCh14Value:	
  3675                           
  3676                           ;common.c: 96: return adc_original_CH14_value;
  3677                           
  3678                           ; Regs used in _getAdOriginalCh14Value: [wreg]
  3679  04E8  082D               	movf	_adc_original_CH14_value+1,w
  3680  04E9  00D7               	movwf	?_getAdOriginalCh14Value+1
  3681  04EA  082C               	movf	_adc_original_CH14_value,w
  3682  04EB  00D6               	movwf	?_getAdOriginalCh14Value
  3683  04EC  0008               	return
  3684  04ED                     __end_of_getAdOriginalCh14Value:	
  3685                           
  3686                           	psect	text617
  3687  04FE                     __ptext617:	
  3688 ;; =============== function _getAdOriginalCh14Value ends ============
  3689                           
  3690                           
  3691 ;; *************** function _clrSampeTime *****************
  3692 ;; Defined at:
  3693 ;;		line 285 in file "C:\190604\AK7030-OTP\common.c"
  3694 ;; Parameters:    Size  Location     Type
  3695 ;;		None
  3696 ;; Auto vars:     Size  Location     Type
  3697 ;;		None
  3698 ;; Return value:  Size  Location     Type
  3699 ;;		None               void
  3700 ;; Registers used:
  3701 ;;		status,2
  3702 ;; Tracked objects:
  3703 ;;		On entry : 0/0
  3704 ;;		On exit  : 0/0
  3705 ;;		Unchanged: FFFFF/0
  3706 ;; Data sizes:     COMMON   BANK0   BANK1   BANK3   BANK2
  3707 ;;      Params:         0       0       0       0       0
  3708 ;;      Locals:         0       0       0       0       0
  3709 ;;      Temps:          0       0       0       0       0
  3710 ;;      Totals:         0       0       0       0       0
  3711 ;;Total ram usage:        0 bytes
  3712 ;; Hardware stack levels used:    1
  3713 ;; Hardware stack levels required when called:    2
  3714 ;; This function calls:
  3715 ;;		Nothing
  3716 ;; This function is called by:
  3717 ;;		_main
  3718 ;; This function uses a non-reentrant model
  3719 ;;
  3720  04FE                     _clrSampeTime:	
  3721                           
  3722                           ;common.c: 286: timer.timer10msStopWatch = 0;
  3723                           
  3724                           ; Regs used in _clrSampeTime: [status,2]
  3725  04FE  01FA               	clrf	_timer
  3726  04FF  0008               	return
  3727  0500                     __end_of_clrSampeTime:	
  3728                           
  3729                           	psect	text618
  3730  04ED                     __ptext618:	
  3731 ;; =============== function _clrSampeTime ends ============
  3732                           
  3733                           
  3734 ;; *************** function _isPermitSampleTime *****************
  3735 ;; Defined at:
  3736 ;;		line 275 in file "C:\190604\AK7030-OTP\common.c"
  3737 ;; Parameters:    Size  Location     Type
  3738 ;;		None
  3739 ;; Auto vars:     Size  Location     Type
  3740 ;;		None
  3741 ;; Return value:  Size  Location     Type
  3742 ;;                  1    wreg      unsigned char 
  3743 ;; Registers used:
  3744 ;;		wreg
  3745 ;; Tracked objects:
  3746 ;;		On entry : 0/0
  3747 ;;		On exit  : 0/0
  3748 ;;		Unchanged: FFFFF/0
  3749 ;; Data sizes:     COMMON   BANK0   BANK1   BANK3   BANK2
  3750 ;;      Params:         0       0       0       0       0
  3751 ;;      Locals:         0       0       0       0       0
  3752 ;;      Temps:          0       0       0       0       0
  3753 ;;      Totals:         0       0       0       0       0
  3754 ;;Total ram usage:        0 bytes
  3755 ;; Hardware stack levels used:    1
  3756 ;; Hardware stack levels required when called:    2
  3757 ;; This function calls:
  3758 ;;		Nothing
  3759 ;; This function is called by:
  3760 ;;		_main
  3761 ;; This function uses a non-reentrant model
  3762 ;;
  3763  04ED                     _isPermitSampleTime:	
  3764                           
  3765                           ;common.c: 276: if(timer.timer10msStopWatch >= 10)
  3766                           
  3767                           ; Regs used in _isPermitSampleTime: [wreg]
  3768  04ED  300A               	movlw	10
  3769  04EE  027A               	subwf	_timer,w
  3770  04EF  1803               	btfsc	3,0
  3771                           
  3772                           ;common.c: 277: {
  3773                           ;common.c: 278: return 1;
  3774  04F0  3401               	retlw	1
  3775                           
  3776                           ;common.c: 280: else
  3777                           ;common.c: 281: return 0;
  3778  04F1  3400               	retlw	0
  3779  04F2                     __end_of_isPermitSampleTime:	
  3780                           
  3781                           	psect	text620
  3782  04BF                     __ptext620:	
  3783 ;; =============== function _adc_start ends ============
  3784                           
  3785                           
  3786 ;; *************** function _op2_init *****************
  3787 ;; Defined at:
  3788 ;;		line 45 in file "C:\190604\AK7030-OTP\periph.c"
  3789 ;; Parameters:    Size  Location     Type
  3790 ;;		None
  3791 ;; Auto vars:     Size  Location     Type
  3792 ;;		None
  3793 ;; Return value:  Size  Location     Type
  3794 ;;		None               void
  3795 ;; Registers used:
  3796 ;;		wreg
  3797 ;; Tracked objects:
  3798 ;;		On entry : 17F/20
  3799 ;;		On exit  : 17F/20
  3800 ;;		Unchanged: FFE80/0
  3801 ;; Data sizes:     COMMON   BANK0   BANK1   BANK3   BANK2
  3802 ;;      Params:         0       0       0       0       0
  3803 ;;      Locals:         0       0       0       0       0
  3804 ;;      Temps:          0       0       0       0       0
  3805 ;;      Totals:         0       0       0       0       0
  3806 ;;Total ram usage:        0 bytes
  3807 ;; Hardware stack levels used:    1
  3808 ;; Hardware stack levels required when called:    2
  3809 ;; This function calls:
  3810 ;;		Nothing
  3811 ;; This function is called by:
  3812 ;;		_main
  3813 ;; This function uses a non-reentrant model
  3814 ;;
  3815  04BF                     _op2_init:	
  3816                           
  3817                           ;periph.c: 52: OP2CON1=0x10;
  3818                           
  3819                           ; Regs used in _op2_init: [wreg]
  3820  04BF  3010               	movlw	16
  3821  04C0  009C               	movwf	28	;volatile
  3822                           
  3823                           ;periph.c: 54: OP2CON2=0x10;
  3824  04C1  009D               	movwf	29	;volatile
  3825                           
  3826                           ;periph.c: 55: OP2CON0=0x80;
  3827  04C2  3080               	movlw	128
  3828  04C3  009B               	movwf	27	;volatile
  3829                           
  3830                           ;periph.c: 58: TRISA7=0;
  3831  04C4  1385               	bcf	5,7
  3832                           
  3833                           ;periph.c: 60: TRISB7 = 1;
  3834  04C5  1786               	bsf	6,7
  3835  04C6  0008               	return
  3836  04C7                     __end_of_op2_init:	
  3837                           
  3838                           	psect	text621
  3839  0490                     __ptext621:	
  3840 ;; =============== function _op2_init ends ============
  3841                           
  3842                           
  3843 ;; *************** function _op1_init *****************
  3844 ;; Defined at:
  3845 ;;		line 26 in file "C:\190604\AK7030-OTP\periph.c"
  3846 ;; Parameters:    Size  Location     Type
  3847 ;;		None
  3848 ;; Auto vars:     Size  Location     Type
  3849 ;;		None
  3850 ;; Return value:  Size  Location     Type
  3851 ;;		None               void
  3852 ;; Registers used:
  3853 ;;		wreg
  3854 ;; Tracked objects:
  3855 ;;		On entry : 17F/20
  3856 ;;		On exit  : 17F/20
  3857 ;;		Unchanged: FFE80/0
  3858 ;; Data sizes:     COMMON   BANK0   BANK1   BANK3   BANK2
  3859 ;;      Params:         0       0       0       0       0
  3860 ;;      Locals:         0       0       0       0       0
  3861 ;;      Temps:          0       0       0       0       0
  3862 ;;      Totals:         0       0       0       0       0
  3863 ;;Total ram usage:        0 bytes
  3864 ;; Hardware stack levels used:    1
  3865 ;; Hardware stack levels required when called:    2
  3866 ;; This function calls:
  3867 ;;		Nothing
  3868 ;; This function is called by:
  3869 ;;		_main
  3870 ;; This function uses a non-reentrant model
  3871 ;;
  3872  0490                     _op1_init:	
  3873                           
  3874                           ;periph.c: 33: OP1CON1=0x02;
  3875                           
  3876                           ; Regs used in _op1_init: [wreg]
  3877  0490  3002               	movlw	2
  3878  0491  1283               	bcf	3,5	;RP0=0, select bank0
  3879  0492  009C               	movwf	28	;volatile
  3880                           
  3881                           ;periph.c: 34: OP1CON2=0xA0;
  3882  0493  30A0               	movlw	160
  3883  0494  009D               	movwf	29	;volatile
  3884                           
  3885                           ;periph.c: 35: OP1CON0=0x80;
  3886  0495  3080               	movlw	128
  3887  0496  009B               	movwf	27	;volatile
  3888                           
  3889                           ;periph.c: 38: TRISB3=1;
  3890  0497  1683               	bsf	3,5	;RP0=1, select bank1
  3891  0498  1586               	bsf	6,3
  3892                           
  3893                           ;periph.c: 40: TRISB5=0;
  3894  0499  1286               	bcf	6,5
  3895  049A  0008               	return
  3896  049B                     __end_of_op1_init:	
  3897                           
  3898                           	psect	text622
  3899  04F2                     __ptext622:	
  3900 ;; =============== function _op1_init ends ============
  3901                           
  3902                           
  3903 ;; *************** function _dac_init *****************
  3904 ;; Defined at:
  3905 ;;		line 14 in file "C:\190604\AK7030-OTP\periph.c"
  3906 ;; Parameters:    Size  Location     Type
  3907 ;;		None
  3908 ;; Auto vars:     Size  Location     Type
  3909 ;;		None
  3910 ;; Return value:  Size  Location     Type
  3911 ;;		None               void
  3912 ;; Registers used:
  3913 ;;		wreg
  3914 ;; Tracked objects:
  3915 ;;		On entry : 17F/20
  3916 ;;		On exit  : 17F/20
  3917 ;;		Unchanged: FFE80/0
  3918 ;; Data sizes:     COMMON   BANK0   BANK1   BANK3   BANK2
  3919 ;;      Params:         0       0       0       0       0
  3920 ;;      Locals:         0       0       0       0       0
  3921 ;;      Temps:          0       0       0       0       0
  3922 ;;      Totals:         0       0       0       0       0
  3923 ;;Total ram usage:        0 bytes
  3924 ;; Hardware stack levels used:    1
  3925 ;; Hardware stack levels required when called:    2
  3926 ;; This function calls:
  3927 ;;		Nothing
  3928 ;; This function is called by:
  3929 ;;		_main
  3930 ;; This function uses a non-reentrant model
  3931 ;;
  3932  04F2                     _dac_init:	
  3933                           
  3934                           ;periph.c: 15: DACCON|=1;
  3935                           
  3936                           ; Regs used in _dac_init: [wreg]
  3937  04F2  1407               	bsf	7,0	;volatile
  3938                           
  3939                           ;periph.c: 17: DACR0=0x0F;
  3940  04F3  300F               	movlw	15
  3941  04F4  0088               	movwf	8	;volatile
  3942                           
  3943                           ;periph.c: 18: DACCON|=(1)<<2;
  3944  04F5  1507               	bsf	7,2	;volatile
  3945  04F6  0008               	return
  3946  04F7                     __end_of_dac_init:	
  3947                           
  3948                           	psect	text624
  3949  04FB                     __ptext624:	
  3950 ;; =============== function _adc_test_init ends ============
  3951                           
  3952                           
  3953 ;; *************** function _timer1_interrupt_config *****************
  3954 ;; Defined at:
  3955 ;;		line 58 in file "C:\190604\AK7030-OTP\common.c"
  3956 ;; Parameters:    Size  Location     Type
  3957 ;;		None
  3958 ;; Auto vars:     Size  Location     Type
  3959 ;;		None
  3960 ;; Return value:  Size  Location     Type
  3961 ;;		None               void
  3962 ;; Registers used:
  3963 ;;		None
  3964 ;; Tracked objects:
  3965 ;;		On entry : 17F/20
  3966 ;;		On exit  : 17F/20
  3967 ;;		Unchanged: FFE80/0
  3968 ;; Data sizes:     COMMON   BANK0   BANK1   BANK3   BANK2
  3969 ;;      Params:         0       0       0       0       0
  3970 ;;      Locals:         0       0       0       0       0
  3971 ;;      Temps:          0       0       0       0       0
  3972 ;;      Totals:         0       0       0       0       0
  3973 ;;Total ram usage:        0 bytes
  3974 ;; Hardware stack levels used:    1
  3975 ;; Hardware stack levels required when called:    2
  3976 ;; This function calls:
  3977 ;;		Nothing
  3978 ;; This function is called by:
  3979 ;;		_main
  3980 ;; This function uses a non-reentrant model
  3981 ;;
  3982  04FB                     _timer1_interrupt_config:	
  3983                           
  3984                           ;common.c: 59: GIE = 1;
  3985                           
  3986                           ; Regs used in _timer1_interrupt_config: []
  3987  04FB  178B               	bsf	11,7
  3988                           
  3989                           ;common.c: 60: PEIE = 1;
  3990  04FC  170B               	bsf	11,6
  3991  04FD  0008               	return
  3992  04FE                     __end_of_timer1_interrupt_config:	
  3993                           
  3994                           	psect	text625
  3995  049B                     __ptext625:	
  3996 ;; =============== function _timer1_interrupt_config ends ============
  3997                           
  3998                           
  3999 ;; *************** function _timer1_config *****************
  4000 ;; Defined at:
  4001 ;;		line 46 in file "C:\190604\AK7030-OTP\common.c"
  4002 ;; Parameters:    Size  Location     Type
  4003 ;;		None
  4004 ;; Auto vars:     Size  Location     Type
  4005 ;;		None
  4006 ;; Return value:  Size  Location     Type
  4007 ;;		None               void
  4008 ;; Registers used:
  4009 ;;		wreg
  4010 ;; Tracked objects:
  4011 ;;		On entry : 17F/40
  4012 ;;		On exit  : 17F/20
  4013 ;;		Unchanged: FFE80/0
  4014 ;; Data sizes:     COMMON   BANK0   BANK1   BANK3   BANK2
  4015 ;;      Params:         0       0       0       0       0
  4016 ;;      Locals:         0       0       0       0       0
  4017 ;;      Temps:          0       0       0       0       0
  4018 ;;      Totals:         0       0       0       0       0
  4019 ;;Total ram usage:        0 bytes
  4020 ;; Hardware stack levels used:    1
  4021 ;; Hardware stack levels required when called:    2
  4022 ;; This function calls:
  4023 ;;		Nothing
  4024 ;; This function is called by:
  4025 ;;		_main
  4026 ;; This function uses a non-reentrant model
  4027 ;;
  4028  049B                     _timer1_config:	
  4029                           
  4030                           ;common.c: 48: TMR1H=0xCF;
  4031                           
  4032                           ; Regs used in _timer1_config: [wreg]
  4033  049B  30CF               	movlw	207
  4034  049C  1303               	bcf	3,6	;RP1=0, select bank0
  4035  049D  008F               	movwf	15	;volatile
  4036                           
  4037                           ;common.c: 49: TMR1L=0x2C;
  4038  049E  302C               	movlw	44
  4039  049F  008E               	movwf	14	;volatile
  4040                           
  4041                           ;common.c: 50: T1CON=0xE1;
  4042  04A0  30E1               	movlw	225
  4043  04A1  0090               	movwf	16	;volatile
  4044                           
  4045                           ;common.c: 51: TMR1IE=1;
  4046  04A2  1683               	bsf	3,5	;RP0=1, select bank1
  4047  04A3  140C               	bsf	12,0
  4048  04A4  0008               	return
  4049  04A5                     __end_of_timer1_config:	
  4050                           
  4051                           	psect	text626
  4052  04C7                     __ptext626:	
  4053 ;; =============== function _timer1_config ends ============
  4054                           
  4055                           
  4056 ;; *************** function _clock_config *****************
  4057 ;; Defined at:
  4058 ;;		line 38 in file "C:\190604\AK7030-OTP\common.c"
  4059 ;; Parameters:    Size  Location     Type
  4060 ;;		None
  4061 ;; Auto vars:     Size  Location     Type
  4062 ;;		None
  4063 ;; Return value:  Size  Location     Type
  4064 ;;		None               void
  4065 ;; Registers used:
  4066 ;;		wreg, status,2
  4067 ;; Tracked objects:
  4068 ;;		On entry : 17F/20
  4069 ;;		On exit  : 17F/40
  4070 ;;		Unchanged: FFE80/0
  4071 ;; Data sizes:     COMMON   BANK0   BANK1   BANK3   BANK2
  4072 ;;      Params:         0       0       0       0       0
  4073 ;;      Locals:         0       0       0       0       0
  4074 ;;      Temps:          0       0       0       0       0
  4075 ;;      Totals:         0       0       0       0       0
  4076 ;;Total ram usage:        0 bytes
  4077 ;; Hardware stack levels used:    1
  4078 ;; Hardware stack levels required when called:    2
  4079 ;; This function calls:
  4080 ;;		Nothing
  4081 ;; This function is called by:
  4082 ;;		_main
  4083 ;; This function uses a non-reentrant model
  4084 ;;
  4085  04C7                     _clock_config:	
  4086                           
  4087                           ;common.c: 40: CLKPR = 0x80;
  4088                           
  4089                           ; Regs used in _clock_config: [wreg+status,2]
  4090  04C7  3080               	movlw	128
  4091  04C8  1283               	bcf	3,5	;RP0=0, select bank2
  4092  04C9  1703               	bsf	3,6	;RP1=1, select bank2
  4093  04CA  0088               	movwf	8	;volatile
  4094                           
  4095                           ;common.c: 41: CLKPR = 0x00;
  4096  04CB  0188               	clrf	8	;volatile
  4097  04CC                     l1603:	
  4098                           ;common.c: 42: while(CLKPCE);
  4099                           
  4100  04CC  1F88               	btfss	8,7
  4101  04CD  0008               	return
  4102  04CE  2CCC               	goto	l1603
  4103  04CF                     __end_of_clock_config:	
  4104                           
  4105                           	psect	text627
  4106  0445                     __ptext627:	
  4107 ;; =============== function _clock_config ends ============
  4108                           
  4109                           
  4110 ;; *************** function _initPin *****************
  4111 ;; Defined at:
  4112 ;;		line 105 in file "C:\190604\AK7030-OTP\main.c"
  4113 ;; Parameters:    Size  Location     Type
  4114 ;;		None
  4115 ;; Auto vars:     Size  Location     Type
  4116 ;;		None
  4117 ;; Return value:  Size  Location     Type
  4118 ;;		None               void
  4119 ;; Registers used:
  4120 ;;		None
  4121 ;; Tracked objects:
  4122 ;;		On entry : 60/20
  4123 ;;		On exit  : 60/60
  4124 ;;		Unchanged: FFF9F/0
  4125 ;; Data sizes:     COMMON   BANK0   BANK1   BANK3   BANK2
  4126 ;;      Params:         0       0       0       0       0
  4127 ;;      Locals:         0       0       0       0       0
  4128 ;;      Temps:          0       0       0       0       0
  4129 ;;      Totals:         0       0       0       0       0
  4130 ;;Total ram usage:        0 bytes
  4131 ;; Hardware stack levels used:    1
  4132 ;; Hardware stack levels required when called:    2
  4133 ;; This function calls:
  4134 ;;		Nothing
  4135 ;; This function is called by:
  4136 ;;		_main
  4137 ;; This function uses a non-reentrant model
  4138 ;;
  4139  0445                     _initPin:	
  4140                           
  4141                           ;main.c: 106: PB6 = 1;
  4142                           
  4143                           ; Regs used in _initPin: []
  4144  0445  1283               	bcf	3,5	;RP0=0, select bank0
  4145  0446  1706               	bsf	6,6
  4146                           
  4147                           ;main.c: 107: PBOD6 = 1;
  4148  0447  1683               	bsf	3,5	;RP0=1, select bank3
  4149  0448  1703               	bsf	3,6	;RP1=1, select bank3
  4150  0449  1708               	bsf	8,6
  4151                           
  4152                           ;main.c: 111: PA0 = 0;
  4153  044A  1283               	bcf	3,5	;RP0=0, select bank0
  4154  044B  1303               	bcf	3,6	;RP1=0, select bank0
  4155  044C  1005               	bcf	5,0
  4156                           
  4157                           ;main.c: 112: PA1 = 0;
  4158  044D  1085               	bcf	5,1
  4159                           
  4160                           ;main.c: 113: PA2 = 0;
  4161  044E  1105               	bcf	5,2
  4162                           
  4163                           ;main.c: 114: PA3 = 0;
  4164  044F  1185               	bcf	5,3
  4165                           
  4166                           ;main.c: 115: PB0 = 0;
  4167  0450  1006               	bcf	6,0
  4168                           
  4169                           ;main.c: 116: PB1 = 1;
  4170  0451  1486               	bsf	6,1
  4171                           
  4172                           ;main.c: 117: PA6 = 0;
  4173  0452  1305               	bcf	5,6
  4174                           
  4175                           ;main.c: 118: PA7 = 0;
  4176  0453  1385               	bcf	5,7
  4177                           
  4178                           ;main.c: 119: PAOD7 = 0;
  4179  0454  1683               	bsf	3,5	;RP0=1, select bank3
  4180  0455  1703               	bsf	3,6	;RP1=1, select bank3
  4181  0456  1387               	bcf	7,7
  4182  0457  0008               	return
  4183  0458                     __end_of_initPin:	
  4184                           
  4185                           	psect	text631
  4186  03C3                     __ptext631:	
  4187 ;; =============== function _clearTwelveHoursTimer ends ============
  4188                           
  4189                           
  4190 ;; *************** function _ISR *****************
  4191 ;; Defined at:
  4192 ;;		line 290 in file "C:\190604\AK7030-OTP\common.c"
  4193 ;; Parameters:    Size  Location     Type
  4194 ;;		None
  4195 ;; Auto vars:     Size  Location     Type
  4196 ;;		None
  4197 ;; Return value:  Size  Location     Type
  4198 ;;		None               void
  4199 ;; Registers used:
  4200 ;;		wreg, status,2, status,0, pclath, cstack
  4201 ;; Tracked objects:
  4202 ;;		On entry : 0/0
  4203 ;;		On exit  : 60/0
  4204 ;;		Unchanged: FFF9F/0
  4205 ;; Data sizes:     COMMON   BANK0   BANK1   BANK3   BANK2
  4206 ;;      Params:         0       0       0       0       0
  4207 ;;      Locals:         0       0       0       0       0
  4208 ;;      Temps:          2       0       0       0       0
  4209 ;;      Totals:         2       0       0       0       0
  4210 ;;Total ram usage:        2 bytes
  4211 ;; Hardware stack levels used:    1
  4212 ;; Hardware stack levels required when called:    1
  4213 ;; This function calls:
  4214 ;;		i1_setAD_ConvertFlag
  4215 ;;		_adc_get
  4216 ;; This function is called by:
  4217 ;;		Interrupt level 1
  4218 ;; This function uses a non-reentrant model
  4219 ;;
  4220  03C3                     _ISR:	
  4221                           
  4222                           ;common.c: 291: static unsigned char ucTimer1sCnt = 0;
  4223                           ;common.c: 293: if(TMR1IF == 1)
  4224  03C3  1283               	bcf	3,5	;RP0=0, select bank0
  4225  03C4  1303               	bcf	3,6	;RP1=0, select bank0
  4226  03C5  1C0C               	btfss	12,0
  4227  03C6  2BED               	goto	i1l3844
  4228  03C7  3064               	movlw	100
  4229                           
  4230                           ;common.c: 294: {
  4231                           ;common.c: 295: TMR1IF = 0 ;
  4232  03C8  100C               	bcf	12,0
  4233                           
  4234                           ;common.c: 296: timer.timer10msStopWatch++;
  4235  03C9  0AFA               	incf	_timer,f
  4236                           
  4237                           ;common.c: 297: ucTimer1sCnt++;
  4238  03CA  0AF8               	incf	ISR@ucTimer1sCnt,f
  4239                           
  4240                           ;common.c: 299: if(ucTimer1sCnt >= 100)
  4241  03CB  0278               	subwf	ISR@ucTimer1sCnt,w
  4242  03CC  1C03               	skipc
  4243  03CD  2BED               	goto	i1l3844
  4244                           
  4245                           ;common.c: 300: {
  4246                           ;common.c: 301: ucTimer1sCnt = 0;
  4247  03CE  01F8               	clrf	ISR@ucTimer1sCnt
  4248                           
  4249                           ;common.c: 302: if(uiBigTimer > 0)
  4250  03CF  0839               	movf	_uiBigTimer+1,w
  4251  03D0  0438               	iorwf	_uiBigTimer,w
  4252  03D1  1903               	skipnz
  4253  03D2  2BD9               	goto	i1l1713
  4254                           
  4255                           ;common.c: 303: uiBigTimer--;
  4256  03D3  3001               	movlw	1
  4257  03D4  02B8               	subwf	_uiBigTimer,f
  4258  03D5  3000               	movlw	0
  4259  03D6  1C03               	skipc
  4260  03D7  03B9               	decf	_uiBigTimer+1,f
  4261  03D8  02B9               	subwf	_uiBigTimer+1,f
  4262  03D9                     i1l1713:	
  4263                           
  4264                           ;common.c: 305: if(uiSmallTimer)
  4265  03D9  083B               	movf	_uiSmallTimer+1,w
  4266  03DA  043A               	iorwf	_uiSmallTimer,w
  4267  03DB  1903               	skipnz
  4268  03DC  2BE3               	goto	i1l1714
  4269                           
  4270                           ;common.c: 306: uiSmallTimer--;
  4271  03DD  3001               	movlw	1
  4272  03DE  02BA               	subwf	_uiSmallTimer,f
  4273  03DF  3000               	movlw	0
  4274  03E0  1C03               	skipc
  4275  03E1  03BB               	decf	_uiSmallTimer+1,f
  4276  03E2  02BB               	subwf	_uiSmallTimer+1,f
  4277  03E3                     i1l1714:	
  4278                           
  4279                           ;common.c: 308: if(uiTwentySecondsTimer)
  4280  03E3  0877               	movf	_uiTwentySecondsTimer+1,w
  4281  03E4  0476               	iorwf	_uiTwentySecondsTimer,w
  4282  03E5  1903               	skipnz
  4283  03E6  2BED               	goto	i1l3844
  4284                           
  4285                           ;common.c: 309: uiTwentySecondsTimer--;
  4286  03E7  3001               	movlw	1
  4287  03E8  02F6               	subwf	_uiTwentySecondsTimer,f
  4288  03E9  3000               	movlw	0
  4289  03EA  1C03               	skipc
  4290  03EB  03F7               	decf	_uiTwentySecondsTimer+1,f
  4291  03EC  02F7               	subwf	_uiTwentySecondsTimer+1,f
  4292  03ED                     i1l3844:	
  4293                           
  4294                           ;common.c: 310: }
  4295                           ;common.c: 311: }
  4296                           ;common.c: 313: if(ADIF)
  4297  03ED  1D0D               	btfss	13,2
  4298  03EE  2C16               	goto	i1l1721
  4299  03EF  3001               	movlw	1
  4300                           
  4301                           ;common.c: 314: {
  4302                           ;common.c: 315: ADIF=0;
  4303  03F0  110D               	bcf	13,2
  4304                           
  4305                           ;common.c: 316: setAD_ConvertFlag(1);
  4306  03F1  2428  118A         	fcall	i1_setAD_ConvertFlag
  4307                           
  4308                           ;common.c: 317: adc_original_value = adc_get();
  4309  03F3  241D  118A         	fcall	_adc_get
  4310  03F5  0871               	movf	?_adc_get+1,w
  4311  03F6  1283               	bcf	3,5	;RP0=0, select bank0
  4312  03F7  00B3               	movwf	_adc_original_value+1
  4313  03F8  0870               	movf	?_adc_get,w
  4314  03F9  00B2               	movwf	_adc_original_value
  4315                           
  4316                           ;common.c: 318: if(sampleChannelSelect == 4)
  4317  03FA  085B               	movf	_sampleChannelSelect,w
  4318  03FB  3A04               	xorlw	4
  4319  03FC  1D03               	skipz
  4320  03FD  2C06               	goto	i1l3856
  4321                           
  4322                           ;common.c: 319: adc_original_CH4_value = adc_get();
  4323  03FE  241D  118A         	fcall	_adc_get
  4324  0400  0871               	movf	?_adc_get+1,w
  4325  0401  1283               	bcf	3,5	;RP0=0, select bank0
  4326  0402  00B1               	movwf	_adc_original_CH4_value+1
  4327  0403  0870               	movf	?_adc_get,w
  4328  0404  00B0               	movwf	_adc_original_CH4_value
  4329  0405  2C16               	goto	i1l1721
  4330  0406                     i1l3856:	
  4331                           
  4332                           ;common.c: 320: else if(sampleChannelSelect == 1)
  4333  0406  0B5B               	decfsz	_sampleChannelSelect,w
  4334  0407  2C10               	goto	i1l3860
  4335                           
  4336                           ;common.c: 321: adc_original_CH1_value = adc_get();
  4337  0408  241D  118A         	fcall	_adc_get
  4338  040A  0871               	movf	?_adc_get+1,w
  4339  040B  1283               	bcf	3,5	;RP0=0, select bank0
  4340  040C  00AF               	movwf	_adc_original_CH1_value+1
  4341  040D  0870               	movf	?_adc_get,w
  4342  040E  00AE               	movwf	_adc_original_CH1_value
  4343  040F  2C16               	goto	i1l1721
  4344  0410                     i1l3860:	
  4345                           
  4346                           ;common.c: 322: else
  4347                           ;common.c: 323: adc_original_CH14_value = adc_get();
  4348  0410  241D               	fcall	_adc_get
  4349  0411  0871               	movf	?_adc_get+1,w
  4350  0412  1283               	bcf	3,5	;RP0=0, select bank0
  4351  0413  00AD               	movwf	_adc_original_CH14_value+1
  4352  0414  0870               	movf	?_adc_get,w
  4353  0415  00AC               	movwf	_adc_original_CH14_value
  4354  0416                     i1l1721:	
  4355  0416  0875               	movf	??_ISR+1,w
  4356  0417  008A               	movwf	10
  4357  0418  0E74               	swapf	??_ISR^(0+-128),w
  4358  0419  0083               	movwf	3
  4359  041A  0EFE               	swapf	126,f
  4360  041B  0E7E               	swapf	126,w
  4361  041C  0009               	retfie
  4362  041D                     __end_of_ISR:	
  4363  041D                     __ptext633:	
  4364 ;; =============== function i1_setAD_ConvertFlag ends ============
  4365                           
  4366                           
  4367 ;; *************** function _adc_get *****************
  4368 ;; Defined at:
  4369 ;;		line 105 in file "C:\190604\AK7030-OTP\periph.c"
  4370 ;; Parameters:    Size  Location     Type
  4371 ;;		None
  4372 ;; Auto vars:     Size  Location     Type
  4373 ;;  val             2    2[COMMON] unsigned int 
  4374 ;; Return value:  Size  Location     Type
  4375 ;;                  2    0[COMMON] unsigned int 
  4376 ;; Registers used:
  4377 ;;		wreg
  4378 ;; Tracked objects:
  4379 ;;		On entry : 60/0
  4380 ;;		On exit  : 60/20
  4381 ;;		Unchanged: FFF9F/0
  4382 ;; Data sizes:     COMMON   BANK0   BANK1   BANK3   BANK2
  4383 ;;      Params:         2       0       0       0       0
  4384 ;;      Locals:         2       0       0       0       0
  4385 ;;      Temps:          0       0       0       0       0
  4386 ;;      Totals:         4       0       0       0       0
  4387 ;;Total ram usage:        4 bytes
  4388 ;; Hardware stack levels used:    1
  4389 ;; This function calls:
  4390 ;;		Nothing
  4391 ;; This function is called by:
  4392 ;;		_ISR
  4393 ;; This function uses a non-reentrant model
  4394 ;;
  4395  041D                     _adc_get:	
  4396                           
  4397                           ;periph.c: 106: unsigned int val;
  4398                           ;periph.c: 107: val = (ADRESH<<8) | ADRESL;
  4399                           
  4400                           ; Regs used in _adc_get: [wreg]
  4401  041D  081E               	movf	30,w	;volatile
  4402  041E  00F3               	movwf	adc_get@val+1
  4403  041F  01F2               	clrf	adc_get@val
  4404  0420  1683               	bsf	3,5	;RP0=1, select bank1
  4405  0421  081E               	movf	30,w	;volatile
  4406  0422  04F2               	iorwf	adc_get@val,f
  4407                           
  4408                           ;periph.c: 108: return val;
  4409  0423  0873               	movf	adc_get@val+1,w
  4410  0424  00F1               	movwf	?_adc_get+1
  4411  0425  0872               	movf	adc_get@val,w
  4412  0426  00F0               	movwf	?_adc_get
  4413  0427  0008               	return
  4414  0428                     __end_of_adc_get:	
  4415  0428                     __ptext632:	
  4416 ;; =============== function _ISR ends ============
  4417                           
  4418                           
  4419 ;; *************** function i1_setAD_ConvertFlag *****************
  4420 ;; Defined at:
  4421 ;;		line 72 in file "C:\190604\AK7030-OTP\common.c"
  4422 ;; Parameters:    Size  Location     Type
  4423 ;;  setAD_Conver    1    wreg     unsigned char 
  4424 ;; Auto vars:     Size  Location     Type
  4425 ;;  setAD_Conver    1    0[COMMON] unsigned char 
  4426 ;; Return value:  Size  Location     Type
  4427 ;;		None               void
  4428 ;; Registers used:
  4429 ;;		wreg
  4430 ;; Tracked objects:
  4431 ;;		On entry : 60/0
  4432 ;;		On exit  : 60/0
  4433 ;;		Unchanged: FFF9F/0
  4434 ;; Data sizes:     COMMON   BANK0   BANK1   BANK3   BANK2
  4435 ;;      Params:         0       0       0       0       0
  4436 ;;      Locals:         1       0       0       0       0
  4437 ;;      Temps:          0       0       0       0       0
  4438 ;;      Totals:         1       0       0       0       0
  4439 ;;Total ram usage:        1 bytes
  4440 ;; Hardware stack levels used:    1
  4441 ;; This function calls:
  4442 ;;		Nothing
  4443 ;; This function is called by:
  4444 ;;		_ISR
  4445 ;; This function uses a non-reentrant model
  4446 ;;
  4447  0428                     i1_setAD_ConvertFlag:	
  4448                           
  4449                           ; Regs used in i1_setAD_ConvertFlag: [wreg]
  4450                           ;i1setAD_ConvertFlag@flag stored from wreg
  4451  0428  00F0               	movwf	i1setAD_ConvertFlag@flag
  4452                           
  4453                           ;common.c: 73: adc_convert_flag = flag;
  4454  0429  00F9               	movwf	_adc_convert_flag
  4455  042A  0008               	return
  4456  042B                     __end_ofi1_setAD_ConvertFlag:	
  4457                           
  4458                           	psect	intentry
  4459  0004                     __pintentry:	
  4460                           ; Regs used in _ISR: [wreg+status,2+status,0+pclath+cstack]
  4461                           
  4462  0004                     interrupt_function:	
  4463  007E                     saved_w	set	btemp
  4464  0004  00FE               	movwf	btemp
  4465  0005  0E03               	swapf	3,w
  4466  0006  00F4               	movwf	??_ISR
  4467  0007  080A               	movf	10,w
  4468  0008  00F5               	movwf	??_ISR+1
  4469  0009  118A  2BC3         	ljmp	_ISR
  4470                           
  4471                           	psect	text634
  4472  0000                     __ptext634:	
  4473 ;; =============== function _adc_get ends ============
  4474                           
  4475  007E                     btemp	set	126	;btemp
  4476  007E                     wtemp0	set	126


HI-TECH Software PICC Macro Assembler V9.83 build 10920 
Symbol Table                                                                                   Wed Jun 19 11:50:06 2019

                       ??_clock_config 0056                                      pc 0002  
                                   _GO 00F9                                     fsr 0004  
                  ?_getAdOriginalValue 0056               ?_timer1_interrupt_config 0070  
                                  l810 015F                                    l706 005C  
                                  l715 0074                                    l740 00E7  
                                  l910 02A7                                    l680 0000  
                                  l834 0193                                    l683 0000  
                                  l755 00E9                                    l677 0000  
                                  l855 01C6                                    l783 0125  
                                  l890 0261                                    l883 0243  
                                  _PA0 0028                                    _PA1 0029  
                                  _GIE 005F                                    _PB0 0030  
                                  _PA2 002A                                    _PB1 0031  
                                  _PA3 002B                                    _PA6 002E  
                                  _PA7 002F                                    _PB6 0036  
                                  _ISR 03C3                                    u955 035B  
                                  u965 036E                                    fsr0 0004  
                                  indf 0000                 ??_startThreeHoursTimer 0058  
                                 S4660 0476                                   S4662 0484  
                                 S4658 0468                                   ?_ISR 0070  
                   __size_of_AD_Sample 0063                 ?_getAdOriginalCh1Value 0056  
                                 l4000 0084                                   l4010 0096  
                                 l4002 0000                                   l1603 04CC  
                                 l1612 0000                                   l4100 0111  
                                 l4020 0000                                   l4012 0097  
                                 l4004 0000                                   l1621 0000  
                                 l1606 0000                                   l1630 0000  
                                 l4110 0119                                   l4030 00B4  
                                 l4022 00A5                                   l4014 0000  
                                 l4006 008A                                   l1615 0000  
                                 l2352 0000                                   l1624 0000  
                                 l4112 0126                                   l4104 0117  
                                 l4024 00AB                                   l4016 0000  
                                 l1609 0000                                   l1706 0000  
                                 l1618 0000                                   l4122 012F  
                                 l4114 0128                                   l4050 00EC  
                                 l4042 00D9                                   l4034 00C0  
                                 l4026 00AE                                   l4018 009D  
                                 l2355 0000                                   l1627 0000  
                                 l1643 0366                                   l2372 0000  
                                 l4124 0131                                   l4060 00F5  
                                 l4028 00B1                                   l1670 0000  
                                 l2366 0000                                   l2358 0000  
                                 l4310 01F0                                   l4230 0196  
                                 l4134 0137                                   l4118 012D  
                                 l4070 00FB                                   l4054 00F1  
                                 l4046 00E5                                   l4038 00CD  
                                 l4320 021A                                   l4312 0201  
                                 l4240 019F                                   l4232 0198  
                                 l4208 0178                                   l4144 013D  
                                 l4080 0101                                   l4048 00EA  
                                 l1673 0000                                   l4410 02C4  
                                 l4402 029C                                   l4330 0000  
                                 l4322 0221                                   l4306 01E2  
                                 l4242 01A1                                   l4218 0180  
                                 l4154 0143                                   l4090 0107  
                                 l4058 00F3                                   l1683 0000  
                                 l1676 0000                                   l3700 0442  
                                 l4420 02D8                                   l4404 02B7  
                                 l4340 0000                                   l4332 0000  
                                 l4316 0000                                   l4252 01A7  
                                 l4236 019D                                   l4228 0187  
                                 l4164 014C                                   l3702 0000  
                                 l3710 0000                                   l4430 0000  
                                 l4422 02D9                                   l4414 0000  
                                 l4350 0000                                   l4342 0252  
                                 l4326 0227                                   l4262 01AE  
                                 l4182 0168                                   l4174 0153  
                                 l3704 0000                                   l3712 0000  
                                 l3720 0000                                   l3800 0000  
                                 l4432 0000                                   l4416 02CC  
                                 l4408 02C3                                   l4360 0000  
                                 l4352 0000                                   l4328 0000  
                                 l4280 01D1                                   l4272 01B5  
                                 l4176 0161                                   l4336 0232  
                                 l4440 02F7                                   l3706 0000  
                                 l3722 0000                                   l3714 0000  
                                 l3730 0000                                   l4426 0000  
                                 l4370 0276                                   l4354 0000  
                                 l4346 0000                                   l4338 0000  
                                 l4274 01CA                                   l4186 016A  
                                 l4178 0163                                   l3708 0000  
                                 l3716 0000                                   l3724 0000  
                                 l3732 0000                                   l3740 0000  
                                 l3804 0000                                   l3820 0000  
                                 l3900 038C                                   l4436 02EC  
                                 l4428 0000                                   l4380 0000  
                                 l4372 0277                                   l4348 0000  
                                 l4356 025D                                   l4284 01D3  
                                 l4276 01CC                                   l4188 016C  
                                 l3718 0000                                   l3726 0000  
                                 l3734 0000                                   l3742 03B6  
                                 l3822 0000                                   l3910 038F  
                                 l4390 0292                                   l4382 0000  
                                 l4374 0000                                   l4366 026A  
                                 l4358 0000                                   l4286 01D5  
                                 l4198 0172                                   l3728 0000  
                                 l3736 0000                                   l3744 0000  
                                 l3816 0000                                   l3912 0000  
                                 l3904 038E                                   l3920 0000  
                                 l4392 0293                                   l4376 0000  
                                 l4296 01DB                                   l3738 0000  
                                 l3762 0000                                   l3770 0000  
                                 l3914 0000                                   l3930 0326  
                                 l4394 0000                                   l4378 0000  
                                 l4386 0286                                   l3756 0000  
                                 l3916 0000                                   l3932 0000  
                                 l3924 0000                                   l4396 0298  
                                 l3940 0000                                   l3758 0000  
                                 l3766 0000                                   l3782 0000  
                                 l3870 0000                                   l3918 0000  
                                 l3934 032C                                   l3926 0000  
                                 l3950 0000                                   l3942 0000  
                                 l3696 0000                                   l3784 0000  
                                 l3960 003A                                   l3952 0000  
                                 l3944 0000                                   l3698 0000  
                                 l3890 0000                                   l3874 0000  
                                 l3962 0000                                   l3954 0000  
                                 l3946 0000                                   l3938 0000  
                                 l3788 0000                                   l3868 0437  
                                 l3884 0379                                   l3980 005D  
                                 l3972 0054                                   l3956 0000  
                                 l3948 0000                                   l3894 0385  
                                 l3886 0000                                   l3878 0354  
                                 l3990 0070                                   l3974 0055  
                                 l3966 0000                                   l3958 0000  
                                 _ADIE 046A                                   l3992 0000  
                                 l3984 0063                                   l3968 0048  
                                 _ADIF 006A                                   l3994 0077  
                                 l3986 0000                                   l3978 005A  
                                 l3988 006E                                   l3998 0083  
                                 _ADON 00F8          startTwelveHourTimer@uiSetTime 0056  
                                 _PEIE 005E                   ??_getAdOriginalValue 0058  
                                 _main 000D                                   btemp 007E  
              _clearTwentySecondsTimer 0442                                   start 000B  
              ?_getAdOriginalCh14Value 0056                      main@ucTimerDelay1 004C  
                    main@ucTimerDelay2 004D                      main@ucTimerDelay3 004E  
                    main@ucTimerDelay4 004F                                  ??_ISR 0074  
           __end_of_isPermitSampleTime 04F2                    _sampleChannelSelect 005B  
               ??_getAdOriginaCh4Value 0058                                  ?_main 0070  
                                _DACR0 0088                                  _CLKPR 0108  
                                _T1CON 0010                        __end_of_adc_get 0428  
                                _PAOD7 0C3F                                  _PBOD6 0C46  
                                _TMR1H 000F                                  _TMR1L 000E  
                setAD_ConvertFlag@flag 0056                        __end_of_initPin 0458  
                                _timer 007A                                  pclath 000A  
                                status 0003                                  wtemp0 007E  
       __end_of_getAdOriginalCh14Value 04ED          __size_of_startTwelveHourTimer 0009  
                 __end_of_clrSampeTime 0500                  __end_of_clearAllTimer 043C  
                         __end_of_main 0315                 __size_of_adc_test_init 0015  
                    __end_of_AD_Sample 039C                                 ??_main 005B  
                 _clearPinPortAndTimer 042B                                 _ADCON0 001F  
                               _ADCON1 009F                   __end_of_clock_config 04CF  
                               _DACCON 0087                                 _ADRESH 001E  
                               _ADRESL 009E                                 _CLKPCE 0847  
                               i1l1721 0416                                 i1l1713 03D9  
                               i1l1618 0000                                 i1l1714 03E3  
                               i1l2375 0000                                 i1l3830 0000  
                               i1l3832 0000                                 i1l3850 0000  
                               i1l3826 0000                                 i1l3860 0410  
                               i1l3852 0000                                 i1l3836 0000  
                               i1l3844 03ED                                 i1l3862 0000  
                               i1l3856 0406                                 i1l3848 0000  
                               i1l3866 0000                                 i1l3858 0000  
                     __end_of_dac_init 04F7              ??_clearTwentySecondsTimer 0056  
                               _TMR1IE 0460                                 _TMR1IF 0060  
                    _getAD_ConvertFlag 0332                      _setAD_ConvertFlag 0334  
                               _TRISA0 0428                                 _TRISA1 0429  
                               _TRISB0 0430                                 _TRISA2 042A  
                               _TRISB1 0431                                 _TRISA3 042B  
                               _TRISB2 0432                                 _TRISB3 0433  
                               _TRISB4 0434                                 _TRISA6 042E  
                               _TRISB5 0435                                 _TRISA7 042F  
                               _TRISB6 0436                                 _TRISB7 0437  
                        main@ucTimer1s 0048                     ?_getAD_ConvertFlag 0070  
                   ?_setAD_ConvertFlag 0070                       __end_of_op1_init 049B  
                     __end_of_op2_init 04C7            ??_isFinishedThreeHoursTimer 0056  
        __size_of_clearThreeHoursTimer 0003                              ??_adc_get 0072  
                  ??_getAD_ConvertFlag 0056                    ??_setAD_ConvertFlag 0056  
                               clrloop 04B8                              ??_initPin 0056  
                ?_clearPinPortAndTimer 0070                                 saved_w 007E  
              ??_clearTwelveHoursTimer 0056            ?_process_AD_Converter_Value 0070  
                        _adc_test_init 03A1       __size_of_startTwentySecondsTimer 0004  
            __end_of_getAD_ConvertFlag 0334              __end_of_setAD_ConvertFlag 0339  
                   __size_of_adc_start 0003                         __pcstackCOMMON 0070  
                         __pidataBANK0 0000        __end_of_clearTwentySecondsTimer 0445  
                  main@ucTimerRightP5s 0051              _isFinishedThreeHoursTimer 04CF  
              ??_getAdOriginalCh1Value 0058                _adc_original_CH14_value 002C  
                __end_of_timer1_config 04A5                         ?_adc_test_init 0056  
     __size_of_timer1_interrupt_config 0003                  __size_of_clrSampeTime 0002  
                           __pbssBANK0 0020           __size_ofi1_setAD_ConvertFlag 0003  
                           adc_get@val 0072                             __pmaintext 000D  
                           __pintentry 0004                    main@enumInteralStep 003F  
                            ?_dac_init 0070                 ??_clearPinPortAndTimer 0056  
                __size_of_clock_config 0008                                _OP1CON0 001B  
                              _OP1CON1 001C                                _OP1CON2 001D  
                              _OP2CON0 009B                                _OP2CON1 009C  
                              _OP2CON2 009D                           _clrSampeTime 04FE  
                    __end_of_adc_start 03B9                   _uiTwentySecondsTimer 0076  
                            ?_op1_init 0070                              ?_op2_init 0070  
                   _isPermitSampleTime 04ED                 _buffer_Sample_AD_Value 0020  
                   _adc_original_value 0032          __size_of_startThreeHoursTimer 0009  
           __size_of_getAD_ConvertFlag 0002             __size_of_setAD_ConvertFlag 0005  
                       main@ucTimer20s 0049            __size_of_getAdOriginalValue 0005  
                       main@ucTimerP3s 0050                    ?_isPermitSampleTime 0070  
                           _uiBigTimer 0038                           _clock_config 04C7  
                              _adc_get 041D                    _multiFilterMaxValue 0034  
 __end_of_isFinishedTwentySecondsTimer 04D9  __size_of_isFinishedTwentySecondsTimer 0005  
         _isFinishedTwentySecondsTimer 04D4                    _multiFilterMinValue 0036  
                 ??_isPermitSampleTime 0056           __end_of_startTwelveHourTimer 04B7  
                           ??_dac_init 0056                              _AD_Sample 0339  
                         __size_of_ISR 005A                                _initPin 0445  
        __size_of_getAdOriginaCh4Value 0005                        ??_adc_test_init 0057  
                           ??_op1_init 0056                             ??_op2_init 0056  
              _startTwentySecondsTimer 04F7                   end_of_initialization 0465  
                     main@ucLoaderStep 0043                             ?_AD_Sample 0070  
        ?_isFinishedTwentySecondsTimer 0070                   main@enumMainLoopStep 0040  
                   main@ucChannel4Type 0042           ??_isFinishedTwelveHoursTimer 0056  
                     _adc_convert_flag 0079                 __size_of_clearAllTimer 0005  
         __end_of_clearThreeHoursTimer 0442                 main@ucTimerADC1ZeroP5s 004A  
       __size_of_clearTwelveHoursTimer 0003                _timer1_interrupt_config 04FB  
        __end_of_clearTwelveHoursTimer 043F     __size_of_isFinishedThreeHoursTimer 0005  
                       AD_Sample@index 005A                       main@ucTimerX1P5s 0052  
                     main@ucTimerX2P5s 0053                 main@ucTimerZeroPoint3s 0054  
               main@ucTimerZeroPoint5s 0055                       main@ucTimerDelay 004B  
                      main@ucADC4_Step 0041    __size_of_isFinishedTwelveHoursTimer 0005  
                  i1_setAD_ConvertFlag 0428              ??_startTwentySecondsTimer 0056  
                  start_initialization 0458                            __end_of_ISR 041D  
             ?_clearTwentySecondsTimer 0070         __size_of_getAdOriginalCh1Value 0005  
        __end_of_getAdOriginalCh1Value 04E8               ??_getAdOriginalCh14Value 0058  
                 ?i1_setAD_ConvertFlag 0070                   _startTwelveHourTimer 04AE  
    __end_of_isFinishedThreeHoursTimer 04D4                     main@enumBranchStep 003E  
                        _clearAllTimer 0437                            __pdataBANK0 005B  
                          ??_AD_Sample 0058              ??_timer1_interrupt_config 0056  
                          __pbssCOMMON 0076                      __size_of_dac_init 0005  
                        __pcstackBANK0 0056         ??_isFinishedTwentySecondsTimer 0056  
                            _adc_start 03B6                      __size_of_op1_init 000B  
                    __size_of_op2_init 0008                  ??i1_setAD_ConvertFlag 0070  
                ?_startTwelveHourTimer 0056        __end_of_startTwentySecondsTimer 04FB  
                       ?_clearAllTimer 0070                 __size_of_timer1_config 000A  
                 _clearThreeHoursTimer 043F           __end_of_startThreeHoursTimer 04AE  
                            __ptext601 0315                              __ptext610 04D4  
                            __ptext602 042B                              __ptext611 04D9  
                            __ptext603 0339                              __ptext620 04BF  
                            __ptext612 04F7                              __ptext604 0437  
                            __ptext621 0490                              __ptext613 04DE  
                            __ptext605 039C                              __ptext630 043C  
                            __ptext622 04F2                              __ptext614 04AE  
                            __ptext606 0334                              __ptext631 03C3  
                            __ptext623 03A1                              __ptext615 04E3  
                            __ptext607 0332                              __ptext632 0428  
                            __ptext624 04FB                              __ptext616 04E8  
                            __ptext608 04CF                              __ptext633 041D  
                            __ptext625 049B                              __ptext617 04FE  
                            __ptext609 04A5                              __ptext634 0000  
                            __ptext626 04C7                              __ptext618 04ED  
                            __ptext627 0445                              __ptext619 03B6  
                            __ptext628 0442                              __ptext629 043F  
                             ?_adc_get 0070                 _adc_original_CH1_value 002E  
               _adc_original_CH4_value 0030                              __pswtext1 0468  
                            __pswtext2 0476                              __pswtext3 0484  
   __end_of_isFinishedTwelveHoursTimer 04E3             _isFinishedTwelveHoursTimer 04DE  
                      ISR@ucTimer1sCnt 0078                               ?_initPin 0070  
        __size_of_clearPinPortAndTimer 000C             __end_of_getAdOriginalValue 03A1  
                           ?_adc_start 0070        __size_of_getAdOriginalCh14Value 0005  
                    interrupt_function 0004           __end_of_getAdOriginaCh4Value 04DE  
      __end_of_timer1_interrupt_config 04FE                  ?_clearThreeHoursTimer 0070  
                 adc_test_init@channel 0058            __size_of_isPermitSampleTime 0005  
                         _uiSmallTimer 003A                  __end_of_adc_test_init 03B6  
                        _timer1_config 049B           ??_process_AD_Converter_Value 005B  
               ??_startTwelveHourTimer 0058                        ??_clearAllTimer 0056  
               _getAdOriginalCh14Value 04E8                       __size_of_adc_get 000B  
  __size_of_process_AD_Converter_Value 001D                               _dac_init 04F2  
                     __size_of_initPin 0013                       main@cTimer1s_809 003D  
                       ?_timer1_config 0070                               _op1_init 0490  
                             _op2_init 04BF                            ??_adc_start 0056  
                 _startThreeHoursTimer 04A5                  _clearTwelveHoursTimer 043C  
                        __size_of_main 0308                               clear_ram 04B7  
               ??_clearThreeHoursTimer 0056       __size_of_clearTwentySecondsTimer 0003  
                        ?_clrSampeTime 0070                   _getAdOriginaCh4Value 04D9  
                          _sampleTimes 003C                  ?_startThreeHoursTimer 0056  
                             intlevel1 0000                  _getAdOriginalCh1Value 04E3  
           ?_isFinishedThreeHoursTimer 0070                      main@ucLoaderStep1 0044  
                    main@ucLoaderStep2 0045                      main@ucLoaderStep3 0046  
                    main@ucLoaderStep4 0047                          ?_clock_config 0070  
             ?_startTwentySecondsTimer 0070          startThreeHoursTimer@uiSetTime 0056  
              i1setAD_ConvertFlag@flag 0070                         ??_clrSampeTime 0056  
          ?_isFinishedTwelveHoursTimer 0070                  ?_getAdOriginaCh4Value 0056  
                      ??_timer1_config 0056            __end_ofi1_setAD_ConvertFlag 042B  
   __end_of_process_AD_Converter_Value 0332             _process_AD_Converter_Value 0315  
               ?_clearTwelveHoursTimer 0070                       adc_test_init@ref 0056  
         __end_of_clearPinPortAndTimer 0437                     _getAdOriginalValue 039C  
