opt subtitle "HI-TECH Software Omniscient Code Generator (PRO mode) build 10920"

opt pagewidth 120

	opt pm

	processor	16C77
clrc	macro
	bcf	3,0
	endm
clrz	macro
	bcf	3,2
	endm
setc	macro
	bsf	3,0
	endm
setz	macro
	bsf	3,2
	endm
skipc	macro
	btfss	3,0
	endm
skipz	macro
	btfss	3,2
	endm
skipnc	macro
	btfsc	3,0
	endm
skipnz	macro
	btfsc	3,2
	endm
indf	equ	0
indf0	equ	0
pc	equ	2
pcl	equ	2
status	equ	3
fsr	equ	4
fsr0	equ	4
c	equ	1
z	equ	0
pclath	equ	10
# 70 "D:\develop\190625\AK7030-OTP\main.c"
	psect config,class=CONFIG,delta=2 ;#
# 70 "D:\develop\190625\AK7030-OTP\main.c"
	dw 0x2FFF & 0x3FFF & 0x3FFF & 0x3FFF & 0x3FFF & 0x3FFF ;#
# 71 "D:\develop\190625\AK7030-OTP\main.c"
	psect config,class=CONFIG,delta=2 ;#
# 71 "D:\develop\190625\AK7030-OTP\main.c"
	dw 0x3FFF & 0x3FDF & 0x3FFF & 0x3FFE ;#
# 72 "D:\develop\190625\AK7030-OTP\main.c"
	psect config,class=CONFIG,delta=2 ;#
# 72 "D:\develop\190625\AK7030-OTP\main.c"
	dw 0X3FFF & 0x3FFF & 0x3FFF & 0x3FF8 ;#
	FNCALL	_main,_initPin
	FNCALL	_main,_clock_config
	FNCALL	_main,_timer1_config
	FNCALL	_main,_timer1_interrupt_config
	FNCALL	_main,_adc_test_init
	FNCALL	_main,_dac_init
	FNCALL	_main,_op1_init
	FNCALL	_main,_op2_init
	FNCALL	_main,_adc_start
	FNROOT	_main
	FNCALL	_ISR,_setAD_ConvertFlag
	FNCALL	_ISR,_adc_get
	FNCALL	_ISR,_vPutSampleDataIntoTable
	FNCALL	intlevel1,_ISR
	global	intlevel1
	FNROOT	intlevel1
	global	_sampleChannelSelect
psect	idataBANK0,class=CODE,space=0,delta=2
global __pidataBANK0
__pidataBANK0:
	file	"D:\develop\190625\AK7030-OTP\common.c"
	line	24

;initializer for _sampleChannelSelect
	retlw	0Eh
	global	_uiBigTimer
	global	_uiSmallTimer
	global	_uiTwentySecondsTimer
	global	ISR@ucTimer1sCnt
	global	vPutSampleDataIntoTable@ucChannelFourteenthLength
	global	vPutSampleDataIntoTable@ucChannelFourthLength
	global	vPutSampleDataIntoTable@ucChannelFirstLength
	global	_uiSampleChannelFirst
	global	_uiSampleChannelFourth
	global	_uiSampleChannelFourteenth
	global	_ADCON0
_ADCON0	set	31
	global	_ADRESH
_ADRESH	set	30
	global	_OP1CON0
_OP1CON0	set	27
	global	_OP1CON1
_OP1CON1	set	28
	global	_OP1CON2
_OP1CON2	set	29
	global	_T1CON
_T1CON	set	16
	global	_TMR1H
_TMR1H	set	15
	global	_TMR1L
_TMR1L	set	14
	global	_ADIF
_ADIF	set	106
	global	_ADON
_ADON	set	248
	global	_GIE
_GIE	set	95
	global	_GO
_GO	set	249
	global	_PA0
_PA0	set	40
	global	_PA1
_PA1	set	41
	global	_PA2
_PA2	set	42
	global	_PA3
_PA3	set	43
	global	_PA6
_PA6	set	46
	global	_PB0
_PB0	set	48
	global	_PB1
_PB1	set	49
	global	_PB6
_PB6	set	54
	global	_PB7
_PB7	set	55
	global	_PEIE
_PEIE	set	94
	global	_TMR1IF
_TMR1IF	set	96
	global	_ADCON1
_ADCON1	set	159
	global	_ADRESL
_ADRESL	set	158
	global	_DACCON
_DACCON	set	135
	global	_DACR0
_DACR0	set	136
	global	_OP2CON0
_OP2CON0	set	155
	global	_OP2CON1
_OP2CON1	set	156
	global	_OP2CON2
_OP2CON2	set	157
	global	_ADIE
_ADIE	set	1130
	global	_TMR1IE
_TMR1IE	set	1120
	global	_TRISA0
_TRISA0	set	1064
	global	_TRISA1
_TRISA1	set	1065
	global	_TRISA2
_TRISA2	set	1066
	global	_TRISA3
_TRISA3	set	1067
	global	_TRISA6
_TRISA6	set	1070
	global	_TRISA7
_TRISA7	set	1071
	global	_TRISB0
_TRISB0	set	1072
	global	_TRISB1
_TRISB1	set	1073
	global	_TRISB2
_TRISB2	set	1074
	global	_TRISB3
_TRISB3	set	1075
	global	_TRISB4
_TRISB4	set	1076
	global	_TRISB5
_TRISB5	set	1077
	global	_TRISB6
_TRISB6	set	1078
	global	_TRISB7
_TRISB7	set	1079
	global	_CLKPR
_CLKPR	set	264
	global	_CLKPCE
_CLKPCE	set	2119
	global	_PBOD6
_PBOD6	set	3142
	global	_PBOD7
_PBOD7	set	3143
	file	"ProjTest.as"
	line	#
psect cinit,class=CODE,delta=2
global start_initialization
start_initialization:

psect	bssCOMMON,class=COMMON,space=1
global __pbssCOMMON
__pbssCOMMON:
vPutSampleDataIntoTable@ucChannelFirstLength:
       ds      1

psect	bssBANK0,class=BANK0,space=1
global __pbssBANK0
__pbssBANK0:
_uiBigTimer:
       ds      2

_uiSmallTimer:
       ds      2

_uiTwentySecondsTimer:
       ds      2

ISR@ucTimer1sCnt:
       ds      1

vPutSampleDataIntoTable@ucChannelFourteenthLength:
       ds      1

vPutSampleDataIntoTable@ucChannelFourthLength:
       ds      1

_uiSampleChannelFirst:
       ds      24

_uiSampleChannelFourth:
       ds      24

psect	dataBANK0,class=BANK0,space=1
global __pdataBANK0
__pdataBANK0:
	file	"D:\develop\190625\AK7030-OTP\common.c"
_sampleChannelSelect:
       ds      1

psect	bssBANK1,class=BANK1,space=1
global __pbssBANK1
__pbssBANK1:
_uiSampleChannelFourteenth:
       ds      24

psect clrtext,class=CODE,delta=2
global clear_ram
;	Called with FSR containing the base address, and
;	W with the last address+1
clear_ram:
	clrwdt			;clear the watchdog before getting into this loop
clrloop:
	clrf	indf		;clear RAM location pointed to by FSR
	incf	fsr,f		;increment pointer
	xorwf	fsr,w		;XOR with final address
	btfsc	status,2	;have we reached the end yet?
	retlw	0		;all done for this memory range, return
	xorwf	fsr,w		;XOR again to restore value
	goto	clrloop		;do the next byte

; Clear objects allocated to COMMON
psect cinit,class=CODE,delta=2
	clrf	((__pbssCOMMON)+0)&07Fh
; Clear objects allocated to BANK0
psect cinit,class=CODE,delta=2
	bcf	status, 7	;select IRP bank0
	movlw	low(__pbssBANK0)
	movwf	fsr
	movlw	low((__pbssBANK0)+039h)
	fcall	clear_ram
; Clear objects allocated to BANK1
psect cinit,class=CODE,delta=2
	movlw	low(__pbssBANK1)
	movwf	fsr
	movlw	low((__pbssBANK1)+018h)
	fcall	clear_ram
; Initialize objects allocated to BANK0
	global __pidataBANK0
psect cinit,class=CODE,delta=2
	fcall	__pidataBANK0+0		;fetch initializer
	movwf	__pdataBANK0+0&07fh		
psect cinit,class=CODE,delta=2
global end_of_initialization

;End of C runtime variable initialization code

end_of_initialization:
clrf status
ljmp _main	;jump to C main() function
psect	cstackCOMMON,class=COMMON,space=1
global __pcstackCOMMON
__pcstackCOMMON:
	global	?_clock_config
?_clock_config:	; 0 bytes @ 0x0
	global	?_timer1_config
?_timer1_config:	; 0 bytes @ 0x0
	global	?_timer1_interrupt_config
?_timer1_interrupt_config:	; 0 bytes @ 0x0
	global	?_dac_init
?_dac_init:	; 0 bytes @ 0x0
	global	?_op1_init
?_op1_init:	; 0 bytes @ 0x0
	global	?_op2_init
?_op2_init:	; 0 bytes @ 0x0
	global	?_adc_start
?_adc_start:	; 0 bytes @ 0x0
	global	?_initPin
?_initPin:	; 0 bytes @ 0x0
	global	?_main
?_main:	; 0 bytes @ 0x0
	global	?_setAD_ConvertFlag
?_setAD_ConvertFlag:	; 0 bytes @ 0x0
	global	??_setAD_ConvertFlag
??_setAD_ConvertFlag:	; 0 bytes @ 0x0
	global	?_ISR
?_ISR:	; 0 bytes @ 0x0
	global	?_adc_get
?_adc_get:	; 2 bytes @ 0x0
	global	setAD_ConvertFlag@flag
setAD_ConvertFlag@flag:	; 1 bytes @ 0x0
	ds	2
	global	??_adc_get
??_adc_get:	; 0 bytes @ 0x2
	global	adc_get@val
adc_get@val:	; 2 bytes @ 0x2
	ds	2
	global	?_vPutSampleDataIntoTable
?_vPutSampleDataIntoTable:	; 0 bytes @ 0x4
	global	vPutSampleDataIntoTable@uiSampleData
vPutSampleDataIntoTable@uiSampleData:	; 2 bytes @ 0x4
	ds	2
	global	vPutSampleDataIntoTable@channel
vPutSampleDataIntoTable@channel:	; 1 bytes @ 0x6
	ds	1
	global	??_vPutSampleDataIntoTable
??_vPutSampleDataIntoTable:	; 0 bytes @ 0x7
	global	vPutSampleDataIntoTable@i
vPutSampleDataIntoTable@i:	; 2 bytes @ 0x7
	ds	2
	global	??_ISR
??_ISR:	; 0 bytes @ 0x9
	ds	4
psect	cstackBANK0,class=BANK0,space=1
global __pcstackBANK0
__pcstackBANK0:
	global	??_clock_config
??_clock_config:	; 0 bytes @ 0x0
	global	??_timer1_config
??_timer1_config:	; 0 bytes @ 0x0
	global	??_timer1_interrupt_config
??_timer1_interrupt_config:	; 0 bytes @ 0x0
	global	?_adc_test_init
?_adc_test_init:	; 0 bytes @ 0x0
	global	??_dac_init
??_dac_init:	; 0 bytes @ 0x0
	global	??_op1_init
??_op1_init:	; 0 bytes @ 0x0
	global	??_op2_init
??_op2_init:	; 0 bytes @ 0x0
	global	??_adc_start
??_adc_start:	; 0 bytes @ 0x0
	global	??_initPin
??_initPin:	; 0 bytes @ 0x0
	global	adc_test_init@ref
adc_test_init@ref:	; 1 bytes @ 0x0
	ds	1
	global	??_adc_test_init
??_adc_test_init:	; 0 bytes @ 0x1
	ds	1
	global	adc_test_init@channel
adc_test_init@channel:	; 1 bytes @ 0x2
	ds	1
	global	??_main
??_main:	; 0 bytes @ 0x3
;;Data sizes: Strings 0, constant 0, data 1, bss 82, persistent 0 stack 0
;;Auto spaces:   Size  Autos    Used
;; COMMON          14     13      14
;; BANK0           80      3      61
;; BANK1           80      0      24
;; BANK3           96      0       0
;; BANK2           96      0       0

;;
;; Pointer list with targets:

;; ?_adc_get	unsigned int  size(1) Largest target is 0
;;


;;
;; Critical Paths under _main in COMMON
;;
;;   None.
;;
;; Critical Paths under _ISR in COMMON
;;
;;   _ISR->_vPutSampleDataIntoTable
;;   _vPutSampleDataIntoTable->_adc_get
;;
;; Critical Paths under _main in BANK0
;;
;;   _main->_adc_test_init
;;
;; Critical Paths under _ISR in BANK0
;;
;;   None.
;;
;; Critical Paths under _main in BANK1
;;
;;   None.
;;
;; Critical Paths under _ISR in BANK1
;;
;;   None.
;;
;; Critical Paths under _main in BANK3
;;
;;   None.
;;
;; Critical Paths under _ISR in BANK3
;;
;;   None.
;;
;; Critical Paths under _main in BANK2
;;
;;   None.
;;
;; Critical Paths under _ISR in BANK2
;;
;;   None.

;;
;;Main: autosize = 0, tempsize = 0, incstack = 0, save=0
;;

;;
;;Call Graph Tables:
;;
;; ---------------------------------------------------------------------------------
;; (Depth) Function   	        Calls       Base Space   Used Autos Params    Refs
;; ---------------------------------------------------------------------------------
;; (0) _main                                                 0     0      0      44
;;                            _initPin
;;                       _clock_config
;;                      _timer1_config
;;            _timer1_interrupt_config
;;                      _adc_test_init
;;                           _dac_init
;;                           _op1_init
;;                           _op2_init
;;                          _adc_start
;; ---------------------------------------------------------------------------------
;; (1) _adc_start                                            0     0      0       0
;; ---------------------------------------------------------------------------------
;; (1) _op2_init                                             0     0      0       0
;; ---------------------------------------------------------------------------------
;; (1) _op1_init                                             0     0      0       0
;; ---------------------------------------------------------------------------------
;; (1) _dac_init                                             0     0      0       0
;; ---------------------------------------------------------------------------------
;; (1) _adc_test_init                                        3     2      1      44
;;                                              0 BANK0      3     2      1
;; ---------------------------------------------------------------------------------
;; (1) _timer1_interrupt_config                              0     0      0       0
;; ---------------------------------------------------------------------------------
;; (1) _timer1_config                                        0     0      0       0
;; ---------------------------------------------------------------------------------
;; (1) _clock_config                                         0     0      0       0
;; ---------------------------------------------------------------------------------
;; (1) _initPin                                              0     0      0       0
;; ---------------------------------------------------------------------------------
;; Estimated maximum stack depth 1
;; ---------------------------------------------------------------------------------
;; (Depth) Function   	        Calls       Base Space   Used Autos Params    Refs
;; ---------------------------------------------------------------------------------
;; (2) _ISR                                                  4     4      0     345
;;                                              9 COMMON     4     4      0
;;                  _setAD_ConvertFlag
;;                            _adc_get
;;            _vPutSampleDataIntoTable
;; ---------------------------------------------------------------------------------
;; (3) _adc_get                                              4     2      2      24
;;                                              0 COMMON     4     2      2
;; ---------------------------------------------------------------------------------
;; (3) _setAD_ConvertFlag                                    1     1      0      11
;;                                              0 COMMON     1     1      0
;; ---------------------------------------------------------------------------------
;; (3) _vPutSampleDataIntoTable                              5     2      3     310
;;                                              4 COMMON     5     2      3
;;                            _adc_get (ARG)
;; ---------------------------------------------------------------------------------
;; Estimated maximum stack depth 3
;; ---------------------------------------------------------------------------------

;; Call Graph Graphs:

;; _main (ROOT)
;;   _initPin
;;   _clock_config
;;   _timer1_config
;;   _timer1_interrupt_config
;;   _adc_test_init
;;   _dac_init
;;   _op1_init
;;   _op2_init
;;   _adc_start
;;
;; _ISR (ROOT)
;;   _setAD_ConvertFlag
;;   _adc_get
;;   _vPutSampleDataIntoTable
;;     _adc_get (ARG)
;;

;; Address spaces:

;;Name               Size   Autos  Total    Cost      Usage
;;BANK3               60      0       0      10        0.0%
;;BITBANK3            60      0       0       9        0.0%
;;SFR3                 0      0       0       4        0.0%
;;BITSFR3              0      0       0       4        0.0%
;;BANK2               60      0       0      12        0.0%
;;BITBANK2            60      0       0      11        0.0%
;;SFR2                 0      0       0       5        0.0%
;;BITSFR2              0      0       0       5        0.0%
;;SFR1                 0      0       0       2        0.0%
;;BITSFR1              0      0       0       2        0.0%
;;BANK1               50      0      18       8       30.0%
;;BITBANK1            50      0       0       7        0.0%
;;CODE                 0      0       0       0        0.0%
;;DATA                 0      0      68       6        0.0%
;;ABS                  0      0      63       3        0.0%
;;NULL                 0      0       0       0        0.0%
;;STACK                0      0       5       2        0.0%
;;BANK0               50      3      3D       5       76.3%
;;BITBANK0            50      0       0       4        0.0%
;;SFR0                 0      0       0       1        0.0%
;;BITSFR0              0      0       0       1        0.0%
;;COMMON               E      D       E       1      100.0%
;;BITCOMMON            E      0       0       0        0.0%

	global	_main
psect	maintext,global,class=CODE,delta=2
global __pmaintext
__pmaintext:

;; *************** function _main *****************
;; Defined at:
;;		line 137 in file "D:\develop\190625\AK7030-OTP\main.c"
;; Parameters:    Size  Location     Type
;;		None
;; Auto vars:     Size  Location     Type
;;		None
;; Return value:  Size  Location     Type
;;		None               void
;; Registers used:
;;		wreg, status,2, status,0, pclath, cstack
;; Tracked objects:
;;		On entry : 17F/0
;;		On exit  : 0/0
;;		Unchanged: FFE00/0
;; Data sizes:     COMMON   BANK0   BANK1   BANK3   BANK2
;;      Params:         0       0       0       0       0
;;      Locals:         0       0       0       0       0
;;      Temps:          0       0       0       0       0
;;      Totals:         0       0       0       0       0
;;Total ram usage:        0 bytes
;; Hardware stack levels required when called:    3
;; This function calls:
;;		_initPin
;;		_clock_config
;;		_timer1_config
;;		_timer1_interrupt_config
;;		_adc_test_init
;;		_dac_init
;;		_op1_init
;;		_op2_init
;;		_adc_start
;; This function is called by:
;;		Startup code after reset
;; This function uses a non-reentrant model
;;
psect	maintext
	file	"D:\develop\190625\AK7030-OTP\main.c"
	line	137
	global	__size_of_main
	__size_of_main	equ	__end_of_main-_main
	
_main:	
	opt	stack 5
; Regs used in _main: [wreg+status,2+status,0+pclath+cstack]
	line	162
	
l2785:	
;main.c: 138: enum setp_Adc4
;main.c: 139: {
;main.c: 140: ADC4_STEP_INIT = 0,
;main.c: 141: ADC4_STEP_FIRST,
;main.c: 142: ADC4_STEP_SECOND,
;main.c: 143: ADC4_STEP_THIRD,
;main.c: 144: ADC4_STEP_FOURTH,
;main.c: 145: ADC4_STEP_FIFTH,
;main.c: 146: ADC4_STEP_SIXTH,
;main.c: 147: };
;main.c: 150: static unsigned char ucWaitTime1S = 0;
;main.c: 152: static unsigned char ucWaitTimeO3s = 0;
;main.c: 154: static unsigned char ucSmallTimerActionFlag = 0;
;main.c: 156: static unsigned char ucSetSmallActionFlag = 0;
	bsf	status, 5	;RP0=1, select bank1
	bcf	(1064/8)^080h,(1064)&7
	line	163
;main.c: 163: TRISA1 = 0;
	bcf	(1065/8)^080h,(1065)&7
	line	164
;main.c: 164: TRISA2 = 0;
	bcf	(1066/8)^080h,(1066)&7
	line	165
;main.c: 165: TRISA3 = 0;
	bcf	(1067/8)^080h,(1067)&7
	line	166
;main.c: 166: TRISB0 = 0;
	bcf	(1072/8)^080h,(1072)&7
	line	167
;main.c: 167: TRISB1 = 0;
	bcf	(1073/8)^080h,(1073)&7
	line	168
;main.c: 168: TRISA6 = 0;
	bcf	(1070/8)^080h,(1070)&7
	line	170
;main.c: 170: TRISB7 = 0;
	bcf	(1079/8)^080h,(1079)&7
	line	171
;main.c: 171: TRISB6 = 0;
	bcf	(1078/8)^080h,(1078)&7
	line	174
	
l2787:	
;main.c: 174: initPin();
	fcall	_initPin
	line	177
	
l2789:	
;main.c: 177: TRISB2 = 1;
	bcf	status, 6	;RP1=0, select bank1
	bsf	(1074/8)^080h,(1074)&7
	line	180
	
l2791:	
;main.c: 180: TRISA7 = 1;
	bsf	(1071/8)^080h,(1071)&7
	line	182
	
l2793:	
;main.c: 182: TRISB4 = 1;
	bsf	(1076/8)^080h,(1076)&7
	line	184
	
l2795:	
;main.c: 184: clock_config();
	fcall	_clock_config
	line	185
	
l2797:	
;main.c: 185: timer1_config();
	fcall	_timer1_config
	line	186
;main.c: 186: timer1_interrupt_config();
	fcall	_timer1_interrupt_config
	line	188
	
l2799:	
;main.c: 188: adc_test_init(14,3);
	movlw	(03h)
	bcf	status, 5	;RP0=0, select bank0
	movwf	(?_adc_test_init)
	movlw	(0Eh)
	fcall	_adc_test_init
	line	190
	
l2801:	
;main.c: 190: dac_init();
	fcall	_dac_init
	line	191
	
l2803:	
;main.c: 191: op1_init();
	fcall	_op1_init
	line	192
	
l2805:	
;main.c: 192: op2_init();
	fcall	_op2_init
	line	195
;main.c: 195: adc_start();
	fcall	_adc_start
	line	233
	
l2807:	
# 233 "D:\develop\190625\AK7030-OTP\main.c"
 clrwdt ;#
psect	maintext
	goto	l2807
	global	start
	ljmp	start
	opt stack 0
psect	maintext
	line	1262
GLOBAL	__end_of_main
	__end_of_main:
;; =============== function _main ends ============

	signat	_main,88
	global	_adc_start
psect	text303,local,class=CODE,delta=2
global __ptext303
__ptext303:

;; *************** function _adc_start *****************
;; Defined at:
;;		line 100 in file "D:\develop\190625\AK7030-OTP\periph.c"
;; Parameters:    Size  Location     Type
;;		None
;; Auto vars:     Size  Location     Type
;;		None
;; Return value:  Size  Location     Type
;;		None               void
;; Registers used:
;;		None
;; Tracked objects:
;;		On entry : 17F/20
;;		On exit  : 17F/0
;;		Unchanged: FFE80/0
;; Data sizes:     COMMON   BANK0   BANK1   BANK3   BANK2
;;      Params:         0       0       0       0       0
;;      Locals:         0       0       0       0       0
;;      Temps:          0       0       0       0       0
;;      Totals:         0       0       0       0       0
;;Total ram usage:        0 bytes
;; Hardware stack levels used:    1
;; Hardware stack levels required when called:    2
;; This function calls:
;;		Nothing
;; This function is called by:
;;		_main
;; This function uses a non-reentrant model
;;
psect	text303
	file	"D:\develop\190625\AK7030-OTP\periph.c"
	line	100
	global	__size_of_adc_start
	__size_of_adc_start	equ	__end_of_adc_start-_adc_start
	
_adc_start:	
	opt	stack 5
; Regs used in _adc_start: []
	line	101
	
l2697:	
;periph.c: 101: GO=1;
	bcf	status, 5	;RP0=0, select bank0
	bsf	(249/8),(249)&7
	line	102
	
l2137:	
	return
	opt stack 0
GLOBAL	__end_of_adc_start
	__end_of_adc_start:
;; =============== function _adc_start ends ============

	signat	_adc_start,88
	global	_op2_init
psect	text304,local,class=CODE,delta=2
global __ptext304
__ptext304:

;; *************** function _op2_init *****************
;; Defined at:
;;		line 45 in file "D:\develop\190625\AK7030-OTP\periph.c"
;; Parameters:    Size  Location     Type
;;		None
;; Auto vars:     Size  Location     Type
;;		None
;; Return value:  Size  Location     Type
;;		None               void
;; Registers used:
;;		wreg
;; Tracked objects:
;;		On entry : 17F/20
;;		On exit  : 17F/20
;;		Unchanged: FFE80/0
;; Data sizes:     COMMON   BANK0   BANK1   BANK3   BANK2
;;      Params:         0       0       0       0       0
;;      Locals:         0       0       0       0       0
;;      Temps:          0       0       0       0       0
;;      Totals:         0       0       0       0       0
;;Total ram usage:        0 bytes
;; Hardware stack levels used:    1
;; Hardware stack levels required when called:    2
;; This function calls:
;;		Nothing
;; This function is called by:
;;		_main
;; This function uses a non-reentrant model
;;
psect	text304
	file	"D:\develop\190625\AK7030-OTP\periph.c"
	line	45
	global	__size_of_op2_init
	__size_of_op2_init	equ	__end_of_op2_init-_op2_init
	
_op2_init:	
	opt	stack 5
; Regs used in _op2_init: [wreg]
	line	52
	
l2695:	
;periph.c: 52: OP2CON1=0x14;
	movlw	(014h)
	movwf	(156)^080h	;volatile
	line	54
;periph.c: 54: OP2CON2=0x10;
	movlw	(010h)
	movwf	(157)^080h	;volatile
	line	55
;periph.c: 55: OP2CON0=0x80;
	movlw	(080h)
	movwf	(155)^080h	;volatile
	line	61
	
l2123:	
	return
	opt stack 0
GLOBAL	__end_of_op2_init
	__end_of_op2_init:
;; =============== function _op2_init ends ============

	signat	_op2_init,88
	global	_op1_init
psect	text305,local,class=CODE,delta=2
global __ptext305
__ptext305:

;; *************** function _op1_init *****************
;; Defined at:
;;		line 26 in file "D:\develop\190625\AK7030-OTP\periph.c"
;; Parameters:    Size  Location     Type
;;		None
;; Auto vars:     Size  Location     Type
;;		None
;; Return value:  Size  Location     Type
;;		None               void
;; Registers used:
;;		wreg
;; Tracked objects:
;;		On entry : 17F/20
;;		On exit  : 17F/20
;;		Unchanged: FFE80/0
;; Data sizes:     COMMON   BANK0   BANK1   BANK3   BANK2
;;      Params:         0       0       0       0       0
;;      Locals:         0       0       0       0       0
;;      Temps:          0       0       0       0       0
;;      Totals:         0       0       0       0       0
;;Total ram usage:        0 bytes
;; Hardware stack levels used:    1
;; Hardware stack levels required when called:    2
;; This function calls:
;;		Nothing
;; This function is called by:
;;		_main
;; This function uses a non-reentrant model
;;
psect	text305
	file	"D:\develop\190625\AK7030-OTP\periph.c"
	line	26
	global	__size_of_op1_init
	__size_of_op1_init	equ	__end_of_op1_init-_op1_init
	
_op1_init:	
	opt	stack 5
; Regs used in _op1_init: [wreg]
	line	33
	
l2689:	
;periph.c: 33: OP1CON1=0x02;
	movlw	(02h)
	bcf	status, 5	;RP0=0, select bank0
	movwf	(28)	;volatile
	line	34
;periph.c: 34: OP1CON2=0xA0;
	movlw	(0A0h)
	movwf	(29)	;volatile
	line	35
;periph.c: 35: OP1CON0=0x80;
	movlw	(080h)
	movwf	(27)	;volatile
	line	38
	
l2691:	
;periph.c: 38: TRISB3=1;
	bsf	status, 5	;RP0=1, select bank1
	bsf	(1075/8)^080h,(1075)&7
	line	40
	
l2693:	
;periph.c: 40: TRISB5=0;
	bcf	(1077/8)^080h,(1077)&7
	line	41
	
l2120:	
	return
	opt stack 0
GLOBAL	__end_of_op1_init
	__end_of_op1_init:
;; =============== function _op1_init ends ============

	signat	_op1_init,88
	global	_dac_init
psect	text306,local,class=CODE,delta=2
global __ptext306
__ptext306:

;; *************** function _dac_init *****************
;; Defined at:
;;		line 14 in file "D:\develop\190625\AK7030-OTP\periph.c"
;; Parameters:    Size  Location     Type
;;		None
;; Auto vars:     Size  Location     Type
;;		None
;; Return value:  Size  Location     Type
;;		None               void
;; Registers used:
;;		wreg
;; Tracked objects:
;;		On entry : 17F/20
;;		On exit  : 17F/20
;;		Unchanged: FFE80/0
;; Data sizes:     COMMON   BANK0   BANK1   BANK3   BANK2
;;      Params:         0       0       0       0       0
;;      Locals:         0       0       0       0       0
;;      Temps:          0       0       0       0       0
;;      Totals:         0       0       0       0       0
;;Total ram usage:        0 bytes
;; Hardware stack levels used:    1
;; Hardware stack levels required when called:    2
;; This function calls:
;;		Nothing
;; This function is called by:
;;		_main
;; This function uses a non-reentrant model
;;
psect	text306
	file	"D:\develop\190625\AK7030-OTP\periph.c"
	line	14
	global	__size_of_dac_init
	__size_of_dac_init	equ	__end_of_dac_init-_dac_init
	
_dac_init:	
	opt	stack 5
; Regs used in _dac_init: [wreg]
	line	15
	
l2683:	
;periph.c: 15: DACCON|=2;
	bsf	(135)^080h+(1/8),(1)&7	;volatile
	line	17
	
l2685:	
;periph.c: 17: DACR0=0x1B;
	movlw	(01Bh)
	movwf	(136)^080h	;volatile
	line	18
	
l2687:	
;periph.c: 18: DACCON|=(1)<<2;
	bsf	(135)^080h+(2/8),(2)&7	;volatile
	line	22
	
l2117:	
	return
	opt stack 0
GLOBAL	__end_of_dac_init
	__end_of_dac_init:
;; =============== function _dac_init ends ============

	signat	_dac_init,88
	global	_adc_test_init
psect	text307,local,class=CODE,delta=2
global __ptext307
__ptext307:

;; *************** function _adc_test_init *****************
;; Defined at:
;;		line 85 in file "D:\develop\190625\AK7030-OTP\periph.c"
;; Parameters:    Size  Location     Type
;;  channel         1    wreg     unsigned char 
;;  ref             1    0[BANK0 ] unsigned char 
;; Auto vars:     Size  Location     Type
;;  channel         1    2[BANK0 ] unsigned char 
;; Return value:  Size  Location     Type
;;		None               void
;; Registers used:
;;		wreg, status,2, status,0
;; Tracked objects:
;;		On entry : 17F/0
;;		On exit  : 17F/20
;;		Unchanged: FFE80/0
;; Data sizes:     COMMON   BANK0   BANK1   BANK3   BANK2
;;      Params:         0       1       0       0       0
;;      Locals:         0       1       0       0       0
;;      Temps:          0       1       0       0       0
;;      Totals:         0       3       0       0       0
;;Total ram usage:        3 bytes
;; Hardware stack levels used:    1
;; Hardware stack levels required when called:    2
;; This function calls:
;;		Nothing
;; This function is called by:
;;		_main
;; This function uses a non-reentrant model
;;
psect	text307
	file	"D:\develop\190625\AK7030-OTP\periph.c"
	line	85
	global	__size_of_adc_test_init
	__size_of_adc_test_init	equ	__end_of_adc_test_init-_adc_test_init
	
_adc_test_init:	
	opt	stack 5
; Regs used in _adc_test_init: [wreg+status,2+status,0]
;adc_test_init@channel stored from wreg
	movwf	(adc_test_init@channel)
	line	86
	
l2673:	
;periph.c: 86: ADCON0 = 0x00;
	clrf	(31)	;volatile
	line	87
	
l2675:	
;periph.c: 87: ADCON0|=channel<<2;
	movf	(adc_test_init@channel),w
	movwf	(??_adc_test_init+0)+0
	clrc
	rlf	(??_adc_test_init+0)+0,f
	clrc
	rlf	(??_adc_test_init+0)+0,w
	iorwf	(31),f	;volatile
	line	88
	
l2677:	
;periph.c: 88: ADCON1|=ref<<6;
	movf	(adc_test_init@ref),w
	movwf	(??_adc_test_init+0)+0
	rrf	(??_adc_test_init+0)+0,f
	rrf	(??_adc_test_init+0)+0,f
	rrf	(??_adc_test_init+0)+0,w
	andlw	0c0h
	bsf	status, 5	;RP0=1, select bank1
	iorwf	(159)^080h,f	;volatile
	line	89
	
l2679:	
;periph.c: 89: ADON=1;
	bcf	status, 5	;RP0=0, select bank0
	bsf	(248/8),(248)&7
	line	90
	
l2681:	
;periph.c: 90: ADIE=1;
	bsf	status, 5	;RP0=1, select bank1
	bsf	(1130/8)^080h,(1130)&7
	line	91
	
l2131:	
	return
	opt stack 0
GLOBAL	__end_of_adc_test_init
	__end_of_adc_test_init:
;; =============== function _adc_test_init ends ============

	signat	_adc_test_init,8312
	global	_timer1_interrupt_config
psect	text308,local,class=CODE,delta=2
global __ptext308
__ptext308:

;; *************** function _timer1_interrupt_config *****************
;; Defined at:
;;		line 192 in file "D:\develop\190625\AK7030-OTP\common.c"
;; Parameters:    Size  Location     Type
;;		None
;; Auto vars:     Size  Location     Type
;;		None
;; Return value:  Size  Location     Type
;;		None               void
;; Registers used:
;;		None
;; Tracked objects:
;;		On entry : 17F/20
;;		On exit  : 17F/20
;;		Unchanged: FFE80/0
;; Data sizes:     COMMON   BANK0   BANK1   BANK3   BANK2
;;      Params:         0       0       0       0       0
;;      Locals:         0       0       0       0       0
;;      Temps:          0       0       0       0       0
;;      Totals:         0       0       0       0       0
;;Total ram usage:        0 bytes
;; Hardware stack levels used:    1
;; Hardware stack levels required when called:    2
;; This function calls:
;;		Nothing
;; This function is called by:
;;		_main
;; This function uses a non-reentrant model
;;
psect	text308
	file	"D:\develop\190625\AK7030-OTP\common.c"
	line	192
	global	__size_of_timer1_interrupt_config
	__size_of_timer1_interrupt_config	equ	__end_of_timer1_interrupt_config-_timer1_interrupt_config
	
_timer1_interrupt_config:	
	opt	stack 5
; Regs used in _timer1_interrupt_config: []
	line	193
	
l2671:	
;common.c: 193: GIE = 1;
	bsf	(95/8),(95)&7
	line	194
;common.c: 194: PEIE = 1;
	bsf	(94/8),(94)&7
	line	195
	
l1389:	
	return
	opt stack 0
GLOBAL	__end_of_timer1_interrupt_config
	__end_of_timer1_interrupt_config:
;; =============== function _timer1_interrupt_config ends ============

	signat	_timer1_interrupt_config,88
	global	_timer1_config
psect	text309,local,class=CODE,delta=2
global __ptext309
__ptext309:

;; *************** function _timer1_config *****************
;; Defined at:
;;		line 180 in file "D:\develop\190625\AK7030-OTP\common.c"
;; Parameters:    Size  Location     Type
;;		None
;; Auto vars:     Size  Location     Type
;;		None
;; Return value:  Size  Location     Type
;;		None               void
;; Registers used:
;;		wreg
;; Tracked objects:
;;		On entry : 17F/40
;;		On exit  : 17F/20
;;		Unchanged: FFE80/0
;; Data sizes:     COMMON   BANK0   BANK1   BANK3   BANK2
;;      Params:         0       0       0       0       0
;;      Locals:         0       0       0       0       0
;;      Temps:          0       0       0       0       0
;;      Totals:         0       0       0       0       0
;;Total ram usage:        0 bytes
;; Hardware stack levels used:    1
;; Hardware stack levels required when called:    2
;; This function calls:
;;		Nothing
;; This function is called by:
;;		_main
;; This function uses a non-reentrant model
;;
psect	text309
	file	"D:\develop\190625\AK7030-OTP\common.c"
	line	180
	global	__size_of_timer1_config
	__size_of_timer1_config	equ	__end_of_timer1_config-_timer1_config
	
_timer1_config:	
	opt	stack 5
; Regs used in _timer1_config: [wreg]
	line	182
	
l2667:	
;common.c: 182: TMR1H=0xCF;
	movlw	(0CFh)
	bcf	status, 6	;RP1=0, select bank0
	movwf	(15)	;volatile
	line	183
;common.c: 183: TMR1L=0x2C;
	movlw	(02Ch)
	movwf	(14)	;volatile
	line	184
;common.c: 184: T1CON=0xE1;
	movlw	(0E1h)
	movwf	(16)	;volatile
	line	185
	
l2669:	
;common.c: 185: TMR1IE=1;
	bsf	status, 5	;RP0=1, select bank1
	bsf	(1120/8)^080h,(1120)&7
	line	187
	
l1386:	
	return
	opt stack 0
GLOBAL	__end_of_timer1_config
	__end_of_timer1_config:
;; =============== function _timer1_config ends ============

	signat	_timer1_config,88
	global	_clock_config
psect	text310,local,class=CODE,delta=2
global __ptext310
__ptext310:

;; *************** function _clock_config *****************
;; Defined at:
;;		line 172 in file "D:\develop\190625\AK7030-OTP\common.c"
;; Parameters:    Size  Location     Type
;;		None
;; Auto vars:     Size  Location     Type
;;		None
;; Return value:  Size  Location     Type
;;		None               void
;; Registers used:
;;		wreg, status,2
;; Tracked objects:
;;		On entry : 17F/20
;;		On exit  : 17F/40
;;		Unchanged: FFE80/0
;; Data sizes:     COMMON   BANK0   BANK1   BANK3   BANK2
;;      Params:         0       0       0       0       0
;;      Locals:         0       0       0       0       0
;;      Temps:          0       0       0       0       0
;;      Totals:         0       0       0       0       0
;;Total ram usage:        0 bytes
;; Hardware stack levels used:    1
;; Hardware stack levels required when called:    2
;; This function calls:
;;		Nothing
;; This function is called by:
;;		_main
;; This function uses a non-reentrant model
;;
psect	text310
	file	"D:\develop\190625\AK7030-OTP\common.c"
	line	172
	global	__size_of_clock_config
	__size_of_clock_config	equ	__end_of_clock_config-_clock_config
	
_clock_config:	
	opt	stack 5
; Regs used in _clock_config: [wreg+status,2]
	line	174
	
l2663:	
;common.c: 174: CLKPR = 0x80;
	movlw	(080h)
	bcf	status, 5	;RP0=0, select bank2
	bsf	status, 6	;RP1=1, select bank2
	movwf	(264)^0100h	;volatile
	line	175
	
l2665:	
;common.c: 175: CLKPR = 0x00;
	clrf	(264)^0100h	;volatile
	line	176
;common.c: 176: while(CLKPCE);
	
l1380:	
	btfsc	(2119/8)^0100h,(2119)&7
	goto	u171
	goto	u170
u171:
	goto	l1380
u170:
	line	177
	
l1383:	
	return
	opt stack 0
GLOBAL	__end_of_clock_config
	__end_of_clock_config:
;; =============== function _clock_config ends ============

	signat	_clock_config,88
	global	_initPin
psect	text311,local,class=CODE,delta=2
global __ptext311
__ptext311:

;; *************** function _initPin *****************
;; Defined at:
;;		line 107 in file "D:\develop\190625\AK7030-OTP\main.c"
;; Parameters:    Size  Location     Type
;;		None
;; Auto vars:     Size  Location     Type
;;		None
;; Return value:  Size  Location     Type
;;		None               void
;; Registers used:
;;		None
;; Tracked objects:
;;		On entry : 17F/20
;;		On exit  : 17F/60
;;		Unchanged: FFE80/0
;; Data sizes:     COMMON   BANK0   BANK1   BANK3   BANK2
;;      Params:         0       0       0       0       0
;;      Locals:         0       0       0       0       0
;;      Temps:          0       0       0       0       0
;;      Totals:         0       0       0       0       0
;;Total ram usage:        0 bytes
;; Hardware stack levels used:    1
;; Hardware stack levels required when called:    2
;; This function calls:
;;		Nothing
;; This function is called by:
;;		_main
;; This function uses a non-reentrant model
;;
psect	text311
	file	"D:\develop\190625\AK7030-OTP\main.c"
	line	107
	global	__size_of_initPin
	__size_of_initPin	equ	__end_of_initPin-_initPin
	
_initPin:	
	opt	stack 5
; Regs used in _initPin: []
	line	108
	
l2661:	
;main.c: 108: PB6 = 1;
	bcf	status, 5	;RP0=0, select bank0
	bsf	(54/8),(54)&7
	line	109
;main.c: 109: PBOD6 = 1;
	bsf	status, 5	;RP0=1, select bank3
	bsf	status, 6	;RP1=1, select bank3
	bsf	(3142/8)^0180h,(3142)&7
	line	113
;main.c: 113: PA0 = 0;
	bcf	status, 5	;RP0=0, select bank0
	bcf	status, 6	;RP1=0, select bank0
	bcf	(40/8),(40)&7
	line	114
;main.c: 114: PA1 = 0;
	bcf	(41/8),(41)&7
	line	115
;main.c: 115: PA2 = 0;
	bcf	(42/8),(42)&7
	line	116
;main.c: 116: PA3 = 0;
	bcf	(43/8),(43)&7
	line	117
;main.c: 117: PB0 = 0;
	bcf	(48/8),(48)&7
	line	118
;main.c: 118: PB1 = 1;
	bsf	(49/8),(49)&7
	line	119
;main.c: 119: PA6 = 0;
	bcf	(46/8),(46)&7
	line	121
;main.c: 121: PB7 = 0;
	bcf	(55/8),(55)&7
	line	122
;main.c: 122: PBOD7 = 0;
	bsf	status, 5	;RP0=1, select bank3
	bsf	status, 6	;RP1=1, select bank3
	bcf	(3143/8)^0180h,(3143)&7
	line	124
	
l661:	
	return
	opt stack 0
GLOBAL	__end_of_initPin
	__end_of_initPin:
;; =============== function _initPin ends ============

	signat	_initPin,88
	global	_ISR
psect	text312,local,class=CODE,delta=2
global __ptext312
__ptext312:

;; *************** function _ISR *****************
;; Defined at:
;;		line 439 in file "D:\develop\190625\AK7030-OTP\common.c"
;; Parameters:    Size  Location     Type
;;		None
;; Auto vars:     Size  Location     Type
;;		None
;; Return value:  Size  Location     Type
;;		None               void
;; Registers used:
;;		wreg, fsr0l, fsr0h, status,2, status,0, btemp+1, pclath, cstack
;; Tracked objects:
;;		On entry : 0/0
;;		On exit  : 60/0
;;		Unchanged: FFE00/0
;; Data sizes:     COMMON   BANK0   BANK1   BANK3   BANK2
;;      Params:         0       0       0       0       0
;;      Locals:         0       0       0       0       0
;;      Temps:          4       0       0       0       0
;;      Totals:         4       0       0       0       0
;;Total ram usage:        4 bytes
;; Hardware stack levels used:    1
;; Hardware stack levels required when called:    1
;; This function calls:
;;		_setAD_ConvertFlag
;;		_adc_get
;;		_vPutSampleDataIntoTable
;; This function is called by:
;;		Interrupt level 1
;; This function uses a non-reentrant model
;;
psect	text312
	file	"D:\develop\190625\AK7030-OTP\common.c"
	line	439
	global	__size_of_ISR
	__size_of_ISR	equ	__end_of_ISR-_ISR
	
_ISR:	
	opt	stack 5
; Regs used in _ISR: [wreg-fsr0h+status,2+status,0+btemp+1+pclath+cstack]
psect	intentry,class=CODE,delta=2
global __pintentry
__pintentry:
global interrupt_function
interrupt_function:
	global saved_w
	saved_w	set	btemp+0
	movwf	saved_w
	swapf	status,w
	movwf	(??_ISR+0)
	movf	fsr0,w
	movwf	(??_ISR+1)
	movf	pclath,w
	movwf	(??_ISR+2)
	bcf	status, 5	;RP0=0, select bank0
	bcf	status, 6	;RP1=0, select bank0
	movf	btemp+1,w
	movwf	(??_ISR+3)
	ljmp	_ISR
psect	text312
	line	442
	
i1l2747:	
;common.c: 440: static unsigned char ucTimer1sCnt = 0;
;common.c: 442: if(TMR1IF == 1)
	btfss	(96/8),(96)&7
	goto	u25_21
	goto	u25_20
u25_21:
	goto	i1l2765
u25_20:
	line	444
	
i1l2749:	
;common.c: 445: timer.timer10msStopWatch++;
	bcf	(96/8),(96)&7
	line	446
	
i1l2751:	
;common.c: 446: ucTimer1sCnt++;
	incf	(ISR@ucTimer1sCnt),f
	line	448
	
i1l2753:	
;common.c: 448: if(ucTimer1sCnt >= 100)
	movlw	(064h)
	subwf	(ISR@ucTimer1sCnt),w
	skipc
	goto	u26_21
	goto	u26_20
u26_21:
	goto	i1l2765
u26_20:
	line	450
	
i1l2755:	
;common.c: 449: {
;common.c: 450: ucTimer1sCnt = 0;
	clrf	(ISR@ucTimer1sCnt)
	line	451
	
i1l2757:	
;common.c: 451: if(uiBigTimer > 0)
	movf	(_uiBigTimer+1),w
	iorwf	(_uiBigTimer),w
	skipnz
	goto	u27_21
	goto	u27_20
u27_21:
	goto	i1l1476
u27_20:
	line	452
	
i1l2759:	
;common.c: 452: uiBigTimer--;
	movlw	low(01h)
	subwf	(_uiBigTimer),f
	movlw	high(01h)
	skipc
	decf	(_uiBigTimer+1),f
	subwf	(_uiBigTimer+1),f
	
i1l1476:	
	line	454
;common.c: 454: if(uiSmallTimer)
	movf	(_uiSmallTimer+1),w
	iorwf	(_uiSmallTimer),w
	skipnz
	goto	u28_21
	goto	u28_20
u28_21:
	goto	i1l1477
u28_20:
	line	455
	
i1l2761:	
;common.c: 455: uiSmallTimer--;
	movlw	low(01h)
	subwf	(_uiSmallTimer),f
	movlw	high(01h)
	skipc
	decf	(_uiSmallTimer+1),f
	subwf	(_uiSmallTimer+1),f
	
i1l1477:	
	line	457
;common.c: 457: if(uiTwentySecondsTimer)
	movf	(_uiTwentySecondsTimer+1),w
	iorwf	(_uiTwentySecondsTimer),w
	skipnz
	goto	u29_21
	goto	u29_20
u29_21:
	goto	i1l2765
u29_20:
	line	458
	
i1l2763:	
;common.c: 458: uiTwentySecondsTimer--;
	movlw	low(01h)
	subwf	(_uiTwentySecondsTimer),f
	movlw	high(01h)
	skipc
	decf	(_uiTwentySecondsTimer+1),f
	subwf	(_uiTwentySecondsTimer+1),f
	line	462
	
i1l2765:	
;common.c: 459: }
;common.c: 460: }
;common.c: 462: if(ADIF)
	btfss	(106/8),(106)&7
	goto	u30_21
	goto	u30_20
u30_21:
	goto	i1l1484
u30_20:
	line	464
	
i1l2767:	
;common.c: 463: {
;common.c: 464: ADIF=0;
	bcf	(106/8),(106)&7
	line	465
	
i1l2769:	
;common.c: 465: setAD_ConvertFlag(1);
	movlw	(01h)
	fcall	_setAD_ConvertFlag
	line	467
	
i1l2771:	
;common.c: 467: if(sampleChannelSelect == 5)
	movf	(_sampleChannelSelect),w
	xorlw	05h
	skipz
	goto	u31_21
	goto	u31_20
u31_21:
	goto	i1l2775
u31_20:
	line	471
	
i1l2773:	
;common.c: 468: {
;common.c: 471: vPutSampleDataIntoTable(adc_get(),5);
	fcall	_adc_get
	movf	(1+(?_adc_get)),w
	movwf	(?_vPutSampleDataIntoTable+1)
	movf	(0+(?_adc_get)),w
	movwf	(?_vPutSampleDataIntoTable)
	movlw	(05h)
	movwf	0+(?_vPutSampleDataIntoTable)+02h
	fcall	_vPutSampleDataIntoTable
	line	475
;common.c: 475: }
	goto	i1l1484
	line	476
	
i1l2775:	
;common.c: 476: else if(sampleChannelSelect == 1)
	decf	(_sampleChannelSelect),w
	skipz
	goto	u32_21
	goto	u32_20
u32_21:
	goto	i1l2779
u32_20:
	line	479
	
i1l2777:	
;common.c: 477: {
;common.c: 479: vPutSampleDataIntoTable(adc_get(),1);
	fcall	_adc_get
	movf	(1+(?_adc_get)),w
	movwf	(?_vPutSampleDataIntoTable+1)
	movf	(0+(?_adc_get)),w
	movwf	(?_vPutSampleDataIntoTable)
	clrf	0+(?_vPutSampleDataIntoTable)+02h
	incf	0+(?_vPutSampleDataIntoTable)+02h,f
	fcall	_vPutSampleDataIntoTable
	line	484
;common.c: 484: }
	goto	i1l1484
	line	490
	
i1l2779:	
;common.c: 485: else
;common.c: 486: {
;common.c: 490: vPutSampleDataIntoTable(adc_get(),14);
	fcall	_adc_get
	movf	(1+(?_adc_get)),w
	movwf	(?_vPutSampleDataIntoTable+1)
	movf	(0+(?_adc_get)),w
	movwf	(?_vPutSampleDataIntoTable)
	movlw	(0Eh)
	movwf	0+(?_vPutSampleDataIntoTable)+02h
	fcall	_vPutSampleDataIntoTable
	line	495
	
i1l1484:	
	movf	(??_ISR+3),w
	bcf	status, 5	;RP0=0, select bank0
	bcf	status, 6	;RP1=0, select bank0
	movwf	btemp+1
	movf	(??_ISR+2),w
	movwf	pclath
	movf	(??_ISR+1),w
	movwf	fsr0
	swapf	(??_ISR+0)^0FFFFFF80h,w
	movwf	status
	swapf	saved_w,f
	swapf	saved_w,w
	retfie
	opt stack 0
GLOBAL	__end_of_ISR
	__end_of_ISR:
;; =============== function _ISR ends ============

	signat	_ISR,88
	global	_adc_get
psect	text313,local,class=CODE,delta=2
global __ptext313
__ptext313:

;; *************** function _adc_get *****************
;; Defined at:
;;		line 105 in file "D:\develop\190625\AK7030-OTP\periph.c"
;; Parameters:    Size  Location     Type
;;		None
;; Auto vars:     Size  Location     Type
;;  val             2    2[COMMON] unsigned int 
;; Return value:  Size  Location     Type
;;                  2    0[COMMON] unsigned int 
;; Registers used:
;;		wreg
;; Tracked objects:
;;		On entry : 60/0
;;		On exit  : 60/20
;;		Unchanged: FFF9F/0
;; Data sizes:     COMMON   BANK0   BANK1   BANK3   BANK2
;;      Params:         2       0       0       0       0
;;      Locals:         2       0       0       0       0
;;      Temps:          0       0       0       0       0
;;      Totals:         4       0       0       0       0
;;Total ram usage:        4 bytes
;; Hardware stack levels used:    1
;; This function calls:
;;		Nothing
;; This function is called by:
;;		_ISR
;; This function uses a non-reentrant model
;;
psect	text313
	file	"D:\develop\190625\AK7030-OTP\periph.c"
	line	105
	global	__size_of_adc_get
	__size_of_adc_get	equ	__end_of_adc_get-_adc_get
	
_adc_get:	
	opt	stack 5
; Regs used in _adc_get: [wreg]
	line	107
	
i1l2781:	
;periph.c: 106: unsigned int val;
;periph.c: 107: val = (ADRESH<<8) | ADRESL;
	movf	(30),w	;volatile
	movwf	(adc_get@val+1)
	clrf	(adc_get@val)
	bsf	status, 5	;RP0=1, select bank1
	movf	(158)^080h,w	;volatile
	iorwf	(adc_get@val),f
	line	108
;periph.c: 108: return val;
	movf	(adc_get@val+1),w
	movwf	(?_adc_get+1)
	movf	(adc_get@val),w
	movwf	(?_adc_get)
	line	109
	
i1l2140:	
	return
	opt stack 0
GLOBAL	__end_of_adc_get
	__end_of_adc_get:
;; =============== function _adc_get ends ============

	signat	_adc_get,90
	global	_setAD_ConvertFlag
psect	text314,local,class=CODE,delta=2
global __ptext314
__ptext314:

;; *************** function _setAD_ConvertFlag *****************
;; Defined at:
;;		line 206 in file "D:\develop\190625\AK7030-OTP\common.c"
;; Parameters:    Size  Location     Type
;;  flag            1    wreg     unsigned char 
;; Auto vars:     Size  Location     Type
;;  flag            1    0[COMMON] unsigned char 
;; Return value:  Size  Location     Type
;;		None               void
;; Registers used:
;;		wreg
;; Tracked objects:
;;		On entry : 60/0
;;		On exit  : 60/0
;;		Unchanged: FFFFFF9F/0
;; Data sizes:     COMMON   BANK0   BANK1   BANK3   BANK2
;;      Params:         0       0       0       0       0
;;      Locals:         1       0       0       0       0
;;      Temps:          0       0       0       0       0
;;      Totals:         1       0       0       0       0
;;Total ram usage:        1 bytes
;; Hardware stack levels used:    1
;; This function calls:
;;		Nothing
;; This function is called by:
;;		_ISR
;; This function uses a non-reentrant model
;;
psect	text314
	file	"D:\develop\190625\AK7030-OTP\common.c"
	line	206
	global	__size_of_setAD_ConvertFlag
	__size_of_setAD_ConvertFlag	equ	__end_of_setAD_ConvertFlag-_setAD_ConvertFlag
	
_setAD_ConvertFlag:	
	opt	stack 5
; Regs used in _setAD_ConvertFlag: [wreg]
	line	208
	
i1l1395:	
	return
	opt stack 0
GLOBAL	__end_of_setAD_ConvertFlag
	__end_of_setAD_ConvertFlag:
;; =============== function _setAD_ConvertFlag ends ============

	signat	_setAD_ConvertFlag,4216
	global	_vPutSampleDataIntoTable
psect	text315,local,class=CODE,delta=2
global __ptext315
__ptext315:

;; *************** function _vPutSampleDataIntoTable *****************
;; Defined at:
;;		line 97 in file "D:\develop\190625\AK7030-OTP\common.c"
;; Parameters:    Size  Location     Type
;;  uiSampleData    2    4[COMMON] unsigned int 
;;  channel         1    6[COMMON] unsigned char 
;; Auto vars:     Size  Location     Type
;;  i               2    7[COMMON] int 
;; Return value:  Size  Location     Type
;;		None               void
;; Registers used:
;;		wreg, fsr0l, fsr0h, status,2, status,0, btemp+1
;; Tracked objects:
;;		On entry : 60/20
;;		On exit  : 0/0
;;		Unchanged: FFE00/0
;; Data sizes:     COMMON   BANK0   BANK1   BANK3   BANK2
;;      Params:         3       0       0       0       0
;;      Locals:         2       0       0       0       0
;;      Temps:          0       0       0       0       0
;;      Totals:         5       0       0       0       0
;;Total ram usage:        5 bytes
;; Hardware stack levels used:    1
;; This function calls:
;;		Nothing
;; This function is called by:
;;		_ISR
;; This function uses a non-reentrant model
;;
psect	text315
	file	"D:\develop\190625\AK7030-OTP\common.c"
	line	97
	global	__size_of_vPutSampleDataIntoTable
	__size_of_vPutSampleDataIntoTable	equ	__end_of_vPutSampleDataIntoTable-_vPutSampleDataIntoTable
	
_vPutSampleDataIntoTable:	
	opt	stack 5
; Regs used in _vPutSampleDataIntoTable: [wreg-fsr0h+status,2+status,0+btemp+1]
	line	105
	
i1l2699:	
;common.c: 99: static unsigned char ucChannelFirstLength = 0;
;common.c: 101: static unsigned char ucChannelFourthLength = 0;
;common.c: 103: static unsigned char ucChannelFourteenthLength = 0;
;common.c: 105: if(channel == 1)
	decf	(vPutSampleDataIntoTable@channel),w
	skipz
	goto	u18_21
	goto	u18_20
u18_21:
	goto	i1l2711
u18_20:
	line	107
	
i1l2701:	
;common.c: 106: {
;common.c: 107: if(ucChannelFirstLength < 12)
	movlw	(0Ch)
	subwf	(vPutSampleDataIntoTable@ucChannelFirstLength),w
	skipnc
	goto	u19_21
	goto	u19_20
u19_21:
	goto	i1l2707
u19_20:
	line	109
	
i1l2703:	
;common.c: 108: {
;common.c: 109: uiSampleChannelFirst[ucChannelFirstLength] = uiSampleData;
	clrc
	rlf	(vPutSampleDataIntoTable@ucChannelFirstLength),w
	addlw	_uiSampleChannelFirst&0ffh
	movwf	fsr0
	movf	(vPutSampleDataIntoTable@uiSampleData),w
	bcf	status, 7	;select IRP bank0
	movwf	indf
	incf	fsr0,f
	movf	(vPutSampleDataIntoTable@uiSampleData+1),w
	movwf	indf
	line	111
	
i1l2705:	
;common.c: 111: ucChannelFirstLength++;
	incf	(vPutSampleDataIntoTable@ucChannelFirstLength),f
	line	112
;common.c: 112: }
	goto	i1l1377
	line	115
	
i1l2707:	
;common.c: 113: else
;common.c: 114: {
;common.c: 115: ucChannelFirstLength = 0;
	clrf	(vPutSampleDataIntoTable@ucChannelFirstLength)
	line	117
	
i1l2709:	
;common.c: 117: uiSampleChannelFirst[ucChannelFirstLength] = uiSampleData;
	clrc
	rlf	(vPutSampleDataIntoTable@ucChannelFirstLength),w
	addlw	_uiSampleChannelFirst&0ffh
	movwf	fsr0
	movf	(vPutSampleDataIntoTable@uiSampleData),w
	bcf	status, 7	;select IRP bank0
	movwf	indf
	incf	fsr0,f
	movf	(vPutSampleDataIntoTable@uiSampleData+1),w
	movwf	indf
	goto	i1l1377
	line	120
	
i1l2711:	
;common.c: 120: else if(channel == 5)
	movf	(vPutSampleDataIntoTable@channel),w
	xorlw	05h
	skipz
	goto	u20_21
	goto	u20_20
u20_21:
	goto	i1l2723
u20_20:
	line	122
	
i1l2713:	
;common.c: 121: {
;common.c: 122: if(ucChannelFourthLength < 12)
	movlw	(0Ch)
	bcf	status, 5	;RP0=0, select bank0
	subwf	(vPutSampleDataIntoTable@ucChannelFourthLength),w
	skipnc
	goto	u21_21
	goto	u21_20
u21_21:
	goto	i1l2719
u21_20:
	line	124
	
i1l2715:	
;common.c: 123: {
;common.c: 124: uiSampleChannelFourth[ucChannelFourthLength] = uiSampleData;
	clrc
	rlf	(vPutSampleDataIntoTable@ucChannelFourthLength),w
	addlw	_uiSampleChannelFourth&0ffh
	movwf	fsr0
	movf	(vPutSampleDataIntoTable@uiSampleData),w
	bcf	status, 7	;select IRP bank0
	movwf	indf
	incf	fsr0,f
	movf	(vPutSampleDataIntoTable@uiSampleData+1),w
	movwf	indf
	line	126
	
i1l2717:	
;common.c: 126: ucChannelFourthLength++;
	incf	(vPutSampleDataIntoTable@ucChannelFourthLength),f
	line	127
;common.c: 127: }
	goto	i1l1377
	line	130
	
i1l2719:	
;common.c: 128: else
;common.c: 129: {
;common.c: 130: ucChannelFourthLength = 0;
	clrf	(vPutSampleDataIntoTable@ucChannelFourthLength)
	line	132
	
i1l2721:	
;common.c: 132: uiSampleChannelFourth[ucChannelFourthLength] = uiSampleData;
	clrc
	rlf	(vPutSampleDataIntoTable@ucChannelFourthLength),w
	addlw	_uiSampleChannelFourth&0ffh
	movwf	fsr0
	movf	(vPutSampleDataIntoTable@uiSampleData),w
	bcf	status, 7	;select IRP bank0
	movwf	indf
	incf	fsr0,f
	movf	(vPutSampleDataIntoTable@uiSampleData+1),w
	movwf	indf
	goto	i1l1377
	line	135
	
i1l2723:	
;common.c: 135: else if(channel == 14)
	movf	(vPutSampleDataIntoTable@channel),w
	xorlw	0Eh
	skipz
	goto	u22_21
	goto	u22_20
u22_21:
	goto	i1l2735
u22_20:
	line	137
	
i1l2725:	
;common.c: 136: {
;common.c: 137: if(ucChannelFourteenthLength < 12)
	movlw	(0Ch)
	bcf	status, 5	;RP0=0, select bank0
	subwf	(vPutSampleDataIntoTable@ucChannelFourteenthLength),w
	skipnc
	goto	u23_21
	goto	u23_20
u23_21:
	goto	i1l2731
u23_20:
	line	139
	
i1l2727:	
;common.c: 138: {
;common.c: 139: uiSampleChannelFourteenth[ucChannelFourteenthLength] = uiSampleData;
	clrc
	rlf	(vPutSampleDataIntoTable@ucChannelFourteenthLength),w
	addlw	_uiSampleChannelFourteenth&0ffh
	movwf	fsr0
	movf	(vPutSampleDataIntoTable@uiSampleData),w
	bcf	status, 7	;select IRP bank1
	movwf	indf
	incf	fsr0,f
	movf	(vPutSampleDataIntoTable@uiSampleData+1),w
	movwf	indf
	line	141
	
i1l2729:	
;common.c: 141: ucChannelFourteenthLength++;
	incf	(vPutSampleDataIntoTable@ucChannelFourteenthLength),f
	line	142
;common.c: 142: }
	goto	i1l1377
	line	145
	
i1l2731:	
;common.c: 143: else
;common.c: 144: {
;common.c: 145: ucChannelFourteenthLength = 0;
	clrf	(vPutSampleDataIntoTable@ucChannelFourteenthLength)
	line	147
	
i1l2733:	
;common.c: 147: uiSampleChannelFourth[ucChannelFourteenthLength] = uiSampleData;
	clrc
	rlf	(vPutSampleDataIntoTable@ucChannelFourteenthLength),w
	addlw	_uiSampleChannelFourth&0ffh
	movwf	fsr0
	movf	(vPutSampleDataIntoTable@uiSampleData),w
	bcf	status, 7	;select IRP bank0
	movwf	indf
	incf	fsr0,f
	movf	(vPutSampleDataIntoTable@uiSampleData+1),w
	movwf	indf
	goto	i1l1377
	line	152
	
i1l2735:	
;common.c: 150: else
;common.c: 151: {
;common.c: 152: ucChannelFirstLength = 0;
	clrf	(vPutSampleDataIntoTable@ucChannelFirstLength)
	line	154
;common.c: 154: ucChannelFourthLength = 0;
	bcf	status, 5	;RP0=0, select bank0
	clrf	(vPutSampleDataIntoTable@ucChannelFourthLength)
	line	156
;common.c: 156: ucChannelFourteenthLength = 0;
	clrf	(vPutSampleDataIntoTable@ucChannelFourteenthLength)
	line	158
;common.c: 158: for(int i = 0;i < 12; i++)
	clrf	(vPutSampleDataIntoTable@i)
	clrf	(vPutSampleDataIntoTable@i+1)
	line	160
	
i1l2741:	
;common.c: 159: {
;common.c: 160: uiSampleChannelFirst[i] = 0;
	clrc
	rlf	(vPutSampleDataIntoTable@i),w
	addlw	_uiSampleChannelFirst&0ffh
	movwf	fsr0
	bcf	status, 7	;select IRP bank0
	clrf	indf
	incf	fsr0,f
	clrf	indf
	line	162
;common.c: 162: uiSampleChannelFourth[i] = 0;
	clrc
	rlf	(vPutSampleDataIntoTable@i),w
	addlw	_uiSampleChannelFourth&0ffh
	movwf	fsr0
	clrf	indf
	incf	fsr0,f
	clrf	indf
	line	164
;common.c: 164: uiSampleChannelFourth[i] = 0;
	clrc
	rlf	(vPutSampleDataIntoTable@i),w
	addlw	_uiSampleChannelFourth&0ffh
	movwf	fsr0
	clrf	indf
	incf	fsr0,f
	clrf	indf
	line	158
	
i1l2743:	
	incf	(vPutSampleDataIntoTable@i),f
	skipnz
	incf	(vPutSampleDataIntoTable@i+1),f
	
i1l2745:	
	movf	(vPutSampleDataIntoTable@i+1),w
	xorlw	80h
	movwf	btemp+1
	movlw	(high(0Ch))^80h
	subwf	btemp+1,w
	skipz
	goto	u24_25
	movlw	low(0Ch)
	subwf	(vPutSampleDataIntoTable@i),w
u24_25:

	skipc
	goto	u24_21
	goto	u24_20
u24_21:
	goto	i1l2741
u24_20:
	line	168
	
i1l1377:	
	return
	opt stack 0
GLOBAL	__end_of_vPutSampleDataIntoTable
	__end_of_vPutSampleDataIntoTable:
;; =============== function _vPutSampleDataIntoTable ends ============

	signat	_vPutSampleDataIntoTable,8312
psect	text316,local,class=CODE,delta=2
global __ptext316
__ptext316:
	global	btemp
	btemp set 07Eh

	DABS	1,126,2	;btemp
	global	wtemp0
	wtemp0 set btemp
	end
