

HI-TECH Software PIC PRO Macro Assembler V9.83 build 10920 
                                                                                               Fri Jun 28 13:26:06 2019

HI-TECH Software Omniscient Code Generator (PRO mode) build 10920
     1                           	processor	16C77
     2                           	opt	pw 120
     3                           	opt	pm
     4                           	psect	config,global,class=CONFIG,delta=2
     5                           	psect	idataBANK0,global,class=CODE,delta=2
     6                           	psect	cinit,global,class=CODE,delta=2
     7                           	psect	bssCOMMON,global,class=COMMON,space=1,delta=1
     8                           	psect	bssBANK0,global,class=BANK0,space=1,delta=1
     9                           	psect	dataBANK0,global,class=BANK0,space=1,delta=1
    10                           	psect	bssBANK1,global,class=BANK1,space=1,delta=1
    11                           	psect	bssBANK3,global,class=BANK3,space=1,delta=1
    12                           	psect	clrtext,global,class=CODE,delta=2
    13                           	psect	cstackCOMMON,global,class=COMMON,space=1,delta=1
    14                           	psect	cstackBANK0,global,class=BANK0,space=1,delta=1
    15                           	psect	maintext,global,class=CODE,delta=2
    16                           	psect	swtext1,local,class=CONST,delta=2
    17                           	psect	swtext2,local,class=CONST,delta=2
    18                           	psect	swtext3,local,class=CONST,delta=2
    19                           	psect	text755,local,class=CODE,delta=2
    20                           	psect	text756,local,class=CODE,delta=2
    21                           	psect	text759,local,class=CODE,delta=2
    22                           	psect	text765,local,class=CODE,delta=2
    23                           	psect	text766,local,class=CODE,delta=2
    24                           	psect	text767,local,class=CODE,delta=2
    25                           	psect	text768,local,class=CODE,delta=2
    26                           	psect	text769,local,class=CODE,delta=2
    27                           	psect	text770,local,class=CODE,delta=2
    28                           	psect	text771,local,class=CODE,delta=2
    29                           	psect	text772,local,class=CODE,delta=2
    30                           	psect	text774,local,class=CODE,delta=2
    31                           	psect	text775,local,class=CODE,delta=2
    32                           	psect	text776,local,class=CODE,delta=2
    33                           	psect	text778,local,class=CODE,delta=2
    34                           	psect	text779,local,class=CODE,delta=2
    35                           	psect	text780,local,class=CODE,delta=2
    36                           	psect	text781,local,class=CODE,delta=2
    37                           	psect	text785,local,class=CODE,delta=2
    38                           	psect	intentry,global,class=CODE,delta=2
    39                           	psect	text789,local,class=CODE,delta=2
    40                           	psect	pa_nodes,global,class=CODE,delta=2
    41                           	dabs	1,0x7E,2
    42  000A                     	;#
    43                           
    44                           	psect	config
    45  2000  2FFF               	dw	12287	;#
    46  2001  3FDE               	dw	16350	;#
    47  2002  3FF8               	dw	16376	;#
    48                           
    49                           	psect	idataBANK0
    50  0000                     __pidataBANK0:	
    51  001F                     _ADCON0	set	31
    52  001E                     _ADRESH	set	30
    53  001B                     _OP1CON0	set	27
    54  001C                     _OP1CON1	set	28
    55  001D                     _OP1CON2	set	29
    56  0010                     _T1CON	set	16
    57  000F                     _TMR1H	set	15
    58  000E                     _TMR1L	set	14
    59  006A                     _ADIF	set	106
    60  00F8                     _ADON	set	248
    61  005F                     _GIE	set	95
    62  00F9                     _GO	set	249
    63  0028                     _PA0	set	40
    64  0029                     _PA1	set	41
    65  002A                     _PA2	set	42
    66  002B                     _PA3	set	43
    67  002E                     _PA6	set	46
    68  002F                     _PA7	set	47
    69  0030                     _PB0	set	48
    70  0031                     _PB1	set	49
    71  0036                     _PB6	set	54
    72  005E                     _PEIE	set	94
    73  0060                     _TMR1IF	set	96
    74  009F                     _ADCON1	set	159
    75  009E                     _ADRESL	set	158
    76  0087                     _DACCON	set	135
    77  0088                     _DACR0	set	136
    78  009B                     _OP2CON0	set	155
    79  009C                     _OP2CON1	set	156
    80  009D                     _OP2CON2	set	157
    81  046A                     _ADIE	set	1130
    82  0460                     _TMR1IE	set	1120
    83  0428                     _TRISA0	set	1064
    84  0429                     _TRISA1	set	1065
    85  042A                     _TRISA2	set	1066
    86  042B                     _TRISA3	set	1067
    87  042E                     _TRISA6	set	1070
    88  042F                     _TRISA7	set	1071
    89  0430                     _TRISB0	set	1072
    90  0431                     _TRISB1	set	1073
    91  0432                     _TRISB2	set	1074
    92  0433                     _TRISB3	set	1075
    93  0434                     _TRISB4	set	1076
    94  0435                     _TRISB5	set	1077
    95  0436                     _TRISB6	set	1078
    96  0437                     _TRISB7	set	1079
    97  0108                     _CLKPR	set	264
    98  0847                     _CLKPCE	set	2119
    99  0C3F                     _PAOD7	set	3135
   100  0C46                     _PBOD6	set	3142
   101                           
   102                           	psect	cinit
   103  05B3                     start_initialization:	
   104  05B3  3048               	movlw	low __pbssBANK0
   105                           
   106                           ; Clear objects allocated to COMMON
   107  05B4  01FD               	clrf	__pbssCOMMON& (0+127)
   108                           
   109                           ; Clear objects allocated to BANK0
   110  05B5  1383               	bcf	3,7	;select IRP bank0
   111  05B6  0084               	movwf	4
   112  05B7  306E               	movlw	low (__pbssBANK0+38)
   113  05B8  118A  2638  118A   	fcall	clear_ram
   114                           
   115                           ; Clear objects allocated to BANK1
   116  05BB  30A0               	movlw	low __pbssBANK1
   117  05BC  0084               	movwf	4
   118  05BD  30DC               	movlw	low (__pbssBANK1+60)
   119  05BE  118A  2638  118A   	fcall	clear_ram
   120  05C1  3090               	movlw	low __pbssBANK3
   121                           
   122                           ; Clear objects allocated to BANK3
   123  05C2  1783               	bsf	3,7	;select IRP bank2
   124  05C3  0084               	movwf	4
   125  05C4  30A8               	movlw	low (__pbssBANK3+24)
   126  05C5  118A  2638         	fcall	clear_ram
   127                           
   128                           ;initializer for _sampleChannelSelect
   129  05C7  300E               	movlw	14
   130  05C8  00EE               	movwf	__pdataBANK0& (0+127)
   131  05C9                     end_of_initialization:	
   132                           ;End of C runtime variable initialization code
   133                           
   134  05C9  0183               	clrf	3
   135  05CA  118A  2813         	ljmp	_main	;jump to C main() function
   136                           
   137                           	psect	bssCOMMON
   138  007D                     __pbssCOMMON:	
   139  007D                     vPutSampleDataIntoTable@ucChannelFirstLength:	
   140  007D                     	ds	1
   141                           
   142                           	psect	bssBANK0
   143  0048                     __pbssBANK0:	
   144  0048                     _sampleTimes:	
   145  0048                     	ds	1
   146  0049                     main@bCheckTweHour:	
   147  0049                     	ds	1
   148  004A                     main@enumBranchStep:	
   149  004A                     	ds	1
   150  004B                     main@enumMainLoopStep:	
   151  004B                     	ds	1
   152  004C                     main@ucADC4_Step:	
   153  004C                     	ds	1
   154  004D                     main@ucChannel4Type:	
   155  004D                     	ds	1
   156  004E                     main@ucLoaderStep:	
   157  004E                     	ds	1
   158  004F                     main@ucLoaderStep1:	
   159  004F                     	ds	1
   160  0050                     main@ucLoaderStep2:	
   161  0050                     	ds	1
   162  0051                     main@ucLoaderStep3:	
   163  0051                     	ds	1
   164  0052                     main@ucLoaderStep4:	
   165  0052                     	ds	1
   166  0053                     main@ucTimer1s:	
   167  0053                     	ds	1
   168  0054                     main@ucTimer20s:	
   169  0054                     	ds	1
   170  0055                     main@ucTimerADC1ZeroP5s:	
   171  0055                     	ds	1
   172  0056                     main@ucTimerDelay:	
   173  0056                     	ds	1
   174  0057                     main@ucTimerDelay1:	
   175  0057                     	ds	1
   176  0058                     main@ucTimerDelay2:	
   177  0058                     	ds	1
   178  0059                     main@ucTimerDelay3:	
   179  0059                     	ds	1
   180  005A                     main@ucTimerDelay4:	
   181  005A                     	ds	1
   182  005B                     main@ucTimerDelayP5s:	
   183  005B                     	ds	1
   184  005C                     main@ucTimerForDACR0_CNT1:	
   185  005C                     	ds	1
   186  005D                     main@ucTimerForDACR0_CNT1_f:	
   187  005D                     	ds	1
   188  005E                     main@ucTimerForDACR0_CNT2:	
   189  005E                     	ds	1
   190  005F                     main@ucTimerForDACR0_CNT2_f:	
   191  005F                     	ds	1
   192  0060                     main@ucTimerLessADC1ZeroP5s:	
   193  0060                     	ds	1
   194  0061                     main@ucTimerLessX1P5s:	
   195  0061                     	ds	1
   196  0062                     main@ucTimerLessX2P5s:	
   197  0062                     	ds	1
   198  0063                     main@ucTimerP5s:	
   199  0063                     	ds	1
   200  0064                     main@ucTimerPA6DelayP1s:	
   201  0064                     	ds	1
   202  0065                     main@ucTimerPB6DelayP1s:	
   203  0065                     	ds	1
   204  0066                     main@ucTimerRightP5s:	
   205  0066                     	ds	1
   206  0067                     main@ucTimerSeond1s:	
   207  0067                     	ds	1
   208  0068                     main@ucTimerX1P5s:	
   209  0068                     	ds	1
   210  0069                     main@ucTimerX2P5s:	
   211  0069                     	ds	1
   212  006A                     main@ucTimerZeroPoint3s:	
   213  006A                     	ds	1
   214  006B                     main@ucTimerZeroPoint5s:	
   215  006B                     	ds	1
   216  006C                     vPutSampleDataIntoTable@ucChannelFourteenthLength:	
   217  006C                     	ds	1
   218  006D                     vPutSampleDataIntoTable@ucChannelFourthLength:	
   219  006D                     	ds	1
   220                           
   221                           	psect	dataBANK0
   222  006E                     __pdataBANK0:	
   223  006E                     _sampleChannelSelect:	
   224  006E                     	ds	1
   225                           
   226                           	psect	bssBANK1
   227  00A0                     __pbssBANK1:	
   228  00A0                     _uiBigTimer:	
   229  00A0                     	ds	2
   230  00A2                     _uiSmallTimer:	
   231  00A2                     	ds	2
   232  00A4                     _uiTwentySecondsTimer:	
   233  00A4                     	ds	2
   234  00A6                     ISR@ucTimer1sCnt:	
   235  00A6                     	ds	1
   236  00A7                     _adc_convert_flag:	
   237  00A7                     	ds	1
   238  00A8                     _timer:	
   239  00A8                     	ds	1
   240  00A9                     main@cTimer1s_824:	
   241  00A9                     	ds	1
   242  00AA                     main@enumInteralStep:	
   243  00AA                     	ds	1
   244  00AB                     main@ucTimerP3s:	
   245  00AB                     	ds	1
   246  00AC                     _uiSampleChannelFirst:	
   247  00AC                     	ds	24
   248  00C4                     _uiSampleChannelFourth:	
   249  00C4                     	ds	24
   250                           
   251                           	psect	bssBANK3
   252  0190                     __pbssBANK3:	
   253  0190                     _uiSampleChannelFourteenth:	
   254  0190                     	ds	24
   255                           
   256                           	psect	clrtext
   257  0638                     clear_ram:	
   258                           ;	Called with FSR containing the base address, and
   259                           ;	W with the last address+1
   260                           
   261  0638  0064               	clrwdt	;clear the watchdog before getting into this loop
   262  0639                     clrloop:	
   263  0639  0180               	clrf	0	;clear RAM location pointed to by FSR
   264  063A  0A84               	incf	4,f	;increment pointer
   265  063B  0604               	xorwf	4,w	;XOR with final address
   266  063C  1903               	btfsc	3,2	;have we reached the end yet?
   267  063D  3400               	retlw	0	;all done for this memory range, return
   268  063E  0604               	xorwf	4,w	;XOR again to restore value
   269  063F  2E39               	goto	clrloop	;do the next byte
   270                           
   271                           	psect	cstackCOMMON
   272  0070                     __pcstackCOMMON:	
   273  0070                     ?_clearTwelveHoursTimer:	
   274  0070                     ?_clearThreeHoursTimer:	
   275                           ; 0 bytes @ 0x0
   276                           
   277  0070                     ?_clearTwentySecondsTimer:	
   278                           ; 0 bytes @ 0x0
   279                           
   280  0070                     ?_clock_config:	
   281                           ; 0 bytes @ 0x0
   282                           
   283  0070                     ?_timer1_config:	
   284                           ; 0 bytes @ 0x0
   285                           
   286  0070                     ?_timer1_interrupt_config:	
   287                           ; 0 bytes @ 0x0
   288                           
   289  0070                     ?_dac_init:	
   290                           ; 0 bytes @ 0x0
   291                           
   292  0070                     ?_op1_init:	
   293                           ; 0 bytes @ 0x0
   294                           
   295  0070                     ?_op2_init:	
   296                           ; 0 bytes @ 0x0
   297                           
   298  0070                     ?_adc_start:	
   299                           ; 0 bytes @ 0x0
   300                           
   301  0070                     ?_process_AD_Converter_Value:	
   302                           ; 0 bytes @ 0x0
   303                           
   304  0070                     ?_clrSampeTime:	
   305                           ; 0 bytes @ 0x0
   306                           
   307  0070                     ?_startTwentySecondsTimer:	
   308                           ; 0 bytes @ 0x0
   309                           
   310  0070                     ?_AD_Sample:	
   311                           ; 0 bytes @ 0x0
   312                           
   313  0070                     ?_clearAllTimer:	
   314                           ; 0 bytes @ 0x0
   315                           
   316  0070                     ?_clearPinPortAndTimer:	
   317                           ; 0 bytes @ 0x0
   318                           
   319  0070                     ?_initPin:	
   320                           ; 0 bytes @ 0x0
   321                           
   322  0070                     ?_main:	
   323                           ; 0 bytes @ 0x0
   324                           
   325  0070                     ?_setAD_ConvertFlag:	
   326                           ; 0 bytes @ 0x0
   327                           
   328  0070                     ?_ISR:	
   329                           ; 0 bytes @ 0x0
   330                           
   331  0070                     ?i1_setAD_ConvertFlag:	
   332                           ; 0 bytes @ 0x0
   333                           
   334  0070                     ??i1_setAD_ConvertFlag:	
   335                           ; 0 bytes @ 0x0
   336                           
   337  0070                     ?_isPermitSampleTime:	
   338                           ; 0 bytes @ 0x0
   339                           
   340  0070                     ?_isFinishedTwelveHoursTimer:	
   341                           ; 1 bytes @ 0x0
   342                           
   343  0070                     ?_isFinishedTwentySecondsTimer:	
   344                           ; 1 bytes @ 0x0
   345                           
   346  0070                     ?_isFinishedThreeHoursTimer:	
   347                           ; 1 bytes @ 0x0
   348                           
   349  0070                     ?_getAD_ConvertFlag:	
   350                           ; 1 bytes @ 0x0
   351                           
   352  0070                     ?_adc_get:	
   353                           ; 1 bytes @ 0x0
   354                           
   355  0070                     i1setAD_ConvertFlag@flag:	
   356                           ; 2 bytes @ 0x0
   357                           
   358                           
   359                           ; 1 bytes @ 0x0
   360  0070                     	ds	2
   361  0072                     ??_adc_get:	
   362  0072                     adc_get@val:	
   363                           ; 0 bytes @ 0x2
   364                           
   365                           
   366                           ; 2 bytes @ 0x2
   367  0072                     	ds	2
   368  0074                     ?_vPutSampleDataIntoTable:	
   369  0074                     vPutSampleDataIntoTable@uiSampleData:	
   370                           ; 0 bytes @ 0x4
   371                           
   372                           
   373                           ; 2 bytes @ 0x4
   374  0074                     	ds	2
   375  0076                     vPutSampleDataIntoTable@channel:	
   376                           
   377                           ; 1 bytes @ 0x6
   378  0076                     	ds	1
   379  0077                     ??_vPutSampleDataIntoTable:	
   380  0077                     vPutSampleDataIntoTable@i:	
   381                           ; 0 bytes @ 0x7
   382                           
   383                           
   384                           ; 2 bytes @ 0x7
   385  0077                     	ds	2
   386  0079                     ??_ISR:	
   387                           
   388                           ; 0 bytes @ 0x9
   389  0079                     	ds	4
   390                           
   391                           	psect	cstackBANK0
   392  0020                     __pcstackBANK0:	
   393  0020                     ??_clearTwelveHoursTimer:	
   394  0020                     ??_clearThreeHoursTimer:	
   395                           ; 0 bytes @ 0x0
   396                           
   397  0020                     ??_clearTwentySecondsTimer:	
   398                           ; 0 bytes @ 0x0
   399                           
   400  0020                     ??_clock_config:	
   401                           ; 0 bytes @ 0x0
   402                           
   403  0020                     ??_timer1_config:	
   404                           ; 0 bytes @ 0x0
   405                           
   406  0020                     ??_timer1_interrupt_config:	
   407                           ; 0 bytes @ 0x0
   408                           
   409  0020                     ?_adc_test_init:	
   410                           ; 0 bytes @ 0x0
   411                           
   412  0020                     ??_dac_init:	
   413                           ; 0 bytes @ 0x0
   414                           
   415  0020                     ??_op1_init:	
   416                           ; 0 bytes @ 0x0
   417                           
   418  0020                     ??_op2_init:	
   419                           ; 0 bytes @ 0x0
   420                           
   421  0020                     ??_adc_start:	
   422                           ; 0 bytes @ 0x0
   423                           
   424  0020                     ??_isPermitSampleTime:	
   425                           ; 0 bytes @ 0x0
   426                           
   427  0020                     ??_clrSampeTime:	
   428                           ; 0 bytes @ 0x0
   429                           
   430  0020                     ?_startTwelveHourTimer:	
   431                           ; 0 bytes @ 0x0
   432                           
   433  0020                     ??_isFinishedTwelveHoursTimer:	
   434                           ; 0 bytes @ 0x0
   435                           
   436  0020                     ??_startTwentySecondsTimer:	
   437                           ; 0 bytes @ 0x0
   438                           
   439  0020                     ??_isFinishedTwentySecondsTimer:	
   440                           ; 0 bytes @ 0x0
   441                           
   442  0020                     ?_startThreeHoursTimer:	
   443                           ; 0 bytes @ 0x0
   444                           
   445  0020                     ??_isFinishedThreeHoursTimer:	
   446                           ; 0 bytes @ 0x0
   447                           
   448  0020                     ??_AD_Sample:	
   449                           ; 0 bytes @ 0x0
   450                           
   451  0020                     ??_clearAllTimer:	
   452                           ; 0 bytes @ 0x0
   453                           
   454  0020                     ??_clearPinPortAndTimer:	
   455                           ; 0 bytes @ 0x0
   456                           
   457  0020                     ??_initPin:	
   458                           ; 0 bytes @ 0x0
   459                           
   460  0020                     ??_getAD_ConvertFlag:	
   461                           ; 0 bytes @ 0x0
   462                           
   463  0020                     ??_setAD_ConvertFlag:	
   464                           ; 0 bytes @ 0x0
   465                           
   466  0020                     ?_Filter:	
   467                           ; 0 bytes @ 0x0
   468                           
   469  0020                     setAD_ConvertFlag@flag:	
   470                           ; 2 bytes @ 0x0
   471                           
   472  0020                     adc_test_init@ref:	
   473                           ; 1 bytes @ 0x0
   474                           
   475  0020                     Filter@tmpValue:	
   476                           ; 1 bytes @ 0x0
   477                           
   478  0020                     startTwelveHourTimer@uiSetTime:	
   479                           ; 2 bytes @ 0x0
   480                           
   481  0020                     startThreeHoursTimer@uiSetTime:	
   482                           ; 2 bytes @ 0x0
   483                           
   484                           
   485                           ; 2 bytes @ 0x0
   486  0020                     	ds	1
   487  0021                     ??_adc_test_init:	
   488                           
   489                           ; 0 bytes @ 0x1
   490  0021                     	ds	1
   491  0022                     ??_startTwelveHourTimer:	
   492  0022                     ??_startThreeHoursTimer:	
   493                           ; 0 bytes @ 0x2
   494                           
   495  0022                     ??_Filter:	
   496                           ; 0 bytes @ 0x2
   497                           
   498  0022                     adc_test_init@channel:	
   499                           ; 0 bytes @ 0x2
   500                           
   501                           
   502                           ; 1 bytes @ 0x2
   503  0022                     	ds	1
   504  0023                     ??_process_AD_Converter_Value:	
   505                           
   506                           ; 0 bytes @ 0x3
   507  0023                     	ds	3
   508  0026                     Filter@filter_buf:	
   509                           
   510                           ; 24 bytes @ 0x6
   511  0026                     	ds	24
   512  003E                     Filter@filter_temp:	
   513                           
   514                           ; 2 bytes @ 0x1E
   515  003E                     	ds	2
   516  0040                     Filter@filter_sum:	
   517                           
   518                           ; 2 bytes @ 0x20
   519  0040                     	ds	2
   520  0042                     Filter@cir:	
   521                           
   522                           ; 2 bytes @ 0x22
   523  0042                     	ds	2
   524  0044                     Filter@j:	
   525                           
   526                           ; 1 bytes @ 0x24
   527  0044                     	ds	1
   528  0045                     Filter@i:	
   529                           
   530                           ; 1 bytes @ 0x25
   531  0045                     	ds	1
   532  0046                     ?_getAdOriginalCh14Value:	
   533  0046                     ?_getAdOriginalCh1Value:	
   534                           ; 2 bytes @ 0x26
   535                           
   536  0046                     ?_getAdOriginaCh4Value:	
   537                           ; 2 bytes @ 0x26
   538                           
   539                           
   540                           ; 2 bytes @ 0x26
   541  0046                     	ds	2
   542  0048                     ??_getAdOriginalCh14Value:	
   543  0048                     ??_getAdOriginalCh1Value:	
   544                           ; 0 bytes @ 0x28
   545                           
   546  0048                     ??_getAdOriginaCh4Value:	
   547                           ; 0 bytes @ 0x28
   548                           
   549  0048                     ??_main:	
   550                           ; 0 bytes @ 0x28
   551                           
   552                           
   553                           	psect	maintext
   554  0013                     __pmaintext:	
   555                           ; 0 bytes @ 0x28
   556 ;;Data sizes: Strings 0, constant 0, data 1, bss 123, persistent 0 stack 0
   557 ;;Auto spaces:   Size  Autos    Used
   558 ;; COMMON          14     13      14
   559 ;; BANK0           80     40      79
   560 ;; BANK1           80      0      60
   561 ;; BANK3           96      0      24
   562 ;; BANK2           96      0       0
   563 ;;
   564 ;; Pointer list with targets:
   565 ;; ?_adc_get	unsigned int  size(1) Largest target is 0
   566 ;;
   567 ;; ?_getAdOriginalCh14Value	unsigned int  size(1) Largest target is 0
   568 ;;
   569 ;; ?_getAdOriginaCh4Value	unsigned int  size(1) Largest target is 0
   570 ;;
   571 ;; ?_getAdOriginalCh1Value	unsigned int  size(1) Largest target is 0
   572 ;;
   573 ;; ?_Filter	unsigned int  size(1) Largest target is 0
   574 ;;
   575 ;; Filter@tmpValue	PTR int  size(2) Largest target is 24
   576 ;;		 -> uiSampleChannelFourteenth(BANK3[24]), uiSampleChannelFourth(BANK1[24]), uiSampleChannelFirst(BANK1[24]), 
   577 ;;
   578 ;;
   579 ;; Critical Paths under _main in COMMON
   580 ;;
   581 ;;   None.
   582 ;;
   583 ;; Critical Paths under _ISR in COMMON
   584 ;;
   585 ;;   _ISR->_vPutSampleDataIntoTable
   586 ;;   _vPutSampleDataIntoTable->_adc_get
   587 ;;
   588 ;; Critical Paths under _main in BANK0
   589 ;;
   590 ;;   _main->_getAdOriginalCh14Value
   591 ;;   _main->_getAdOriginalCh1Value
   592 ;;   _main->_getAdOriginaCh4Value
   593 ;;   _getAdOriginaCh4Value->_Filter
   594 ;;   _getAdOriginalCh1Value->_Filter
   595 ;;   _getAdOriginalCh14Value->_Filter
   596 ;;   _process_AD_Converter_Value->_adc_test_init
   597 ;;
   598 ;; Critical Paths under _ISR in BANK0
   599 ;;
   600 ;;   None.
   601 ;;
   602 ;; Critical Paths under _main in BANK1
   603 ;;
   604 ;;   None.
   605 ;;
   606 ;; Critical Paths under _ISR in BANK1
   607 ;;
   608 ;;   None.
   609 ;;
   610 ;; Critical Paths under _main in BANK3
   611 ;;
   612 ;;   None.
   613 ;;
   614 ;; Critical Paths under _ISR in BANK3
   615 ;;
   616 ;;   None.
   617 ;;
   618 ;; Critical Paths under _main in BANK2
   619 ;;
   620 ;;   None.
   621 ;;
   622 ;; Critical Paths under _ISR in BANK2
   623 ;;
   624 ;;   None.
   625 ;;
   626 ;;Main: autosize = 0, tempsize = 0, incstack = 0, save=0
   627 ;;
   628 ;;
   629 ;;Call Graph Tables:
   630 ;;
   631 ;; ---------------------------------------------------------------------------------
   632 ;; (Depth) Function   	        Calls       Base Space   Used Autos Params    Refs
   633 ;; ---------------------------------------------------------------------------------
   634 ;; (0) _main                                                 0     0      0    2014
   635 ;;                            _initPin
   636 ;;                       _clock_config
   637 ;;                      _timer1_config
   638 ;;            _timer1_interrupt_config
   639 ;;                      _adc_test_init
   640 ;;                           _dac_init
   641 ;;                           _op1_init
   642 ;;                           _op2_init
   643 ;;                          _adc_start
   644 ;;         _process_AD_Converter_Value
   645 ;;                 _isPermitSampleTime
   646 ;;                       _clrSampeTime
   647 ;;             _getAdOriginalCh14Value
   648 ;;               _clearPinPortAndTimer
   649 ;;              _getAdOriginalCh1Value
   650 ;;               _startTwelveHourTimer
   651 ;;         _isFinishedTwelveHoursTimer
   652 ;;            _startTwentySecondsTimer
   653 ;;               _getAdOriginaCh4Value
   654 ;;       _isFinishedTwentySecondsTimer
   655 ;;               _startThreeHoursTimer
   656 ;;          _isFinishedThreeHoursTimer
   657 ;;               _clearThreeHoursTimer
   658 ;;                      _clearAllTimer
   659 ;; ---------------------------------------------------------------------------------
   660 ;; (1) _clearPinPortAndTimer                                 0     0      0       0
   661 ;;                      _clearAllTimer
   662 ;; ---------------------------------------------------------------------------------
   663 ;; (1) _getAdOriginaCh4Value                                 2     0      2     620
   664 ;;                                             38 BANK0      2     0      2
   665 ;;                             _Filter
   666 ;; ---------------------------------------------------------------------------------
   667 ;; (1) _getAdOriginalCh1Value                                2     0      2     620
   668 ;;                                             38 BANK0      2     0      2
   669 ;;                             _Filter
   670 ;; ---------------------------------------------------------------------------------
   671 ;; (1) _getAdOriginalCh14Value                               2     0      2     620
   672 ;;                                             38 BANK0      2     0      2
   673 ;;                             _Filter
   674 ;; ---------------------------------------------------------------------------------
   675 ;; (1) _process_AD_Converter_Value                           0     0      0      66
   676 ;;                  _getAD_ConvertFlag
   677 ;;                  _setAD_ConvertFlag
   678 ;;                          _AD_Sample
   679 ;;                      _adc_test_init
   680 ;;                          _adc_start
   681 ;; ---------------------------------------------------------------------------------
   682 ;; (1) _clearAllTimer                                        0     0      0       0
   683 ;;              _clearTwelveHoursTimer
   684 ;;               _clearThreeHoursTimer
   685 ;;            _clearTwentySecondsTimer
   686 ;; ---------------------------------------------------------------------------------
   687 ;; (2) _AD_Sample                                            0     0      0       0
   688 ;; ---------------------------------------------------------------------------------
   689 ;; (2) _setAD_ConvertFlag                                    1     1      0      22
   690 ;;                                              0 BANK0      1     1      0
   691 ;; ---------------------------------------------------------------------------------
   692 ;; (2) _getAD_ConvertFlag                                    0     0      0       0
   693 ;; ---------------------------------------------------------------------------------
   694 ;; (2) _Filter                                              38    36      2     620
   695 ;;                                              0 BANK0     38    36      2
   696 ;; ---------------------------------------------------------------------------------
   697 ;; (1) _isFinishedThreeHoursTimer                            0     0      0       0
   698 ;; ---------------------------------------------------------------------------------
   699 ;; (1) _startThreeHoursTimer                                 2     0      2      22
   700 ;;                                              0 BANK0      2     0      2
   701 ;; ---------------------------------------------------------------------------------
   702 ;; (1) _isFinishedTwentySecondsTimer                         0     0      0       0
   703 ;; ---------------------------------------------------------------------------------
   704 ;; (1) _startTwentySecondsTimer                              0     0      0       0
   705 ;; ---------------------------------------------------------------------------------
   706 ;; (1) _isFinishedTwelveHoursTimer                           0     0      0       0
   707 ;; ---------------------------------------------------------------------------------
   708 ;; (1) _startTwelveHourTimer                                 2     0      2      22
   709 ;;                                              0 BANK0      2     0      2
   710 ;; ---------------------------------------------------------------------------------
   711 ;; (1) _clrSampeTime                                         0     0      0       0
   712 ;; ---------------------------------------------------------------------------------
   713 ;; (1) _isPermitSampleTime                                   0     0      0       0
   714 ;; ---------------------------------------------------------------------------------
   715 ;; (2) _adc_start                                            0     0      0       0
   716 ;; ---------------------------------------------------------------------------------
   717 ;; (1) _op2_init                                             0     0      0       0
   718 ;; ---------------------------------------------------------------------------------
   719 ;; (1) _op1_init                                             0     0      0       0
   720 ;; ---------------------------------------------------------------------------------
   721 ;; (1) _dac_init                                             0     0      0       0
   722 ;; ---------------------------------------------------------------------------------
   723 ;; (2) _adc_test_init                                        3     2      1      44
   724 ;;                                              0 BANK0      3     2      1
   725 ;; ---------------------------------------------------------------------------------
   726 ;; (1) _timer1_interrupt_config                              0     0      0       0
   727 ;; ---------------------------------------------------------------------------------
   728 ;; (1) _timer1_config                                        0     0      0       0
   729 ;; ---------------------------------------------------------------------------------
   730 ;; (1) _clock_config                                         0     0      0       0
   731 ;; ---------------------------------------------------------------------------------
   732 ;; (1) _initPin                                              0     0      0       0
   733 ;; ---------------------------------------------------------------------------------
   734 ;; (2) _clearTwentySecondsTimer                              0     0      0       0
   735 ;; ---------------------------------------------------------------------------------
   736 ;; (2) _clearThreeHoursTimer                                 0     0      0       0
   737 ;; ---------------------------------------------------------------------------------
   738 ;; (2) _clearTwelveHoursTimer                                0     0      0       0
   739 ;; ---------------------------------------------------------------------------------
   740 ;; Estimated maximum stack depth 2
   741 ;; ---------------------------------------------------------------------------------
   742 ;; (Depth) Function   	        Calls       Base Space   Used Autos Params    Refs
   743 ;; ---------------------------------------------------------------------------------
   744 ;; (4) _ISR                                                  4     4      0     407
   745 ;;                                              9 COMMON     4     4      0
   746 ;;                i1_setAD_ConvertFlag
   747 ;;                            _adc_get
   748 ;;            _vPutSampleDataIntoTable
   749 ;; ---------------------------------------------------------------------------------
   750 ;; (5) i1_setAD_ConvertFlag                                  1     1      0      73
   751 ;;                                              0 COMMON     1     1      0
   752 ;; ---------------------------------------------------------------------------------
   753 ;; (5) _adc_get                                              4     2      2      24
   754 ;;                                              0 COMMON     4     2      2
   755 ;; ---------------------------------------------------------------------------------
   756 ;; (5) _vPutSampleDataIntoTable                              5     2      3     310
   757 ;;                                              4 COMMON     5     2      3
   758 ;;                            _adc_get (ARG)
   759 ;; ---------------------------------------------------------------------------------
   760 ;; Estimated maximum stack depth 5
   761 ;; ---------------------------------------------------------------------------------
   762 ;; Call Graph Graphs:
   763 ;; _main (ROOT)
   764 ;;   _initPin
   765 ;;   _clock_config
   766 ;;   _timer1_config
   767 ;;   _timer1_interrupt_config
   768 ;;   _adc_test_init
   769 ;;   _dac_init
   770 ;;   _op1_init
   771 ;;   _op2_init
   772 ;;   _adc_start
   773 ;;   _process_AD_Converter_Value
   774 ;;     _getAD_ConvertFlag
   775 ;;     _setAD_ConvertFlag
   776 ;;     _AD_Sample
   777 ;;     _adc_test_init
   778 ;;     _adc_start
   779 ;;   _isPermitSampleTime
   780 ;;   _clrSampeTime
   781 ;;   _getAdOriginalCh14Value
   782 ;;     _Filter
   783 ;;   _clearPinPortAndTimer
   784 ;;     _clearAllTimer
   785 ;;       _clearTwelveHoursTimer
   786 ;;       _clearThreeHoursTimer
   787 ;;       _clearTwentySecondsTimer
   788 ;;   _getAdOriginalCh1Value
   789 ;;     _Filter
   790 ;;   _startTwelveHourTimer
   791 ;;   _isFinishedTwelveHoursTimer
   792 ;;   _startTwentySecondsTimer
   793 ;;   _getAdOriginaCh4Value
   794 ;;     _Filter
   795 ;;   _isFinishedTwentySecondsTimer
   796 ;;   _startThreeHoursTimer
   797 ;;   _isFinishedThreeHoursTimer
   798 ;;   _clearThreeHoursTimer
   799 ;;   _clearAllTimer
   800 ;;     _clearTwelveHoursTimer
   801 ;;     _clearThreeHoursTimer
   802 ;;     _clearTwentySecondsTimer
   803 ;;
   804 ;; _ISR (ROOT)
   805 ;;   i1_setAD_ConvertFlag
   806 ;;   _adc_get
   807 ;;   _vPutSampleDataIntoTable
   808 ;;     _adc_get (ARG)
   809 ;;
   810 ;; Address spaces:
   811 ;;Name               Size   Autos  Total    Cost      Usage
   812 ;;BANK3               60      0      18      10       25.0%
   813 ;;BITBANK3            60      0       0       9        0.0%
   814 ;;SFR3                 0      0       0       4        0.0%
   815 ;;BITSFR3              0      0       0       4        0.0%
   816 ;;BANK2               60      0       0      12        0.0%
   817 ;;BITBANK2            60      0       0      11        0.0%
   818 ;;SFR2                 0      0       0       5        0.0%
   819 ;;BITSFR2              0      0       0       5        0.0%
   820 ;;SFR1                 0      0       0       2        0.0%
   821 ;;BITSFR1              0      0       0       2        0.0%
   822 ;;BANK1               50      0      3C       8       75.0%
   823 ;;BITBANK1            50      0       0       7        0.0%
   824 ;;CODE                 0      0       0       0        0.0%
   825 ;;DATA                 0      0      B8       6        0.0%
   826 ;;ABS                  0      0      B1       3        0.0%
   827 ;;NULL                 0      0       0       0        0.0%
   828 ;;STACK                0      0       7       2        0.0%
   829 ;;BANK0               50     28      4F       5       98.8%
   830 ;;BITBANK0            50      0       0       4        0.0%
   831 ;;SFR0                 0      0       0       1        0.0%
   832 ;;BITSFR0              0      0       0       1        0.0%
   833 ;;COMMON               E      D       E       1      100.0%
   834 ;;BITCOMMON            E      0       0       0        0.0%
   835                           
   836                           
   837 ;; *************** function _main *****************
   838 ;; Defined at:
   839 ;;		line 134 in file "D:\develop\190625\AK7030-OTP\main.c"
   840 ;; Parameters:    Size  Location     Type
   841 ;;		None
   842 ;; Auto vars:     Size  Location     Type
   843 ;;		None
   844 ;; Return value:  Size  Location     Type
   845 ;;		None               void
   846 ;; Registers used:
   847 ;;		wreg, fsr0l, fsr0h, status,2, status,0, btemp+1, pclath, cstack
   848 ;; Tracked objects:
   849 ;;		On entry : 17F/0
   850 ;;		On exit  : 60/0
   851 ;;		Unchanged: FFE00/0
   852 ;; Data sizes:     COMMON   BANK0   BANK1   BANK3   BANK2
   853 ;;      Params:         0       0       0       0       0
   854 ;;      Locals:         0       0       0       0       0
   855 ;;      Temps:          0       0       0       0       0
   856 ;;      Totals:         0       0       0       0       0
   857 ;;Total ram usage:        0 bytes
   858 ;; Hardware stack levels required when called:    5
   859 ;; This function calls:
   860 ;;		_initPin
   861 ;;		_clock_config
   862 ;;		_timer1_config
   863 ;;		_timer1_interrupt_config
   864 ;;		_adc_test_init
   865 ;;		_dac_init
   866 ;;		_op1_init
   867 ;;		_op2_init
   868 ;;		_adc_start
   869 ;;		_process_AD_Converter_Value
   870 ;;		_isPermitSampleTime
   871 ;;		_clrSampeTime
   872 ;;		_getAdOriginalCh14Value
   873 ;;		_clearPinPortAndTimer
   874 ;;		_getAdOriginalCh1Value
   875 ;;		_startTwelveHourTimer
   876 ;;		_isFinishedTwelveHoursTimer
   877 ;;		_startTwentySecondsTimer
   878 ;;		_getAdOriginaCh4Value
   879 ;;		_isFinishedTwentySecondsTimer
   880 ;;		_startThreeHoursTimer
   881 ;;		_isFinishedThreeHoursTimer
   882 ;;		_clearThreeHoursTimer
   883 ;;		_clearAllTimer
   884 ;; This function is called by:
   885 ;;		Startup code after reset
   886 ;; This function uses a non-reentrant model
   887 ;;
   888  0013                     _main:	
   889                           
   890                           ;main.c: 135: enum setp_Adc4
   891                           ;main.c: 136: {
   892                           ;main.c: 137: ADC4_STEP_INIT = 0,
   893                           ;main.c: 138: ADC4_STEP_FIRST,
   894                           ;main.c: 139: ADC4_STEP_SECOND,
   895                           ;main.c: 140: ADC4_STEP_THIRD,
   896                           ;main.c: 141: ADC4_STEP_FOURTH,
   897                           ;main.c: 142: ADC4_STEP_FIFTH,
   898                           ;main.c: 143: ADC4_STEP_SIXTH,
   899                           ;main.c: 144: };
   900                           ;main.c: 147: static unsigned char ucWaitTime1S = 0;
   901                           ;main.c: 149: static unsigned char ucWaitTimeO3s = 0;
   902                           ;main.c: 151: static unsigned char ucSmallTimerActionFlag = 0;
   903                           ;main.c: 153: static unsigned char ucSetSmallActionFlag = 0;
   904                           
   905                           ; Regs used in _main: [wreg-fsr0h+status,2+status,0+btemp+1+pclath+cstack]
   906  0013  1683               	bsf	3,5	;RP0=1, select bank1
   907  0014  1005               	bcf	5,0
   908                           
   909                           ;main.c: 160: TRISA1 = 0;
   910  0015  1085               	bcf	5,1
   911                           
   912                           ;main.c: 161: TRISA2 = 0;
   913  0016  1105               	bcf	5,2
   914                           
   915                           ;main.c: 162: TRISA3 = 0;
   916  0017  1185               	bcf	5,3
   917                           
   918                           ;main.c: 163: TRISB0 = 0;
   919  0018  1006               	bcf	6,0
   920                           
   921                           ;main.c: 164: TRISB1 = 0;
   922  0019  1086               	bcf	6,1
   923                           
   924                           ;main.c: 165: TRISA6 = 0;
   925  001A  1305               	bcf	5,6
   926                           
   927                           ;main.c: 166: TRISA7 = 0;
   928  001B  1385               	bcf	5,7
   929                           
   930                           ;main.c: 167: TRISB6 = 0;
   931  001C  1306               	bcf	6,6
   932                           
   933                           ;main.c: 170: initPin();
   934  001D  118A  25CC  118A   	fcall	_initPin
   935                           
   936                           ;main.c: 173: TRISB2 = 1;
   937  0020  1303               	bcf	3,6	;RP1=0, select bank1
   938  0021  1506               	bsf	6,2
   939                           
   940                           ;main.c: 175: TRISB7 = 1;
   941  0022  1786               	bsf	6,7
   942                           
   943                           ;main.c: 176: TRISB4 = 1;
   944  0023  1606               	bsf	6,4
   945                           
   946                           ;main.c: 178: clock_config();
   947  0024  118A  2648  118A   	fcall	_clock_config
   948                           
   949                           ;main.c: 179: timer1_config();
   950  0027  118A  262E  118A   	fcall	_timer1_config
   951                           
   952                           ;main.c: 180: timer1_interrupt_config();
   953  002A  118A  2672  118A   	fcall	_timer1_interrupt_config
   954                           
   955                           ;main.c: 182: adc_test_init(14,3);
   956  002D  3003               	movlw	3
   957  002E  1283               	bcf	3,5	;RP0=0, select bank0
   958  002F  00A0               	movwf	?_adc_test_init
   959  0030  300E               	movlw	14
   960  0031  118A  257F  118A   	fcall	_adc_test_init
   961                           
   962                           ;main.c: 184: dac_init();
   963  0034  118A  266D  118A   	fcall	_dac_init
   964                           
   965                           ;main.c: 185: op1_init();
   966  0037  118A  2623  118A   	fcall	_op1_init
   967                           
   968                           ;main.c: 186: op2_init();
   969  003A  118A  2640  118A   	fcall	_op2_init
   970                           
   971                           ;main.c: 189: adc_start();
   972  003D  118A  2594  118A   	fcall	_adc_start
   973  0040                     l4244:	
   974  0040  0064               	clrwdt	;#
   975                           
   976                           ;main.c: 229: process_AD_Converter_Value();
   977  0041  118A  253A  118A   	fcall	_process_AD_Converter_Value
   978                           
   979                           ;main.c: 231: if(isPermitSampleTime())
   980  0044  118A  2662  118A   	fcall	_isPermitSampleTime
   981  0047  3A00               	xorlw	0
   982  0048  1903               	skipnz
   983  0049  2840               	goto	l4244
   984                           
   985                           ;main.c: 232: {
   986                           ;main.c: 233: clrSampeTime();
   987  004A  118A  2675  118A   	fcall	_clrSampeTime
   988                           
   989                           ;main.c: 247: switch(enumMainLoopStep)
   990  004D  2B72               	goto	l4808
   991  004E                     l4252:	
   992                           
   993                           ;main.c: 250: {
   994                           ;main.c: 251: static unsigned char ucTimerZeroPoint5s = 0;
   995                           ;main.c: 252: if(getAdOriginalCh14Value() > 1950)
   996  004E  118A  2482  118A   	fcall	_getAdOriginalCh14Value
   997  0051  3007               	movlw	7
   998  0052  0247               	subwf	?_getAdOriginalCh14Value+1,w
   999  0053  309F               	movlw	159
  1000  0054  1903               	skipnz
  1001  0055  0246               	subwf	?_getAdOriginalCh14Value,w
  1002  0056  1C03               	skipc
  1003  0057  285A               	goto	l4256
  1004                           
  1005                           ;main.c: 253: {
  1006                           ;main.c: 254: ucTimerZeroPoint5s++;
  1007  0058  0AEB               	incf	main@ucTimerZeroPoint5s,f
  1008                           
  1009                           ;main.c: 255: }
  1010  0059  285B               	goto	l4258
  1011  005A                     l4256:	
  1012                           
  1013                           ;main.c: 256: else
  1014                           ;main.c: 257: ucTimerZeroPoint5s = 0;
  1015  005A  01EB               	clrf	main@ucTimerZeroPoint5s
  1016  005B                     l4258:	
  1017                           
  1018                           ;main.c: 259: if(ucTimerZeroPoint5s >= 5)
  1019  005B  3005               	movlw	5
  1020  005C  026B               	subwf	main@ucTimerZeroPoint5s,w
  1021  005D  1C03               	skipc
  1022  005E  2840               	goto	l4244
  1023                           
  1024                           ;main.c: 260: {
  1025                           ;main.c: 261: ucTimerZeroPoint5s = 0;
  1026  005F  01EB               	clrf	main@ucTimerZeroPoint5s
  1027                           
  1028                           ;main.c: 262: enumMainLoopStep = MAIN_LOOP_STEP_FIRST;
  1029  0060  01CB               	clrf	main@enumMainLoopStep
  1030  0061  0ACB               	incf	main@enumMainLoopStep,f
  1031  0062                     l710:	
  1032                           
  1033                           ;main.c: 263: }
  1034                           ;main.c: 264: break;
  1035  0062  2840               	goto	l4244
  1036  0063                     l4264:	
  1037                           
  1038                           ;main.c: 268: {
  1039                           ;main.c: 269: static unsigned char ucTimerZeroPoint3s = 0;
  1040                           ;main.c: 272: if(getAdOriginalCh14Value() > 1950)
  1041  0063  118A  2482  118A   	fcall	_getAdOriginalCh14Value
  1042  0066  3007               	movlw	7
  1043  0067  0247               	subwf	?_getAdOriginalCh14Value+1,w
  1044  0068  309F               	movlw	159
  1045  0069  1903               	skipnz
  1046  006A  0246               	subwf	?_getAdOriginalCh14Value,w
  1047  006B  1C03               	skipc
  1048  006C  2871               	goto	l4270
  1049                           
  1050                           ;main.c: 273: {
  1051                           ;main.c: 275: enumMainLoopStep = MAIN_LOOP_STEP_SECOND;
  1052  006D  3002               	movlw	2
  1053  006E  00CB               	movwf	main@enumMainLoopStep
  1054                           
  1055                           ;main.c: 277: ucTimerZeroPoint3s = 0;
  1056  006F  01EA               	clrf	main@ucTimerZeroPoint3s
  1057                           
  1058                           ;main.c: 280: }
  1059  0070  2840               	goto	l4244
  1060  0071                     l4270:	
  1061  0071  3003               	movlw	3
  1062                           
  1063                           ;main.c: 281: else
  1064                           ;main.c: 282: {
  1065                           ;main.c: 283: ucTimerZeroPoint3s++;
  1066  0072  0AEA               	incf	main@ucTimerZeroPoint3s,f
  1067                           
  1068                           ;main.c: 285: if(ucTimerZeroPoint3s >= 3)
  1069  0073  026A               	subwf	main@ucTimerZeroPoint3s,w
  1070  0074  1C03               	skipc
  1071  0075  2840               	goto	l4244
  1072                           
  1073                           ;main.c: 286: {
  1074                           ;main.c: 287: ucTimerZeroPoint3s = 0;
  1075  0076  01EA               	clrf	main@ucTimerZeroPoint3s
  1076                           
  1077                           ;main.c: 289: clearPinPortAndTimer();
  1078  0077  118A  2597  118A   	fcall	_clearPinPortAndTimer
  1079  007A  2840               	goto	l4244
  1080  007B                     l718:	
  1081                           ;main.c: 298: }
  1082                           ;main.c: 300: case MAIN_LOOP_STEP_SECOND:
  1083                           
  1084  007B  3005               	movlw	5
  1085                           
  1086                           ;main.c: 301: {
  1087                           ;main.c: 302: static unsigned char ucTimerP5s = 0;
  1088                           ;main.c: 304: PA6 = 1;
  1089  007C  1705               	bsf	5,6
  1090                           
  1091                           ;main.c: 306: if(ucTimerP5s < 5)
  1092  007D  0263               	subwf	main@ucTimerP5s,w
  1093  007E  1803               	skipnc
  1094  007F  2882               	goto	l4282
  1095                           
  1096                           ;main.c: 307: ucTimerP5s++;
  1097  0080  0AE3               	incf	main@ucTimerP5s,f
  1098  0081  2840               	goto	l4244
  1099  0082                     l4282:	
  1100  0082  3003               	movlw	3
  1101                           
  1102                           ;main.c: 308: else
  1103                           ;main.c: 309: {
  1104                           ;main.c: 310: ucTimerP5s = 0;
  1105  0083  01E3               	clrf	main@ucTimerP5s
  1106                           
  1107                           ;main.c: 312: enumMainLoopStep = MAIN_LOOP_STEP_THIRD;
  1108  0084  2AEA               	goto	L6
  1109  0085                     l4286:	
  1110                           
  1111                           ;main.c: 319: {
  1112                           ;main.c: 320: static unsigned char ucTimerADC1ZeroP5s = 0;
  1113                           ;main.c: 322: static unsigned char ucTimerLessADC1ZeroP5s = 0;
  1114                           ;main.c: 324: static unsigned char ucTimerLessADC1ZeroP5sFlag = 0;
  1115                           ;main.c: 326: static unsigned char ucTimerRightP5s = 0;
  1116                           ;main.c: 328: if(getAdOriginalCh1Value() < 115)
  1117  0085  118A  2478  118A   	fcall	_getAdOriginalCh1Value
  1118  0088  3000               	movlw	0
  1119  0089  0247               	subwf	?_getAdOriginalCh1Value+1,w
  1120  008A  3073               	movlw	115
  1121  008B  1903               	skipnz
  1122  008C  0246               	subwf	?_getAdOriginalCh1Value,w
  1123  008D  1803               	skipnc
  1124  008E  2892               	goto	l4292
  1125                           
  1126                           ;main.c: 329: {
  1127                           ;main.c: 330: ucTimerADC1ZeroP5s = 0;
  1128  008F  01D5               	clrf	main@ucTimerADC1ZeroP5s
  1129                           
  1130                           ;main.c: 332: ucTimerLessADC1ZeroP5s++;
  1131  0090  0AE0               	incf	main@ucTimerLessADC1ZeroP5s,f
  1132                           
  1133                           ;main.c: 333: }
  1134  0091  2894               	goto	l4296
  1135  0092                     l4292:	
  1136                           
  1137                           ;main.c: 334: else
  1138                           ;main.c: 335: {
  1139                           ;main.c: 336: ucTimerADC1ZeroP5s++;
  1140  0092  0AD5               	incf	main@ucTimerADC1ZeroP5s,f
  1141                           
  1142                           ;main.c: 338: ucTimerLessADC1ZeroP5s = 0;
  1143  0093  01E0               	clrf	main@ucTimerLessADC1ZeroP5s
  1144  0094                     l4296:	
  1145                           
  1146                           ;main.c: 339: }
  1147                           ;main.c: 341: if(ucTimerADC1ZeroP5s >= 3)
  1148  0094  3003               	movlw	3
  1149  0095  0255               	subwf	main@ucTimerADC1ZeroP5s,w
  1150  0096  1C03               	skipc
  1151  0097  289B               	goto	l4302
  1152  0098  3004               	movlw	4
  1153                           
  1154                           ;main.c: 342: {
  1155                           ;main.c: 343: ucTimerADC1ZeroP5s = 0;
  1156  0099  01D5               	clrf	main@ucTimerADC1ZeroP5s
  1157                           
  1158                           ;main.c: 344: enumMainLoopStep = MAIN_LOOP_STEP_FOURTH;
  1159  009A  28B3               	goto	L2
  1160  009B                     l4302:	
  1161                           ;main.c: 345: }
  1162                           
  1163                           
  1164                           ;main.c: 346: else if( ucTimerLessADC1ZeroP5s >= 3)
  1165  009B  3003               	movlw	3
  1166  009C  0260               	subwf	main@ucTimerLessADC1ZeroP5s,w
  1167  009D  1C03               	skipc
  1168  009E  28B4               	goto	l4316
  1169                           
  1170                           ;main.c: 347: {
  1171                           ;main.c: 349: if(getAdOriginalCh1Value() < 105)
  1172  009F  118A  2478  118A   	fcall	_getAdOriginalCh1Value
  1173  00A2  3000               	movlw	0
  1174  00A3  0247               	subwf	?_getAdOriginalCh1Value+1,w
  1175  00A4  3069               	movlw	105
  1176  00A5  1903               	skipnz
  1177  00A6  0246               	subwf	?_getAdOriginalCh1Value,w
  1178  00A7  1803               	skipnc
  1179  00A8  28AB               	goto	l4308
  1180                           
  1181                           ;main.c: 350: {
  1182                           ;main.c: 351: ucTimerRightP5s++;
  1183  00A9  0AE6               	incf	main@ucTimerRightP5s,f
  1184                           
  1185                           ;main.c: 352: }
  1186  00AA  28AC               	goto	l4310
  1187  00AB                     l4308:	
  1188                           
  1189                           ;main.c: 353: else
  1190                           ;main.c: 354: {
  1191                           ;main.c: 355: ucTimerRightP5s = 0;
  1192  00AB  01E6               	clrf	main@ucTimerRightP5s
  1193  00AC                     l4310:	
  1194                           
  1195                           ;main.c: 356: }
  1196                           ;main.c: 358: if(ucTimerRightP5s >= 3)
  1197  00AC  3003               	movlw	3
  1198  00AD  0266               	subwf	main@ucTimerRightP5s,w
  1199  00AE  1C03               	skipc
  1200  00AF  28B4               	goto	l4316
  1201  00B0  3008               	movlw	8
  1202                           
  1203                           ;main.c: 359: {
  1204                           ;main.c: 360: ucTimerLessADC1ZeroP5s = 0;
  1205  00B1  01E0               	clrf	main@ucTimerLessADC1ZeroP5s
  1206                           
  1207                           ;main.c: 361: ucTimerRightP5s = 0;
  1208  00B2  01E6               	clrf	main@ucTimerRightP5s
  1209  00B3                     L2:	
  1210                           ;main.c: 362: enumMainLoopStep = MAIN_LOOP_STEP_3_HOUR_BRANCH;
  1211                           
  1212  00B3  00CB               	movwf	main@enumMainLoopStep
  1213  00B4                     l4316:	
  1214                           ;main.c: 369: else
  1215                           ;main.c: 370: {
  1216                           ;main.c: 371: ;
  1217                           
  1218                           ;main.c: 363: }
  1219                           
  1220                           
  1221                           ;main.c: 372: }
  1222                           ;main.c: 374: if((MAIN_LOOP_STEP_3_HOUR_BRANCH == enumMainLoopStep) || (MAIN_LOOP_STEP_F
      +                          OURTH == enumMainLoopStep))
  1223  00B4  084B               	movf	main@enumMainLoopStep,w
  1224  00B5  3A08               	xorlw	8
  1225  00B6  1903               	skipnz
  1226  00B7  28BC               	goto	l4320
  1227  00B8  084B               	movf	main@enumMainLoopStep,w
  1228  00B9  3A04               	xorlw	4
  1229  00BA  1D03               	skipz
  1230  00BB  2840               	goto	l4244
  1231  00BC                     l4320:	
  1232                           
  1233                           ;main.c: 375: {
  1234                           ;main.c: 376: ucTimerRightP5s = 0;
  1235  00BC  01E6               	clrf	main@ucTimerRightP5s
  1236                           
  1237                           ;main.c: 377: ucTimerADC1ZeroP5s = 0;
  1238  00BD  01D5               	clrf	main@ucTimerADC1ZeroP5s
  1239                           
  1240                           ;main.c: 378: ucTimerLessADC1ZeroP5s = 0;
  1241  00BE  01E0               	clrf	main@ucTimerLessADC1ZeroP5s
  1242  00BF  2840               	goto	l4244
  1243  00C0                     l4322:	
  1244                           
  1245                           ;main.c: 386: {
  1246                           ;main.c: 388: startTwelveHourTimer(43200);
  1247  00C0  30C0               	movlw	192
  1248  00C1  00A0               	movwf	?_startTwelveHourTimer
  1249  00C2  30A8               	movlw	168
  1250  00C3  00A1               	movwf	?_startTwelveHourTimer+1
  1251  00C4  118A  2609  118A   	fcall	_startTwelveHourTimer
  1252                           
  1253                           ;main.c: 389: enumMainLoopStep = MAIN_LOOP_STEP_FIFTH;
  1254  00C7  3005               	movlw	5
  1255  00C8  1283               	bcf	3,5	;RP0=0, select bank0
  1256  00C9  00CB               	movwf	main@enumMainLoopStep
  1257                           
  1258                           ;main.c: 391: bCheckTweHour = 0;
  1259  00CA  01C9               	clrf	main@bCheckTweHour
  1260                           
  1261                           ;main.c: 393: break;
  1262  00CB  2840               	goto	l4244
  1263  00CC                     l4328:	
  1264                           
  1265                           ;main.c: 397: {
  1266                           ;main.c: 399: if(( isFinishedTwelveHoursTimer() && (! bCheckTweHour)))
  1267  00CC  118A  265C  118A   	fcall	_isFinishedTwelveHoursTimer
  1268  00CF  3A00               	xorlw	0
  1269  00D0  1903               	skipnz
  1270  00D1  2A8E               	goto	l4688
  1271  00D2  1283               	bcf	3,5	;RP0=0, select bank0
  1272  00D3  08C9               	movf	main@bCheckTweHour,f
  1273  00D4  1D03               	skipz
  1274  00D5  2A8E               	goto	l4688
  1275                           
  1276                           ;main.c: 400: {
  1277                           ;main.c: 401: enumMainLoopStep = MAIN_LOOP_STEP_12_HOUR_END;
  1278  00D6  3009               	movlw	9
  1279  00D7  00CB               	movwf	main@enumMainLoopStep
  1280                           
  1281                           ;main.c: 402: bCheckTweHour = 1;
  1282  00D8  01C9               	clrf	main@bCheckTweHour
  1283  00D9  0AC9               	incf	main@bCheckTweHour,f
  1284                           
  1285                           ;main.c: 403: }
  1286  00DA  2840               	goto	l4244
  1287  00DB                     l4336:	
  1288                           
  1289                           ;main.c: 411: {
  1290                           ;main.c: 412: startTwentySecondsTimer();
  1291  00DB  118A  2668  118A   	fcall	_startTwentySecondsTimer
  1292  00DE                     l4338:	
  1293                           
  1294                           ;main.c: 413: ucADC4_Step = ADC4_STEP_FIRST;
  1295  00DE  1283               	bcf	3,5	;RP0=0, select bank0
  1296  00DF  01CC               	clrf	main@ucADC4_Step
  1297  00E0  0ACC               	incf	main@ucADC4_Step,f
  1298                           
  1299                           ;main.c: 414: break;
  1300  00E1  2840               	goto	l4244
  1301  00E2                     l4340:	
  1302                           
  1303                           ;main.c: 418: {
  1304                           ;main.c: 419: if(getAdOriginaCh4Value() < 1911)
  1305  00E2  118A  246F  118A   	fcall	_getAdOriginaCh4Value
  1306  00E5  3007               	movlw	7
  1307  00E6  0247               	subwf	?_getAdOriginaCh4Value+1,w
  1308  00E7  3077               	movlw	119
  1309  00E8  1903               	skipnz
  1310  00E9  0246               	subwf	?_getAdOriginaCh4Value,w
  1311  00EA  1803               	skipnc
  1312  00EB  28EE               	goto	l4344
  1313                           
  1314                           ;main.c: 420: ucChannel4Type = LESS_THAN_1911;
  1315  00EC  01CD               	clrf	main@ucChannel4Type
  1316  00ED  2915               	goto	l756
  1317  00EE                     l4344:	
  1318                           
  1319                           ;main.c: 421: else if(getAdOriginaCh4Value() < 2067)
  1320  00EE  118A  246F  118A   	fcall	_getAdOriginaCh4Value
  1321  00F1  3008               	movlw	8
  1322  00F2  0247               	subwf	?_getAdOriginaCh4Value+1,w
  1323  00F3  3013               	movlw	19
  1324  00F4  1903               	skipnz
  1325  00F5  0246               	subwf	?_getAdOriginaCh4Value,w
  1326  00F6  1803               	skipnc
  1327  00F7  28FB               	goto	l4348
  1328                           
  1329                           ;main.c: 422: ucChannel4Type = BETWEEN_1911_AND_2067;
  1330  00F8  01CD               	clrf	main@ucChannel4Type
  1331  00F9  0ACD               	incf	main@ucChannel4Type,f
  1332  00FA  2915               	goto	l756
  1333  00FB                     l4348:	
  1334                           
  1335                           ;main.c: 423: else if(getAdOriginaCh4Value() < 2204)
  1336  00FB  118A  246F  118A   	fcall	_getAdOriginaCh4Value
  1337  00FE  3008               	movlw	8
  1338  00FF  0247               	subwf	?_getAdOriginaCh4Value+1,w
  1339  0100  309C               	movlw	156
  1340  0101  1903               	skipnz
  1341  0102  0246               	subwf	?_getAdOriginaCh4Value,w
  1342  0103  1803               	skipnc
  1343  0104  2907               	goto	l4352
  1344                           
  1345                           ;main.c: 424: ucChannel4Type = BETWEEN_2067_AND_2204;
  1346  0105  3002               	movlw	2
  1347  0106  2914               	goto	L3
  1348  0107                     l4352:	
  1349                           
  1350                           ;main.c: 425: else if(getAdOriginaCh4Value() < 2340)
  1351  0107  118A  246F  118A   	fcall	_getAdOriginaCh4Value
  1352  010A  3009               	movlw	9
  1353  010B  0247               	subwf	?_getAdOriginaCh4Value+1,w
  1354  010C  3024               	movlw	36
  1355  010D  1903               	skipnz
  1356  010E  0246               	subwf	?_getAdOriginaCh4Value,w
  1357  010F  1803               	skipnc
  1358  0110  2913               	goto	l4356
  1359                           
  1360                           ;main.c: 426: ucChannel4Type = BETWEEN_2204_AND_2340;
  1361  0111  3003               	movlw	3
  1362  0112  2914               	goto	L3
  1363  0113                     l4356:	
  1364                           
  1365                           ;main.c: 427: else
  1366                           ;main.c: 428: ucChannel4Type = MORE_THAN_2340;
  1367  0113  3004               	movlw	4
  1368  0114                     L3:	
  1369  0114  00CD               	movwf	main@ucChannel4Type
  1370  0115                     l756:	
  1371                           
  1372                           ;main.c: 430: ucADC4_Step = ADC4_STEP_SECOND;
  1373  0115  3002               	movlw	2
  1374  0116  2945               	goto	L4
  1375  0117                     l771:	
  1376                           ;main.c: 445: {
  1377                           ;main.c: 446: case 0:
  1378                           
  1379                           ;main.c: 431: break;
  1380                           
  1381                           
  1382                           ;main.c: 447: {
  1383                           ;main.c: 448: PB0 = 1;
  1384  0117  1406               	bsf	6,0
  1385  0118                     l4358:	
  1386                           
  1387                           ;main.c: 449: ucLoaderStep++;
  1388  0118  0ACE               	incf	main@ucLoaderStep,f
  1389                           
  1390                           ;main.c: 450: break;
  1391  0119  2840               	goto	l4244
  1392  011A                     l4360:	
  1393                           
  1394                           ;main.c: 454: {
  1395                           ;main.c: 455: if(ucTimerDelay >= 5)
  1396  011A  3005               	movlw	5
  1397  011B  0256               	subwf	main@ucTimerDelay,w
  1398  011C  1C03               	skipc
  1399  011D  2921               	goto	l4368
  1400                           
  1401                           ;main.c: 456: {
  1402                           ;main.c: 457: PA0 = 1;
  1403  011E  1405               	bsf	5,0
  1404  011F                     l4364:	
  1405                           
  1406                           ;main.c: 458: ucTimerDelay = 0;
  1407  011F  01D6               	clrf	main@ucTimerDelay
  1408  0120  2918               	goto	l4358
  1409  0121                     l4368:	
  1410                           
  1411                           ;main.c: 461: else
  1412                           ;main.c: 462: ucTimerDelay++;
  1413  0121  0AD6               	incf	main@ucTimerDelay,f
  1414  0122  2840               	goto	l4244
  1415  0123                     l4370:	
  1416                           
  1417                           ;main.c: 467: {
  1418                           ;main.c: 468: if(ucTimerDelay >= 5)
  1419  0123  3005               	movlw	5
  1420  0124  0256               	subwf	main@ucTimerDelay,w
  1421  0125  1C03               	skipc
  1422  0126  2921               	goto	l4368
  1423                           
  1424                           ;main.c: 469: {
  1425                           ;main.c: 470: PA1= 1;
  1426  0127  1485               	bsf	5,1
  1427  0128  291F               	goto	l4364
  1428  0129                     l4380:	
  1429                           
  1430                           ;main.c: 481: {
  1431                           ;main.c: 482: if(ucTimerDelay >= 5)
  1432  0129  3005               	movlw	5
  1433  012A  0256               	subwf	main@ucTimerDelay,w
  1434  012B  1C03               	skipc
  1435  012C  2921               	goto	l4368
  1436                           
  1437                           ;main.c: 483: {
  1438                           ;main.c: 484: PA2= 1;
  1439  012D  1505               	bsf	5,2
  1440  012E  291F               	goto	l4364
  1441  012F                     l4390:	
  1442                           
  1443                           ;main.c: 494: {
  1444                           ;main.c: 495: if(ucTimerDelay >= 5)
  1445  012F  3005               	movlw	5
  1446  0130  0256               	subwf	main@ucTimerDelay,w
  1447  0131  1C03               	skipc
  1448  0132  2921               	goto	l4368
  1449                           
  1450                           ;main.c: 496: {
  1451                           ;main.c: 497: PA3 = 1;
  1452  0133  1585               	bsf	5,3
  1453  0134  291F               	goto	l4364
  1454  0135                     l4400:	
  1455                           
  1456                           ;main.c: 507: {
  1457                           ;main.c: 508: if(ucTimerDelay >= 5)
  1458  0135  3005               	movlw	5
  1459  0136  0256               	subwf	main@ucTimerDelay,w
  1460  0137  1C03               	skipc
  1461  0138  2921               	goto	l4368
  1462                           
  1463                           ;main.c: 509: {
  1464                           ;main.c: 510: PB0 = 0;
  1465  0139  1006               	bcf	6,0
  1466                           
  1467                           ;main.c: 511: PA0 = 0;
  1468  013A  1005               	bcf	5,0
  1469                           
  1470                           ;main.c: 512: PA1 = 0;
  1471  013B  1085               	bcf	5,1
  1472                           
  1473                           ;main.c: 513: PA2 = 0;
  1474  013C  1105               	bcf	5,2
  1475                           
  1476                           ;main.c: 514: PA3 = 0;
  1477  013D  1185               	bcf	5,3
  1478  013E  291F               	goto	l4364
  1479  013F                     l4410:	
  1480                           
  1481                           ;main.c: 524: {
  1482                           ;main.c: 525: if(ucTimerDelay >= 1)
  1483  013F  0856               	movf	main@ucTimerDelay,w
  1484  0140  1903               	btfsc	3,2
  1485  0141  2921               	goto	l4368
  1486                           
  1487                           ;main.c: 526: {
  1488                           ;main.c: 527: ucTimerDelay = 0;
  1489  0142  01D6               	clrf	main@ucTimerDelay
  1490                           
  1491                           ;main.c: 529: ucLoaderStep = 0;
  1492  0143  01CE               	clrf	main@ucLoaderStep
  1493  0144                     l4414:	
  1494                           
  1495                           ;main.c: 530: ucADC4_Step = ADC4_STEP_THIRD;
  1496  0144  3003               	movlw	3
  1497  0145                     L4:	
  1498  0145  00CC               	movwf	main@ucADC4_Step
  1499                           
  1500                           ;main.c: 531: }
  1501  0146  2840               	goto	l4244
  1502  0147                     l4420:	
  1503  0147  084E               	movf	main@ucLoaderStep,w
  1504                           
  1505                           ; Switch size 1, requested type "space"
  1506                           ; Number of cases is 7, Range of values is 0 to 6
  1507                           ; switch strategies available:
  1508                           ; Name         Instructions Cycles
  1509                           ; direct_byte           21     7 (fixed)
  1510                           ; simple_byte           22    12 (average)
  1511                           ; jumptable            260     6 (fixed)
  1512                           ; rangetable            11     6 (fixed)
  1513                           ; spacedrange           20     9 (fixed)
  1514                           ; locatedrange           7     3 (fixed)
  1515                           ;	Chosen strategy is direct_byte
  1516  0148  0084               	movwf	4
  1517  0149  3007               	movlw	7
  1518  014A  0204               	subwf	4,w
  1519  014B  1803               	skipnc
  1520  014C  2840               	goto	l4244
  1521  014D  3005               	movlw	high S5026
  1522  014E  008A               	movwf	10
  1523  014F  1003               	clrc
  1524  0150  0D04               	rlf	4,w
  1525  0151  3EDF               	addlw	low S5026
  1526  0152  0082               	movwf	2
  1527  0153                     l799:	
  1528                           ;main.c: 550: {
  1529                           ;main.c: 551: case 0:
  1530                           
  1531                           
  1532                           ;main.c: 552: {
  1533                           ;main.c: 553: PB0 = 1;
  1534  0153  1406               	bsf	6,0
  1535  0154                     l4422:	
  1536                           
  1537                           ;main.c: 554: ucLoaderStep1++;
  1538  0154  0ACF               	incf	main@ucLoaderStep1,f
  1539                           
  1540                           ;main.c: 555: break;
  1541  0155  2840               	goto	l4244
  1542  0156                     l4424:	
  1543                           
  1544                           ;main.c: 559: {
  1545                           ;main.c: 560: if(ucTimerDelay1 >= 5)
  1546  0156  3005               	movlw	5
  1547  0157  0257               	subwf	main@ucTimerDelay1,w
  1548  0158  1C03               	skipc
  1549  0159  295D               	goto	l4432
  1550                           
  1551                           ;main.c: 561: {
  1552                           ;main.c: 562: PA0 = 1;
  1553  015A  1405               	bsf	5,0
  1554  015B                     l4428:	
  1555                           
  1556                           ;main.c: 563: ucTimerDelay1 = 0;
  1557  015B  01D7               	clrf	main@ucTimerDelay1
  1558  015C  2954               	goto	l4422
  1559  015D                     l4432:	
  1560                           
  1561                           ;main.c: 566: else
  1562                           ;main.c: 567: ucTimerDelay1++;
  1563  015D  0AD7               	incf	main@ucTimerDelay1,f
  1564  015E  2840               	goto	l4244
  1565  015F                     l4434:	
  1566                           
  1567                           ;main.c: 572: {
  1568                           ;main.c: 573: if(ucTimerDelay1 >= 5)
  1569  015F  3005               	movlw	5
  1570  0160  0257               	subwf	main@ucTimerDelay1,w
  1571  0161  1C03               	skipc
  1572  0162  295D               	goto	l4432
  1573                           
  1574                           ;main.c: 574: {
  1575                           ;main.c: 575: PA1= 1;
  1576  0163  1485               	bsf	5,1
  1577  0164  295B               	goto	l4428
  1578  0165                     l4444:	
  1579                           
  1580                           ;main.c: 585: {
  1581                           ;main.c: 586: if(ucTimerDelay1 >= 5)
  1582  0165  3005               	movlw	5
  1583  0166  0257               	subwf	main@ucTimerDelay1,w
  1584  0167  1C03               	skipc
  1585  0168  295D               	goto	l4432
  1586                           
  1587                           ;main.c: 587: {
  1588                           ;main.c: 588: PA2 = 1;
  1589  0169  1505               	bsf	5,2
  1590  016A  295B               	goto	l4428
  1591  016B                     l4454:	
  1592                           
  1593                           ;main.c: 598: {
  1594                           ;main.c: 599: if(ucTimerDelay1 >= 5)
  1595  016B  3005               	movlw	5
  1596  016C  0257               	subwf	main@ucTimerDelay1,w
  1597  016D  1C03               	skipc
  1598  016E  295D               	goto	l4432
  1599                           
  1600                           ;main.c: 600: {
  1601                           ;main.c: 601: PA3 = 1;
  1602  016F  1585               	bsf	5,3
  1603  0170  295B               	goto	l4428
  1604  0171                     l4464:	
  1605                           
  1606                           ;main.c: 611: {
  1607                           ;main.c: 612: if(ucTimerDelay1 >= 5)
  1608  0171  3005               	movlw	5
  1609  0172  0257               	subwf	main@ucTimerDelay1,w
  1610  0173  1C03               	skipc
  1611  0174  295D               	goto	l4432
  1612                           
  1613                           ;main.c: 613: {
  1614                           ;main.c: 614: PA0 = 0;
  1615  0175  1005               	bcf	5,0
  1616                           
  1617                           ;main.c: 615: PA1 = 0;
  1618  0176  1085               	bcf	5,1
  1619                           
  1620                           ;main.c: 616: PA2 = 0;
  1621  0177  1105               	bcf	5,2
  1622                           
  1623                           ;main.c: 617: PA3 = 0;
  1624  0178  1185               	bcf	5,3
  1625  0179  295B               	goto	l4428
  1626  017A                     l4474:	
  1627                           
  1628                           ;main.c: 627: {
  1629                           ;main.c: 628: if(ucTimerDelay1 >= 1)
  1630  017A  0857               	movf	main@ucTimerDelay1,w
  1631  017B  1903               	btfsc	3,2
  1632  017C  295D               	goto	l4432
  1633                           
  1634                           ;main.c: 629: {
  1635                           ;main.c: 630: ucTimerDelay1 = 0;
  1636  017D  01D7               	clrf	main@ucTimerDelay1
  1637                           
  1638                           ;main.c: 632: ucLoaderStep1 = 0;
  1639  017E  01CF               	clrf	main@ucLoaderStep1
  1640  017F  2944               	goto	l4414
  1641  0180                     l4484:	
  1642  0180  084F               	movf	main@ucLoaderStep1,w
  1643                           
  1644                           ; Switch size 1, requested type "space"
  1645                           ; Number of cases is 7, Range of values is 0 to 6
  1646                           ; switch strategies available:
  1647                           ; Name         Instructions Cycles
  1648                           ; direct_byte           21     7 (fixed)
  1649                           ; simple_byte           22    12 (average)
  1650                           ; jumptable            260     6 (fixed)
  1651                           ; rangetable            11     6 (fixed)
  1652                           ; spacedrange           20     9 (fixed)
  1653                           ; locatedrange           7     3 (fixed)
  1654                           ;	Chosen strategy is direct_byte
  1655  0181  0084               	movwf	4
  1656  0182  3007               	movlw	7
  1657  0183  0204               	subwf	4,w
  1658  0184  1803               	skipnc
  1659  0185  2840               	goto	l4244
  1660  0186  3005               	movlw	high S5028
  1661  0187  008A               	movwf	10
  1662  0188  1003               	clrc
  1663  0189  0D04               	rlf	4,w
  1664  018A  3EED               	addlw	low S5028
  1665  018B  0082               	movwf	2
  1666  018C                     l826:	
  1667                           ;main.c: 654: {
  1668                           ;main.c: 655: case 0:
  1669                           
  1670                           
  1671                           ;main.c: 656: {
  1672                           ;main.c: 657: PB0 = 1;
  1673  018C  1406               	bsf	6,0
  1674                           
  1675                           ;main.c: 658: PA0 = 1;
  1676  018D  1405               	bsf	5,0
  1677  018E                     l4486:	
  1678                           
  1679                           ;main.c: 659: ucLoaderStep2++;
  1680  018E  0AD0               	incf	main@ucLoaderStep2,f
  1681                           
  1682                           ;main.c: 660: break;
  1683  018F  2840               	goto	l4244
  1684  0190                     l4488:	
  1685                           
  1686                           ;main.c: 664: {
  1687                           ;main.c: 665: if(ucTimerDelay2 >= 5)
  1688  0190  3005               	movlw	5
  1689  0191  0258               	subwf	main@ucTimerDelay2,w
  1690  0192  1C03               	skipc
  1691  0193  2997               	goto	l4496
  1692                           
  1693                           ;main.c: 666: {
  1694                           ;main.c: 667: PA1 = 1;
  1695  0194  1485               	bsf	5,1
  1696  0195                     l4492:	
  1697                           
  1698                           ;main.c: 668: ucTimerDelay2 = 0;
  1699  0195  01D8               	clrf	main@ucTimerDelay2
  1700  0196  298E               	goto	l4486
  1701  0197                     l4496:	
  1702                           
  1703                           ;main.c: 671: else
  1704                           ;main.c: 672: ucTimerDelay2++;
  1705  0197  0AD8               	incf	main@ucTimerDelay2,f
  1706  0198  2840               	goto	l4244
  1707  0199                     l4498:	
  1708                           
  1709                           ;main.c: 677: {
  1710                           ;main.c: 678: if(ucTimerDelay2 >= 5)
  1711  0199  3005               	movlw	5
  1712  019A  0258               	subwf	main@ucTimerDelay2,w
  1713  019B  1C03               	skipc
  1714  019C  2997               	goto	l4496
  1715                           
  1716                           ;main.c: 679: {
  1717                           ;main.c: 680: PA2 = 1;
  1718  019D  1505               	bsf	5,2
  1719  019E  2995               	goto	l4492
  1720  019F                     l4508:	
  1721                           
  1722                           ;main.c: 690: {
  1723                           ;main.c: 691: if(ucTimerDelay2 >= 5)
  1724  019F  3005               	movlw	5
  1725  01A0  0258               	subwf	main@ucTimerDelay2,w
  1726  01A1  1C03               	skipc
  1727  01A2  2997               	goto	l4496
  1728                           
  1729                           ;main.c: 692: {
  1730                           ;main.c: 693: PA3 = 1;
  1731  01A3  1585               	bsf	5,3
  1732  01A4  2995               	goto	l4492
  1733  01A5                     l4518:	
  1734                           
  1735                           ;main.c: 703: {
  1736                           ;main.c: 704: if(ucTimerDelay2 >= 5)
  1737  01A5  3005               	movlw	5
  1738  01A6  0258               	subwf	main@ucTimerDelay2,w
  1739  01A7  1C03               	skipc
  1740  01A8  2997               	goto	l4496
  1741                           
  1742                           ;main.c: 705: {
  1743                           ;main.c: 707: PA1 = 0;
  1744  01A9  1085               	bcf	5,1
  1745                           
  1746                           ;main.c: 708: PA2 = 0;
  1747  01AA  1105               	bcf	5,2
  1748                           
  1749                           ;main.c: 709: PA3 = 0;
  1750  01AB  1185               	bcf	5,3
  1751  01AC  2995               	goto	l4492
  1752  01AD                     l4528:	
  1753                           
  1754                           ;main.c: 719: {
  1755                           ;main.c: 720: if(ucTimerDelay2 >= 1)
  1756  01AD  0858               	movf	main@ucTimerDelay2,w
  1757  01AE  1903               	btfsc	3,2
  1758  01AF  2997               	goto	l4496
  1759                           
  1760                           ;main.c: 721: {
  1761                           ;main.c: 722: ucTimerDelay2 = 0;
  1762  01B0  01D8               	clrf	main@ucTimerDelay2
  1763                           
  1764                           ;main.c: 724: ucLoaderStep2 = 0;
  1765  01B1  01D0               	clrf	main@ucLoaderStep2
  1766  01B2  2944               	goto	l4414
  1767  01B3                     l4538:	
  1768  01B3  0850               	movf	main@ucLoaderStep2,w
  1769                           
  1770                           ; Switch size 1, requested type "space"
  1771                           ; Number of cases is 6, Range of values is 0 to 5
  1772                           ; switch strategies available:
  1773                           ; Name         Instructions Cycles
  1774                           ; direct_byte           19     7 (fixed)
  1775                           ; simple_byte           19    10 (average)
  1776                           ; jumptable            260     6 (fixed)
  1777                           ; rangetable            10     6 (fixed)
  1778                           ; spacedrange           18     9 (fixed)
  1779                           ; locatedrange           6     3 (fixed)
  1780                           ;	Chosen strategy is direct_byte
  1781  01B4  0084               	movwf	4
  1782  01B5  3006               	movlw	6
  1783  01B6  0204               	subwf	4,w
  1784  01B7  1803               	skipnc
  1785  01B8  2840               	goto	l4244
  1786  01B9  3006               	movlw	high S5030
  1787  01BA  008A               	movwf	10
  1788  01BB  1003               	clrc
  1789  01BC  0D04               	rlf	4,w
  1790  01BD  3E17               	addlw	low S5030
  1791  01BE  0082               	movwf	2
  1792  01BF                     l850:	
  1793                           ;main.c: 746: {
  1794                           ;main.c: 747: case 0:
  1795                           
  1796                           
  1797                           ;main.c: 748: {
  1798                           ;main.c: 749: PB0 = 1;
  1799  01BF  1406               	bsf	6,0
  1800                           
  1801                           ;main.c: 750: PA0 = 1;
  1802  01C0  1405               	bsf	5,0
  1803                           
  1804                           ;main.c: 751: PA1 = 1;
  1805  01C1  1485               	bsf	5,1
  1806  01C2                     l4540:	
  1807                           
  1808                           ;main.c: 752: ucLoaderStep3++;
  1809  01C2  0AD1               	incf	main@ucLoaderStep3,f
  1810                           
  1811                           ;main.c: 753: break;
  1812  01C3  2840               	goto	l4244
  1813  01C4                     l4542:	
  1814                           
  1815                           ;main.c: 757: {
  1816                           ;main.c: 758: if(ucTimerDelay3 >= 5)
  1817  01C4  3005               	movlw	5
  1818  01C5  0259               	subwf	main@ucTimerDelay3,w
  1819  01C6  1C03               	skipc
  1820  01C7  29CB               	goto	l4550
  1821                           
  1822                           ;main.c: 759: {
  1823                           ;main.c: 760: PA2 = 1;
  1824  01C8  1505               	bsf	5,2
  1825  01C9                     l4546:	
  1826                           
  1827                           ;main.c: 761: ucTimerDelay3 = 0;
  1828  01C9  01D9               	clrf	main@ucTimerDelay3
  1829  01CA  29C2               	goto	l4540
  1830  01CB                     l4550:	
  1831                           
  1832                           ;main.c: 764: else
  1833                           ;main.c: 765: ucTimerDelay3++;
  1834  01CB  0AD9               	incf	main@ucTimerDelay3,f
  1835  01CC  2840               	goto	l4244
  1836  01CD                     l4552:	
  1837                           
  1838                           ;main.c: 770: {
  1839                           ;main.c: 771: if(ucTimerDelay3 >= 5)
  1840  01CD  3005               	movlw	5
  1841  01CE  0259               	subwf	main@ucTimerDelay3,w
  1842  01CF  1C03               	skipc
  1843  01D0  29CB               	goto	l4550
  1844                           
  1845                           ;main.c: 772: {
  1846                           ;main.c: 773: PA3 = 1;
  1847  01D1  1585               	bsf	5,3
  1848  01D2  29C9               	goto	l4546
  1849  01D3                     l4562:	
  1850                           
  1851                           ;main.c: 784: {
  1852                           ;main.c: 785: if(ucTimerDelay3 >= 5)
  1853  01D3  3005               	movlw	5
  1854  01D4  0259               	subwf	main@ucTimerDelay3,w
  1855  01D5  1C03               	skipc
  1856  01D6  29CB               	goto	l4550
  1857                           
  1858                           ;main.c: 786: {
  1859                           ;main.c: 788: PA2 = 0;
  1860  01D7  1105               	bcf	5,2
  1861                           
  1862                           ;main.c: 789: PA3 = 0;
  1863  01D8  1185               	bcf	5,3
  1864  01D9  29C9               	goto	l4546
  1865  01DA                     l4572:	
  1866                           
  1867                           ;main.c: 799: {
  1868                           ;main.c: 800: if(ucTimerDelay3 >= 1)
  1869  01DA  0859               	movf	main@ucTimerDelay3,w
  1870  01DB  1903               	btfsc	3,2
  1871  01DC  29CB               	goto	l4550
  1872                           
  1873                           ;main.c: 801: {
  1874                           ;main.c: 802: ucTimerDelay3 = 0;
  1875  01DD  01D9               	clrf	main@ucTimerDelay3
  1876                           
  1877                           ;main.c: 804: ucLoaderStep3 = 0;
  1878  01DE  01D1               	clrf	main@ucLoaderStep3
  1879  01DF  2944               	goto	l4414
  1880  01E0                     l4582:	
  1881  01E0  0851               	movf	main@ucLoaderStep3,w
  1882                           
  1883                           ; Switch size 1, requested type "space"
  1884                           ; Number of cases is 5, Range of values is 0 to 4
  1885                           ; switch strategies available:
  1886                           ; Name         Instructions Cycles
  1887                           ; simple_byte           16     9 (average)
  1888                           ; direct_byte           17     7 (fixed)
  1889                           ; jumptable            260     6 (fixed)
  1890                           ; rangetable             9     6 (fixed)
  1891                           ; spacedrange           16     9 (fixed)
  1892                           ; locatedrange           5     3 (fixed)
  1893                           ;	Chosen strategy is simple_byte
  1894  01E1  3A00               	xorlw	0	; case 0
  1895  01E2  1903               	skipnz
  1896  01E3  29BF               	goto	l850
  1897  01E4  3A01               	xorlw	1	; case 1
  1898  01E5  1903               	skipnz
  1899  01E6  29C4               	goto	l4542
  1900  01E7  3A03               	xorlw	3	; case 2
  1901  01E8  1903               	skipnz
  1902  01E9  29CD               	goto	l4552
  1903  01EA  3A01               	xorlw	1	; case 3
  1904  01EB  1903               	skipnz
  1905  01EC  29D3               	goto	l4562
  1906  01ED  3A07               	xorlw	7	; case 4
  1907  01EE  1903               	skipnz
  1908  01EF  29DA               	goto	l4572
  1909  01F0  2862               	goto	l710
  1910  01F1                     l871:	
  1911                           ;main.c: 826: {
  1912                           ;main.c: 827: case 0:
  1913                           
  1914                           
  1915                           ;main.c: 828: {
  1916                           ;main.c: 829: PB0 = 1;
  1917  01F1  1406               	bsf	6,0
  1918                           
  1919                           ;main.c: 830: PA0 = 1;
  1920  01F2  1405               	bsf	5,0
  1921                           
  1922                           ;main.c: 831: PA1 = 1;
  1923  01F3  1485               	bsf	5,1
  1924                           
  1925                           ;main.c: 832: PA2 = 1;
  1926  01F4  1505               	bsf	5,2
  1927  01F5                     l4584:	
  1928                           
  1929                           ;main.c: 833: ucLoaderStep4++;
  1930  01F5  0AD2               	incf	main@ucLoaderStep4,f
  1931                           
  1932                           ;main.c: 834: break;
  1933  01F6  2840               	goto	l4244
  1934  01F7                     l4586:	
  1935                           
  1936                           ;main.c: 838: {
  1937                           ;main.c: 839: if(ucTimerDelay4 >= 5)
  1938  01F7  3005               	movlw	5
  1939  01F8  025A               	subwf	main@ucTimerDelay4,w
  1940  01F9  1C03               	skipc
  1941  01FA  29FE               	goto	l4594
  1942                           
  1943                           ;main.c: 840: {
  1944                           ;main.c: 841: PA3 = 1;
  1945  01FB  1585               	bsf	5,3
  1946  01FC                     l4590:	
  1947                           
  1948                           ;main.c: 842: ucTimerDelay4 = 0;
  1949  01FC  01DA               	clrf	main@ucTimerDelay4
  1950  01FD  29F5               	goto	l4584
  1951  01FE                     l4594:	
  1952                           
  1953                           ;main.c: 845: else
  1954                           ;main.c: 846: ucTimerDelay4++;
  1955  01FE  0ADA               	incf	main@ucTimerDelay4,f
  1956  01FF  2840               	goto	l4244
  1957  0200                     l4596:	
  1958                           
  1959                           ;main.c: 851: {
  1960                           ;main.c: 852: if(ucTimerDelay4 >= 5)
  1961  0200  3005               	movlw	5
  1962  0201  025A               	subwf	main@ucTimerDelay4,w
  1963  0202  1C03               	skipc
  1964  0203  29FE               	goto	l4594
  1965                           
  1966                           ;main.c: 853: {
  1967                           ;main.c: 854: PA3 = 0;
  1968  0204  1185               	bcf	5,3
  1969  0205  29FC               	goto	l4590
  1970  0206                     l4606:	
  1971                           
  1972                           ;main.c: 864: {
  1973                           ;main.c: 865: if(ucTimerDelay4 >= 1)
  1974  0206  085A               	movf	main@ucTimerDelay4,w
  1975  0207  1903               	btfsc	3,2
  1976  0208  29FE               	goto	l4594
  1977                           
  1978                           ;main.c: 866: {
  1979                           ;main.c: 867: ucTimerDelay4 = 0;
  1980  0209  01DA               	clrf	main@ucTimerDelay4
  1981                           
  1982                           ;main.c: 869: ucLoaderStep4 = 0;
  1983  020A  01D2               	clrf	main@ucLoaderStep4
  1984  020B  2944               	goto	l4414
  1985  020C                     l4616:	
  1986  020C  0852               	movf	main@ucLoaderStep4,w
  1987                           
  1988                           ; Switch size 1, requested type "space"
  1989                           ; Number of cases is 4, Range of values is 0 to 3
  1990                           ; switch strategies available:
  1991                           ; Name         Instructions Cycles
  1992                           ; simple_byte           13     7 (average)
  1993                           ; direct_byte           15     7 (fixed)
  1994                           ; jumptable            260     6 (fixed)
  1995                           ; rangetable             8     6 (fixed)
  1996                           ; spacedrange           14     9 (fixed)
  1997                           ; locatedrange           4     3 (fixed)
  1998                           ;	Chosen strategy is simple_byte
  1999  020D  3A00               	xorlw	0	; case 0
  2000  020E  1903               	skipnz
  2001  020F  29F1               	goto	l871
  2002  0210  3A01               	xorlw	1	; case 1
  2003  0211  1903               	skipnz
  2004  0212  29F7               	goto	l4586
  2005  0213  3A03               	xorlw	3	; case 2
  2006  0214  1903               	skipnz
  2007  0215  2A00               	goto	l4596
  2008  0216  3A01               	xorlw	1	; case 3
  2009  0217  1903               	skipnz
  2010  0218  2A06               	goto	l4606
  2011  0219  2862               	goto	l710
  2012  021A                     l4620:	
  2013  021A  084D               	movf	main@ucChannel4Type,w
  2014                           
  2015                           ; Switch size 1, requested type "space"
  2016                           ; Number of cases is 5, Range of values is 0 to 4
  2017                           ; switch strategies available:
  2018                           ; Name         Instructions Cycles
  2019                           ; simple_byte           16     9 (average)
  2020                           ; direct_byte           17     7 (fixed)
  2021                           ; jumptable            260     6 (fixed)
  2022                           ; rangetable             9     6 (fixed)
  2023                           ; spacedrange           16     9 (fixed)
  2024                           ; locatedrange           5     3 (fixed)
  2025                           ;	Chosen strategy is simple_byte
  2026  021B  3A00               	xorlw	0	; case 0
  2027  021C  1903               	skipnz
  2028  021D  2947               	goto	l4420
  2029  021E  3A01               	xorlw	1	; case 1
  2030  021F  1903               	skipnz
  2031  0220  2980               	goto	l4484
  2032  0221  3A03               	xorlw	3	; case 2
  2033  0222  1903               	skipnz
  2034  0223  29B3               	goto	l4538
  2035  0224  3A01               	xorlw	1	; case 3
  2036  0225  1903               	skipnz
  2037  0226  29E0               	goto	l4582
  2038  0227  3A07               	xorlw	7	; case 4
  2039  0228  1903               	skipnz
  2040  0229  2A0C               	goto	l4616
  2041  022A  2862               	goto	l710
  2042  022B                     l4622:	
  2043                           
  2044                           ;main.c: 893: {
  2045                           ;main.c: 894: static unsigned char ucTimerDelayP5s = 0;
  2046                           ;main.c: 896: static unsigned char ucTimerPA6DelayP1s = 0;
  2047                           ;main.c: 898: static unsigned char ucTimerPB6DelayP1s = 0;
  2048                           ;main.c: 900: if(isFinishedTwentySecondsTimer())
  2049  022B  118A  2656  118A   	fcall	_isFinishedTwentySecondsTimer
  2050  022E  3A00               	xorlw	0
  2051  022F  1903               	skipnz
  2052  0230  28DE               	goto	l4338
  2053                           
  2054                           ;main.c: 901: {
  2055                           ;main.c: 902: if(ucTimerPA6DelayP1s < 1)
  2056  0231  1283               	bcf	3,5	;RP0=0, select bank0
  2057  0232  08E4               	movf	main@ucTimerPA6DelayP1s,f
  2058  0233  1D03               	skipz
  2059  0234  2A38               	goto	l4630
  2060                           
  2061                           ;main.c: 903: {
  2062                           ;main.c: 904: PA6 = 0;
  2063  0235  1305               	bcf	5,6
  2064                           
  2065                           ;main.c: 905: ucTimerPA6DelayP1s++;
  2066  0236  0AE4               	incf	main@ucTimerPA6DelayP1s,f
  2067                           
  2068                           ;main.c: 906: }
  2069  0237  2840               	goto	l4244
  2070  0238                     l4630:	
  2071                           
  2072                           ;main.c: 907: else
  2073                           ;main.c: 908: {
  2074                           ;main.c: 909: if(ucTimerPB6DelayP1s < 1)
  2075  0238  08E5               	movf	main@ucTimerPB6DelayP1s,f
  2076  0239  1D03               	skipz
  2077  023A  2A43               	goto	l4636
  2078                           
  2079                           ;main.c: 910: {
  2080                           ;main.c: 911: PBOD6 =0;
  2081  023B  1683               	bsf	3,5	;RP0=1, select bank3
  2082  023C  1703               	bsf	3,6	;RP1=1, select bank3
  2083  023D  1308               	bcf	8,6
  2084                           
  2085                           ;main.c: 912: PB6 = 1;
  2086  023E  1283               	bcf	3,5	;RP0=0, select bank0
  2087  023F  1303               	bcf	3,6	;RP1=0, select bank0
  2088  0240  1706               	bsf	6,6
  2089                           
  2090                           ;main.c: 913: ucTimerPB6DelayP1s++;
  2091  0241  0AE5               	incf	main@ucTimerPB6DelayP1s,f
  2092                           
  2093                           ;main.c: 914: }
  2094  0242  2840               	goto	l4244
  2095  0243                     l4636:	
  2096                           
  2097                           ;main.c: 915: else
  2098                           ;main.c: 916: {
  2099                           ;main.c: 917: if(ucTimerDelayP5s < 3)
  2100  0243  3003               	movlw	3
  2101  0244  025B               	subwf	main@ucTimerDelayP5s,w
  2102  0245  1803               	skipnc
  2103  0246  2A49               	goto	l4640
  2104                           
  2105                           ;main.c: 918: {
  2106                           ;main.c: 919: ucTimerDelayP5s++;
  2107  0247  0ADB               	incf	main@ucTimerDelayP5s,f
  2108                           
  2109                           ;main.c: 920: }
  2110  0248  2840               	goto	l4244
  2111  0249                     l4640:	
  2112                           
  2113                           ;main.c: 921: else
  2114                           ;main.c: 922: {
  2115                           ;main.c: 924: static unsigned char ucTimerForDACR0_CNT1 = 0, ucTimerForDACR0_CNT2 = 0;
  2116                           ;main.c: 926: static unsigned char ucTimerForDACR0_CNT1_f = 0, ucTimerForDACR0_CNT2_f = 
      +                          0;
  2117                           ;main.c: 928: if((getAdOriginalCh14Value() > 2800))
  2118  0249  118A  2482  118A   	fcall	_getAdOriginalCh14Value
  2119  024C  300A               	movlw	10
  2120  024D  0247               	subwf	?_getAdOriginalCh14Value+1,w
  2121  024E  30F1               	movlw	241
  2122  024F  1903               	skipnz
  2123  0250  0246               	subwf	?_getAdOriginalCh14Value,w
  2124  0251  1C03               	skipc
  2125  0252  2A56               	goto	l4646
  2126                           
  2127                           ;main.c: 929: {
  2128                           ;main.c: 930: ucTimerForDACR0_CNT1++;
  2129  0253  0ADC               	incf	main@ucTimerForDACR0_CNT1,f
  2130                           
  2131                           ;main.c: 931: ucTimerForDACR0_CNT2 = 0;
  2132  0254  01DE               	clrf	main@ucTimerForDACR0_CNT2
  2133                           
  2134                           ;main.c: 932: }
  2135  0255  2A58               	goto	l4650
  2136  0256                     l4646:	
  2137                           
  2138                           ;main.c: 933: else
  2139                           ;main.c: 934: {
  2140                           ;main.c: 935: ucTimerForDACR0_CNT2 = 0;
  2141  0256  01DE               	clrf	main@ucTimerForDACR0_CNT2
  2142                           
  2143                           ;main.c: 936: ucTimerForDACR0_CNT1++;
  2144  0257  0ADC               	incf	main@ucTimerForDACR0_CNT1,f
  2145  0258                     l4650:	
  2146                           
  2147                           ;main.c: 937: }
  2148                           ;main.c: 939: if(ucTimerForDACR0_CNT1 >= 3)
  2149  0258  3003               	movlw	3
  2150  0259  025C               	subwf	main@ucTimerForDACR0_CNT1,w
  2151  025A  1C03               	skipc
  2152  025B  2A5E               	goto	l4658
  2153                           
  2154                           ;main.c: 940: ucTimerForDACR0_CNT1_f = 1;
  2155  025C  01DD               	clrf	main@ucTimerForDACR0_CNT1_f
  2156  025D  0ADD               	incf	main@ucTimerForDACR0_CNT1_f,f
  2157  025E                     l4658:	
  2158                           
  2159                           ;main.c: 945: if(ucTimerForDACR0_CNT1_f)
  2160  025E  085D               	movf	main@ucTimerForDACR0_CNT1_f,w
  2161  025F  1903               	btfsc	3,2
  2162  0260  2A63               	goto	l4662
  2163                           
  2164                           ;main.c: 946: {
  2165                           ;main.c: 947: DACR0=0x0F;
  2166  0261  300F               	movlw	15
  2167  0262  2A67               	goto	L5
  2168  0263                     l4662:	
  2169                           ;main.c: 949: }
  2170                           
  2171                           ;main.c: 948: ucADC4_Step = ADC4_STEP_FOURTH;
  2172                           
  2173                           
  2174                           ;main.c: 950: else if(ucTimerForDACR0_CNT2_f)
  2175  0263  085F               	movf	main@ucTimerForDACR0_CNT2_f,w
  2176  0264  1903               	btfsc	3,2
  2177  0265  2A6C               	goto	l4666
  2178                           
  2179                           ;main.c: 951: {
  2180                           ;main.c: 952: DACR0=0x07;
  2181  0266  3007               	movlw	7
  2182  0267                     L5:	
  2183  0267  1683               	bsf	3,5	;RP0=1, select bank1
  2184  0268  0088               	movwf	8	;volatile
  2185                           
  2186                           ;main.c: 953: ucADC4_Step = ADC4_STEP_FOURTH;
  2187  0269  3004               	movlw	4
  2188  026A  1283               	bcf	3,5	;RP0=0, select bank0
  2189  026B  00CC               	movwf	main@ucADC4_Step
  2190  026C                     l4666:	
  2191                           ;main.c: 954: }
  2192                           
  2193                           
  2194                           ;main.c: 958: }
  2195                           ;main.c: 960: if(ADC4_STEP_FOURTH == ucADC4_Step)
  2196  026C  084C               	movf	main@ucADC4_Step,w
  2197  026D  3A04               	xorlw	4
  2198  026E  1D03               	skipz
  2199  026F  2840               	goto	l4244
  2200                           
  2201                           ;main.c: 961: {
  2202                           ;main.c: 962: ucTimerForDACR0_CNT1 = 0;
  2203  0270  01DC               	clrf	main@ucTimerForDACR0_CNT1
  2204                           
  2205                           ;main.c: 963: ucTimerForDACR0_CNT2 = 0;
  2206  0271  01DE               	clrf	main@ucTimerForDACR0_CNT2
  2207                           
  2208                           ;main.c: 964: ucTimerForDACR0_CNT1_f = 0;
  2209  0272  01DD               	clrf	main@ucTimerForDACR0_CNT1_f
  2210                           
  2211                           ;main.c: 965: ucTimerForDACR0_CNT2_f = 0;
  2212  0273  01DF               	clrf	main@ucTimerForDACR0_CNT2_f
  2213                           
  2214                           ;main.c: 967: ucTimerPB6DelayP1s = 0;
  2215  0274  01E5               	clrf	main@ucTimerPB6DelayP1s
  2216                           
  2217                           ;main.c: 968: ucTimerPA6DelayP1s = 0;
  2218  0275  01E4               	clrf	main@ucTimerPA6DelayP1s
  2219                           
  2220                           ;main.c: 970: ucTimerDelayP5s = 0;
  2221  0276  01DB               	clrf	main@ucTimerDelayP5s
  2222  0277  2840               	goto	l4244
  2223  0278                     l4670:	
  2224                           
  2225                           ;main.c: 983: {
  2226                           ;main.c: 984: static unsigned char ucTimer1s = 0;
  2227                           ;main.c: 986: static unsigned char ucTimerSeond1s = 0;
  2228                           ;main.c: 988: if(ucTimerSeond1s < 3)
  2229  0278  3003               	movlw	3
  2230  0279  0267               	subwf	main@ucTimerSeond1s,w
  2231  027A  1803               	skipnc
  2232  027B  2A7E               	goto	l4674
  2233                           
  2234                           ;main.c: 989: {
  2235                           ;main.c: 990: ucTimerSeond1s++;
  2236  027C  0AE7               	incf	main@ucTimerSeond1s,f
  2237                           
  2238                           ;main.c: 991: }
  2239  027D  2840               	goto	l4244
  2240  027E                     l4674:	
  2241                           
  2242                           ;main.c: 992: else
  2243                           ;main.c: 993: {
  2244                           ;main.c: 994: if(ucTimer1s < 3)
  2245  027E  3003               	movlw	3
  2246  027F  0253               	subwf	main@ucTimer1s,w
  2247  0280  1803               	skipnc
  2248  0281  2A88               	goto	l4682
  2249                           
  2250                           ;main.c: 995: {
  2251                           ;main.c: 996: ucTimer1s++;
  2252  0282  0AD3               	incf	main@ucTimer1s,f
  2253                           
  2254                           ;main.c: 997: PB6 = 1;
  2255  0283  1706               	bsf	6,6
  2256                           
  2257                           ;main.c: 998: PBOD6 = 1;
  2258  0284  1683               	bsf	3,5	;RP0=1, select bank3
  2259  0285  1703               	bsf	3,6	;RP1=1, select bank3
  2260  0286  1708               	bsf	8,6
  2261                           
  2262                           ;main.c: 999: }
  2263  0287  2840               	goto	l4244
  2264  0288                     l4682:	
  2265                           
  2266                           ;main.c: 1000: else
  2267                           ;main.c: 1001: {
  2268                           ;main.c: 1002: ucTimer1s = 0;
  2269  0288  01D3               	clrf	main@ucTimer1s
  2270                           
  2271                           ;main.c: 1004: ucTimerSeond1s = 0;
  2272  0289  01E7               	clrf	main@ucTimerSeond1s
  2273                           
  2274                           ;main.c: 1006: enumMainLoopStep = MAIN_LOOP_STEP_FIRST;
  2275  028A  01CB               	clrf	main@enumMainLoopStep
  2276  028B  0ACB               	incf	main@enumMainLoopStep,f
  2277                           
  2278                           ;main.c: 1008: ucADC4_Step = ADC4_STEP_INIT;
  2279  028C  01CC               	clrf	main@ucADC4_Step
  2280  028D  2840               	goto	l4244
  2281  028E                     l4688:	
  2282  028E  1283               	bcf	3,5	;RP0=0, select bank0
  2283  028F  084C               	movf	main@ucADC4_Step,w
  2284                           
  2285                           ; Switch size 1, requested type "space"
  2286                           ; Number of cases is 5, Range of values is 0 to 4
  2287                           ; switch strategies available:
  2288                           ; Name         Instructions Cycles
  2289                           ; simple_byte           16     9 (average)
  2290                           ; direct_byte           17     7 (fixed)
  2291                           ; jumptable            260     6 (fixed)
  2292                           ; rangetable             9     6 (fixed)
  2293                           ; spacedrange           16     9 (fixed)
  2294                           ; locatedrange           5     3 (fixed)
  2295                           ;	Chosen strategy is simple_byte
  2296  0290  3A00               	xorlw	0	; case 0
  2297  0291  1903               	skipnz
  2298  0292  28DB               	goto	l4336
  2299  0293  3A01               	xorlw	1	; case 1
  2300  0294  1903               	skipnz
  2301  0295  28E2               	goto	l4340
  2302  0296  3A03               	xorlw	3	; case 2
  2303  0297  1903               	skipnz
  2304  0298  2A1A               	goto	l4620
  2305  0299  3A01               	xorlw	1	; case 3
  2306  029A  1903               	skipnz
  2307  029B  2A2B               	goto	l4622
  2308  029C  3A07               	xorlw	7	; case 4
  2309  029D  1903               	skipnz
  2310  029E  2A78               	goto	l4670
  2311  029F  2862               	goto	l710
  2312  02A0                     l930:	
  2313                           ;main.c: 1035: {
  2314                           ;main.c: 1036: case HOUR_3_BRANCH_STEP_FIRST:
  2315                           
  2316                           
  2317                           ;main.c: 1037: {
  2318                           ;main.c: 1038: PA7 = 1;
  2319  02A0  1785               	bsf	5,7
  2320                           
  2321                           ;main.c: 1039: PAOD7 = 1;
  2322  02A1  1683               	bsf	3,5	;RP0=1, select bank3
  2323  02A2  3030               	movlw	48
  2324  02A3  1703               	bsf	3,6	;RP1=1, select bank3
  2325  02A4  1787               	bsf	7,7
  2326                           
  2327                           ;main.c: 1040: startThreeHoursTimer(10800);
  2328  02A5  1283               	bcf	3,5	;RP0=0, select bank0
  2329  02A6  1303               	bcf	3,6	;RP1=0, select bank0
  2330  02A7  00A0               	movwf	?_startThreeHoursTimer
  2331  02A8  302A               	movlw	42
  2332  02A9  00A1               	movwf	?_startThreeHoursTimer+1
  2333  02AA  118A  25FB  118A   	fcall	_startThreeHoursTimer
  2334                           
  2335                           ;main.c: 1042: PB0 = 1;
  2336  02AD  1283               	bcf	3,5	;RP0=0, select bank0
  2337  02AE  1406               	bsf	6,0
  2338                           
  2339                           ;main.c: 1043: PA0 = 1;
  2340  02AF  1405               	bsf	5,0
  2341                           
  2342                           ;main.c: 1044: PA1 = 1;
  2343  02B0  1485               	bsf	5,1
  2344                           
  2345                           ;main.c: 1045: PA2 = 1;
  2346  02B1  1505               	bsf	5,2
  2347                           
  2348                           ;main.c: 1046: PA3 = 1;
  2349  02B2  1585               	bsf	5,3
  2350                           
  2351                           ;main.c: 1048: enumBranchStep = HOUR_3_BRANCH_STEP_SECOND;
  2352  02B3  01CA               	clrf	main@enumBranchStep
  2353  02B4  0ACA               	incf	main@enumBranchStep,f
  2354                           
  2355                           ;main.c: 1049: break;
  2356  02B5  2840               	goto	l4244
  2357  02B6                     l4704:	
  2358                           
  2359                           ;main.c: 1053: {
  2360                           ;main.c: 1054: static unsigned char ucTimer20s = 0;
  2361                           ;main.c: 1056: if(ucTimer20s < 200)
  2362  02B6  30C8               	movlw	200
  2363  02B7  0254               	subwf	main@ucTimer20s,w
  2364  02B8  1803               	skipnc
  2365  02B9  2ABC               	goto	l4708
  2366                           
  2367                           ;main.c: 1057: {
  2368                           ;main.c: 1058: ucTimer20s++;
  2369  02BA  0AD4               	incf	main@ucTimer20s,f
  2370                           
  2371                           ;main.c: 1060: }
  2372  02BB  2840               	goto	l4244
  2373  02BC                     l4708:	
  2374  02BC  3002               	movlw	2
  2375                           
  2376                           ;main.c: 1061: else
  2377                           ;main.c: 1062: {
  2378                           ;main.c: 1064: ucTimer20s = 0;
  2379  02BD  01D4               	clrf	main@ucTimer20s
  2380                           
  2381                           ;main.c: 1066: enumBranchStep = HOUR_3_BRANCH_STEP_THIRD;
  2382  02BE  00CA               	movwf	main@enumBranchStep
  2383                           
  2384                           ;main.c: 1068: PA6 = 0;
  2385  02BF  1305               	bcf	5,6
  2386  02C0  2840               	goto	l4244
  2387  02C1                     l4714:	
  2388                           
  2389                           ;main.c: 1074: {
  2390                           ;main.c: 1075: if(isFinishedThreeHoursTimer())
  2391  02C1  118A  2650  118A   	fcall	_isFinishedThreeHoursTimer
  2392  02C4  3A00               	xorlw	0
  2393  02C5  1903               	skipnz
  2394  02C6  2ACA               	goto	l4720
  2395                           
  2396                           ;main.c: 1076: {
  2397                           ;main.c: 1077: enumBranchStep = HOUR_3_BRANCH_STEP_FIRST;
  2398  02C7  1283               	bcf	3,5	;RP0=0, select bank0
  2399  02C8  3009               	movlw	9
  2400  02C9  2AE9               	goto	L7
  2401  02CA                     l4720:	
  2402                           ;main.c: 1079: }
  2403                           
  2404                           ;main.c: 1078: enumMainLoopStep = MAIN_LOOP_STEP_12_HOUR_END;
  2405                           
  2406                           
  2407                           ;main.c: 1080: else
  2408                           ;main.c: 1081: {
  2409                           ;main.c: 1082: static unsigned char ucTimerX1P5s = 0;
  2410                           ;main.c: 1084: static unsigned char ucTimerLessX1P5s = 0;
  2411                           ;main.c: 1086: if(getAdOriginalCh1Value() < 115)
  2412  02CA  118A  2478  118A   	fcall	_getAdOriginalCh1Value
  2413  02CD  3000               	movlw	0
  2414  02CE  0247               	subwf	?_getAdOriginalCh1Value+1,w
  2415  02CF  3073               	movlw	115
  2416  02D0  1903               	skipnz
  2417  02D1  0246               	subwf	?_getAdOriginalCh1Value,w
  2418  02D2  1803               	skipnc
  2419  02D3  2AD7               	goto	l4726
  2420                           
  2421                           ;main.c: 1087: {
  2422                           ;main.c: 1088: ucTimerX1P5s = 0;
  2423  02D4  01E8               	clrf	main@ucTimerX1P5s
  2424                           
  2425                           ;main.c: 1089: ucTimerLessX1P5s++;
  2426  02D5  0AE1               	incf	main@ucTimerLessX1P5s,f
  2427                           
  2428                           ;main.c: 1090: }
  2429  02D6  2AD9               	goto	l4730
  2430  02D7                     l4726:	
  2431                           
  2432                           ;main.c: 1091: else
  2433                           ;main.c: 1092: {
  2434                           ;main.c: 1093: ucTimerX1P5s++;
  2435  02D7  0AE8               	incf	main@ucTimerX1P5s,f
  2436                           
  2437                           ;main.c: 1094: ucTimerLessX1P5s = 0;
  2438  02D8  01E1               	clrf	main@ucTimerLessX1P5s
  2439  02D9                     l4730:	
  2440                           
  2441                           ;main.c: 1095: }
  2442                           ;main.c: 1097: if(ucTimerX1P5s >= 5)
  2443  02D9  3005               	movlw	5
  2444  02DA  0268               	subwf	main@ucTimerX1P5s,w
  2445  02DB  1C03               	skipc
  2446  02DC  2AEC               	goto	l4744
  2447                           
  2448                           ;main.c: 1098: {
  2449                           ;main.c: 1099: ucTimerX1P5s = 0;
  2450  02DD  01E8               	clrf	main@ucTimerX1P5s
  2451                           
  2452                           ;main.c: 1100: PAOD7 = 0;
  2453  02DE  1683               	bsf	3,5	;RP0=1, select bank3
  2454  02DF  1703               	bsf	3,6	;RP1=1, select bank3
  2455  02E0  1387               	bcf	7,7
  2456                           
  2457                           ;main.c: 1101: PA7 = 0;
  2458  02E1  1283               	bcf	3,5	;RP0=0, select bank0
  2459  02E2  1303               	bcf	3,6	;RP1=0, select bank0
  2460  02E3  1385               	bcf	5,7
  2461                           
  2462                           ;main.c: 1102: clearThreeHoursTimer();
  2463  02E4  118A  25AC  118A   	fcall	_clearThreeHoursTimer
  2464                           
  2465                           ;main.c: 1104: enumBranchStep = HOUR_3_BRANCH_STEP_FIRST;
  2466  02E7  1283               	bcf	3,5	;RP0=0, select bank0
  2467  02E8  3002               	movlw	2
  2468  02E9                     L7:	
  2469  02E9  01CA               	clrf	main@enumBranchStep
  2470  02EA                     L6:	
  2471                           ;main.c: 1106: enumMainLoopStep = MAIN_LOOP_STEP_SECOND;
  2472                           
  2473  02EA  00CB               	movwf	main@enumMainLoopStep
  2474                           
  2475                           ;main.c: 1107: }
  2476  02EB  2840               	goto	l4244
  2477  02EC                     l4744:	
  2478                           
  2479                           ;main.c: 1108: else if(ucTimerLessX1P5s >= 5)
  2480  02EC  3005               	movlw	5
  2481  02ED  0261               	subwf	main@ucTimerLessX1P5s,w
  2482  02EE  1C03               	skipc
  2483  02EF  2840               	goto	l4244
  2484                           
  2485                           ;main.c: 1109: {
  2486                           ;main.c: 1110: static unsigned char ucTimerX2P5s = 0;
  2487                           ;main.c: 1112: static unsigned char ucTimerLessX2P5s = 0;
  2488                           ;main.c: 1114: if(getAdOriginalCh14Value() >= 1950)
  2489  02F0  118A  2482  118A   	fcall	_getAdOriginalCh14Value
  2490  02F3  3007               	movlw	7
  2491  02F4  0247               	subwf	?_getAdOriginalCh14Value+1,w
  2492  02F5  309E               	movlw	158
  2493  02F6  1903               	skipnz
  2494  02F7  0246               	subwf	?_getAdOriginalCh14Value,w
  2495  02F8  1C03               	skipc
  2496  02F9  2AFD               	goto	l4752
  2497                           
  2498                           ;main.c: 1115: {
  2499                           ;main.c: 1116: ucTimerX2P5s++;
  2500  02FA  0AE9               	incf	main@ucTimerX2P5s,f
  2501                           
  2502                           ;main.c: 1117: ucTimerLessX2P5s = 0;
  2503  02FB  01E2               	clrf	main@ucTimerLessX2P5s
  2504                           
  2505                           ;main.c: 1118: }
  2506  02FC  2AFF               	goto	l4756
  2507  02FD                     l4752:	
  2508                           
  2509                           ;main.c: 1119: else
  2510                           ;main.c: 1120: {
  2511                           ;main.c: 1121: ucTimerX2P5s = 0;
  2512  02FD  01E9               	clrf	main@ucTimerX2P5s
  2513                           
  2514                           ;main.c: 1122: ucTimerLessX2P5s++;
  2515  02FE  0AE2               	incf	main@ucTimerLessX2P5s,f
  2516  02FF                     l4756:	
  2517                           
  2518                           ;main.c: 1123: }
  2519                           ;main.c: 1125: if(ucTimerX2P5s >= 5)
  2520  02FF  3005               	movlw	5
  2521  0300  0269               	subwf	main@ucTimerX2P5s,w
  2522  0301  1C03               	skipc
  2523  0302  2B05               	goto	l4760
  2524                           
  2525                           ;main.c: 1126: {
  2526                           ;main.c: 1127: ucTimerX2P5s = 0;
  2527  0303  01E9               	clrf	main@ucTimerX2P5s
  2528                           
  2529                           ;main.c: 1128: }
  2530  0304  2840               	goto	l4244
  2531  0305                     l4760:	
  2532                           
  2533                           ;main.c: 1129: else if(ucTimerLessX2P5s >= 5)
  2534  0305  3005               	movlw	5
  2535  0306  0262               	subwf	main@ucTimerLessX2P5s,w
  2536  0307  1C03               	skipc
  2537  0308  2840               	goto	l4244
  2538                           
  2539                           ;main.c: 1130: {
  2540                           ;main.c: 1131: clearPinPortAndTimer();
  2541  0309  118A  2597  118A   	fcall	_clearPinPortAndTimer
  2542                           
  2543                           ;main.c: 1132: enumMainLoopStep = MAIN_LOOP_STEP_FIRST;
  2544  030C  1283               	bcf	3,5	;RP0=0, select bank0
  2545  030D  01CB               	clrf	main@enumMainLoopStep
  2546  030E  0ACB               	incf	main@enumMainLoopStep,f
  2547                           
  2548                           ;main.c: 1133: enumBranchStep = HOUR_3_BRANCH_STEP_FIRST;
  2549  030F  01CA               	clrf	main@enumBranchStep
  2550                           
  2551                           ;main.c: 1134: }
  2552  0310  2840               	goto	l4244
  2553  0311                     l4770:	
  2554  0311  084A               	movf	main@enumBranchStep,w
  2555                           
  2556                           ; Switch size 1, requested type "space"
  2557                           ; Number of cases is 3, Range of values is 0 to 2
  2558                           ; switch strategies available:
  2559                           ; Name         Instructions Cycles
  2560                           ; simple_byte           10     6 (average)
  2561                           ; direct_byte           13     7 (fixed)
  2562                           ; jumptable            260     6 (fixed)
  2563                           ; rangetable             7     6 (fixed)
  2564                           ; spacedrange           12     9 (fixed)
  2565                           ; locatedrange           3     3 (fixed)
  2566                           ;	Chosen strategy is simple_byte
  2567  0312  3A00               	xorlw	0	; case 0
  2568  0313  1903               	skipnz
  2569  0314  2AA0               	goto	l930
  2570  0315  3A01               	xorlw	1	; case 1
  2571  0316  1903               	skipnz
  2572  0317  2AB6               	goto	l4704
  2573  0318  3A03               	xorlw	3	; case 2
  2574  0319  1903               	skipnz
  2575  031A  2AC1               	goto	l4714
  2576  031B  2862               	goto	l710
  2577  031C                     l965:	
  2578                           ;main.c: 1170: {
  2579                           ;main.c: 1171: case INTERNAL_FIRST_STEP:
  2580                           
  2581                           
  2582                           ;main.c: 1172: {
  2583                           ;main.c: 1173: PB0 = 0;
  2584  031C  1283               	bcf	3,5	;RP0=0, select bank0
  2585  031D  1006               	bcf	6,0
  2586                           
  2587                           ;main.c: 1174: PB1 = 0;
  2588  031E  1086               	bcf	6,1
  2589                           
  2590                           ;main.c: 1175: PA0 = 0;
  2591  031F  1005               	bcf	5,0
  2592                           
  2593                           ;main.c: 1176: PA1 = 0;
  2594  0320  1085               	bcf	5,1
  2595                           
  2596                           ;main.c: 1177: PA2 = 0;
  2597  0321  1105               	bcf	5,2
  2598                           
  2599                           ;main.c: 1178: PA3 = 0;
  2600  0322  1185               	bcf	5,3
  2601                           
  2602                           ;main.c: 1179: PBOD6 = 0;
  2603  0323  1683               	bsf	3,5	;RP0=1, select bank3
  2604  0324  1703               	bsf	3,6	;RP1=1, select bank3
  2605  0325  1308               	bcf	8,6
  2606                           
  2607                           ;main.c: 1180: PB6 = 1;
  2608  0326  1283               	bcf	3,5	;RP0=0, select bank0
  2609  0327  1303               	bcf	3,6	;RP1=0, select bank0
  2610  0328  1706               	bsf	6,6
  2611                           
  2612                           ;main.c: 1181: PA6 =0;
  2613  0329  1305               	bcf	5,6
  2614                           
  2615                           ;main.c: 1183: enumInteralStep = INTERNAL_SECOND_STEP;
  2616  032A  1683               	bsf	3,5	;RP0=1, select bank1
  2617  032B  01AA               	clrf	main@enumInteralStep^(0+128)
  2618  032C  0AAA               	incf	main@enumInteralStep^(0+128),f
  2619                           
  2620                           ;main.c: 1184: break;
  2621  032D  2840               	goto	l4244
  2622  032E                     l4772:	
  2623                           
  2624                           ;main.c: 1188: {
  2625                           ;main.c: 1189: static unsigned char ucTimer1s = 0;
  2626                           ;main.c: 1191: if(getAdOriginalCh14Value() <= 1000)
  2627  032E  118A  2482  118A   	fcall	_getAdOriginalCh14Value
  2628  0331  3003               	movlw	3
  2629  0332  0247               	subwf	?_getAdOriginalCh14Value+1,w
  2630  0333  30E9               	movlw	233
  2631  0334  1903               	skipnz
  2632  0335  0246               	subwf	?_getAdOriginalCh14Value,w
  2633  0336  1803               	skipnc
  2634  0337  2B3B               	goto	l4776
  2635                           
  2636                           ;main.c: 1192: {
  2637                           ;main.c: 1193: ucTimer1s++;
  2638  0338  1683               	bsf	3,5	;RP0=1, select bank1
  2639  0339  0AA9               	incf	main@cTimer1s_824^(0+128),f
  2640                           
  2641                           ;main.c: 1194: }
  2642  033A  2B3D               	goto	l4778
  2643  033B                     l4776:	
  2644                           
  2645                           ;main.c: 1195: else
  2646                           ;main.c: 1196: ucTimer1s = 0;
  2647  033B  1683               	bsf	3,5	;RP0=1, select bank1
  2648  033C  01A9               	clrf	main@cTimer1s_824^(0+128)
  2649  033D                     l4778:	
  2650                           
  2651                           ;main.c: 1198: if(ucTimer1s >= 10)
  2652  033D  300A               	movlw	10
  2653  033E  0229               	subwf	main@cTimer1s_824^(0+128),w
  2654  033F  1C03               	skipc
  2655  0340  2840               	goto	l4244
  2656                           
  2657                           ;main.c: 1199: {
  2658                           ;main.c: 1200: enumInteralStep = INTERNAL_THIRD_STEP;
  2659  0341  3002               	movlw	2
  2660  0342  00AA               	movwf	main@enumInteralStep^(0+128)
  2661                           
  2662                           ;main.c: 1201: ucTimer1s = 0;
  2663  0343  01A9               	clrf	main@cTimer1s_824^(0+128)
  2664  0344  2840               	goto	l4244
  2665  0345                     l4784:	
  2666                           
  2667                           ;main.c: 1207: {
  2668                           ;main.c: 1208: static unsigned char ucTimerP3s = 0;
  2669                           ;main.c: 1210: if(getAdOriginalCh14Value() >= 1950)
  2670  0345  118A  2482  118A   	fcall	_getAdOriginalCh14Value
  2671  0348  3007               	movlw	7
  2672  0349  0247               	subwf	?_getAdOriginalCh14Value+1,w
  2673  034A  309E               	movlw	158
  2674  034B  1903               	skipnz
  2675  034C  0246               	subwf	?_getAdOriginalCh14Value,w
  2676  034D  1C03               	skipc
  2677  034E  2B52               	goto	l4788
  2678                           
  2679                           ;main.c: 1211: {
  2680                           ;main.c: 1212: ucTimerP3s++;
  2681  034F  1683               	bsf	3,5	;RP0=1, select bank1
  2682  0350  0AAB               	incf	main@ucTimerP3s^(0+128),f
  2683                           
  2684                           ;main.c: 1213: }
  2685  0351  2B54               	goto	l4790
  2686  0352                     l4788:	
  2687                           
  2688                           ;main.c: 1214: else
  2689                           ;main.c: 1215: ucTimerP3s = 0;
  2690  0352  1683               	bsf	3,5	;RP0=1, select bank1
  2691  0353  01AB               	clrf	main@ucTimerP3s^(0+128)
  2692  0354                     l4790:	
  2693                           
  2694                           ;main.c: 1217: if(ucTimerP3s >= 3)
  2695  0354  3003               	movlw	3
  2696  0355  022B               	subwf	main@ucTimerP3s^(0+128),w
  2697  0356  1C03               	skipc
  2698  0357  2840               	goto	l4244
  2699                           
  2700                           ;main.c: 1218: {
  2701                           ;main.c: 1219: enumInteralStep = INTERNAL_FIRST_STEP;
  2702  0358  01AA               	clrf	main@enumInteralStep^(0+128)
  2703                           
  2704                           ;main.c: 1220: ucTimerP3s = 0;
  2705  0359  01AB               	clrf	main@ucTimerP3s^(0+128)
  2706                           
  2707                           ;main.c: 1221: clearAllTimer();
  2708  035A  118A  25A3  118A   	fcall	_clearAllTimer
  2709                           
  2710                           ;main.c: 1223: DACR0=0x0F;
  2711  035D  300F               	movlw	15
  2712  035E  0088               	movwf	8	;volatile
  2713                           
  2714                           ;main.c: 1224: initPin();
  2715  035F  118A  25CC  118A   	fcall	_initPin
  2716                           
  2717                           ;main.c: 1227: enumMainLoopStep = MAIN_LOOP_STEP_INIT;
  2718  0362  1283               	bcf	3,5	;RP0=0, select bank0
  2719  0363  1303               	bcf	3,6	;RP1=0, select bank0
  2720  0364  01CB               	clrf	main@enumMainLoopStep
  2721  0365                     l980:	
  2722  0365  2B65               	goto	l980
  2723  0366                     l4804:	
  2724  0366  1683               	bsf	3,5	;RP0=1, select bank1
  2725  0367  082A               	movf	main@enumInteralStep^(0+128),w
  2726                           
  2727                           ; Switch size 1, requested type "space"
  2728                           ; Number of cases is 3, Range of values is 0 to 2
  2729                           ; switch strategies available:
  2730                           ; Name         Instructions Cycles
  2731                           ; simple_byte           10     6 (average)
  2732                           ; direct_byte           13     7 (fixed)
  2733                           ; jumptable            260     6 (fixed)
  2734                           ; rangetable             7     6 (fixed)
  2735                           ; spacedrange           12     9 (fixed)
  2736                           ; locatedrange           3     3 (fixed)
  2737                           ;	Chosen strategy is simple_byte
  2738  0368  3A00               	xorlw	0	; case 0
  2739  0369  1903               	skipnz
  2740  036A  2B1C               	goto	l965
  2741  036B  3A01               	xorlw	1	; case 1
  2742  036C  1903               	skipnz
  2743  036D  2B2E               	goto	l4772
  2744  036E  3A03               	xorlw	3	; case 2
  2745  036F  1903               	skipnz
  2746  0370  2B45               	goto	l4784
  2747  0371  2862               	goto	l710
  2748  0372                     l4808:	
  2749  0372  1283               	bcf	3,5	;RP0=0, select bank0
  2750  0373  084B               	movf	main@enumMainLoopStep,w
  2751                           
  2752                           ; Switch size 1, requested type "space"
  2753                           ; Number of cases is 8, Range of values is 0 to 9
  2754                           ; switch strategies available:
  2755                           ; Name         Instructions Cycles
  2756                           ; simple_byte           25    13 (average)
  2757                           ; direct_byte           27     7 (fixed)
  2758                           ; jumptable            260     6 (fixed)
  2759                           ; rangetable            14     6 (fixed)
  2760                           ; spacedrange           26     9 (fixed)
  2761                           ; locatedrange          10     3 (fixed)
  2762                           ;	Chosen strategy is simple_byte
  2763  0374  3A00               	xorlw	0	; case 0
  2764  0375  1903               	skipnz
  2765  0376  284E               	goto	l4252
  2766  0377  3A01               	xorlw	1	; case 1
  2767  0378  1903               	skipnz
  2768  0379  2863               	goto	l4264
  2769  037A  3A03               	xorlw	3	; case 2
  2770  037B  1903               	skipnz
  2771  037C  287B               	goto	l718
  2772  037D  3A01               	xorlw	1	; case 3
  2773  037E  1903               	skipnz
  2774  037F  2885               	goto	l4286
  2775  0380  3A07               	xorlw	7	; case 4
  2776  0381  1903               	skipnz
  2777  0382  28C0               	goto	l4322
  2778  0383  3A01               	xorlw	1	; case 5
  2779  0384  1903               	skipnz
  2780  0385  28CC               	goto	l4328
  2781  0386  3A0D               	xorlw	13	; case 8
  2782  0387  1903               	skipnz
  2783  0388  2B11               	goto	l4770
  2784  0389  3A01               	xorlw	1	; case 9
  2785  038A  1903               	skipnz
  2786  038B  2B66               	goto	l4804
  2787  038C  2862               	goto	l710
  2788  038D  118A  2811         	ljmp	start
  2789  038F                     __end_of_main:	
  2790                           
  2791                           	psect	swtext1
  2792  05DF                     __pswtext1:	
  2793  05DF                     S5026:	
  2794  05DF  118A  2917         	ljmp	l771
  2795  05E1  118A  291A         	ljmp	l4360
  2796  05E3  118A  2923         	ljmp	l4370
  2797  05E5  118A  2929         	ljmp	l4380
  2798  05E7  118A  292F         	ljmp	l4390
  2799  05E9  118A  2935         	ljmp	l4400
  2800  05EB  118A  293F         	ljmp	l4410
  2801                           
  2802                           	psect	swtext2
  2803  05ED                     __pswtext2:	
  2804  05ED                     S5028:	
  2805  05ED  118A  2953         	ljmp	l799
  2806  05EF  118A  2956         	ljmp	l4424
  2807  05F1  118A  295F         	ljmp	l4434
  2808  05F3  118A  2965         	ljmp	l4444
  2809  05F5  118A  296B         	ljmp	l4454
  2810  05F7  118A  2971         	ljmp	l4464
  2811  05F9  118A  297A         	ljmp	l4474
  2812                           
  2813                           	psect	swtext3
  2814  0617                     __pswtext3:	
  2815  0617                     S5030:	
  2816  0617  118A  298C         	ljmp	l826
  2817  0619  118A  2990         	ljmp	l4488
  2818  061B  118A  2999         	ljmp	l4498
  2819  061D  118A  299F         	ljmp	l4508
  2820  061F  118A  29A5         	ljmp	l4518
  2821  0621  118A  29AD         	ljmp	l4528
  2822                           
  2823                           	psect	text755
  2824  0597                     __ptext755:	
  2825 ;; =============== function _main ends ============
  2826                           
  2827                           
  2828 ;; *************** function _clearPinPortAndTimer *****************
  2829 ;; Defined at:
  2830 ;;		line 92 in file "D:\develop\190625\AK7030-OTP\main.c"
  2831 ;; Parameters:    Size  Location     Type
  2832 ;;		None
  2833 ;; Auto vars:     Size  Location     Type
  2834 ;;		None
  2835 ;; Return value:  Size  Location     Type
  2836 ;;		None               void
  2837 ;; Registers used:
  2838 ;;		status,2, status,0, pclath, cstack
  2839 ;; Tracked objects:
  2840 ;;		On entry : 160/0
  2841 ;;		On exit  : 160/20
  2842 ;;		Unchanged: FFE9F/0
  2843 ;; Data sizes:     COMMON   BANK0   BANK1   BANK3   BANK2
  2844 ;;      Params:         0       0       0       0       0
  2845 ;;      Locals:         0       0       0       0       0
  2846 ;;      Temps:          0       0       0       0       0
  2847 ;;      Totals:         0       0       0       0       0
  2848 ;;Total ram usage:        0 bytes
  2849 ;; Hardware stack levels used:    1
  2850 ;; Hardware stack levels required when called:    4
  2851 ;; This function calls:
  2852 ;;		_clearAllTimer
  2853 ;; This function is called by:
  2854 ;;		_main
  2855 ;; This function uses a non-reentrant model
  2856 ;;
  2857  0597                     _clearPinPortAndTimer:	
  2858                           
  2859                           ;main.c: 93: PB0 = 0;
  2860                           
  2861                           ; Regs used in _clearPinPortAndTimer: [status,2+status,0+pclath+cstack]
  2862  0597  1006               	bcf	6,0
  2863                           
  2864                           ;main.c: 94: PA0 = 0;
  2865  0598  1005               	bcf	5,0
  2866                           
  2867                           ;main.c: 95: PA1 = 0;
  2868  0599  1085               	bcf	5,1
  2869                           
  2870                           ;main.c: 96: PA2 = 0;
  2871  059A  1105               	bcf	5,2
  2872                           
  2873                           ;main.c: 97: PA3 = 0;
  2874  059B  1185               	bcf	5,3
  2875                           
  2876                           ;main.c: 98: PAOD7 = 0;
  2877  059C  1683               	bsf	3,5	;RP0=1, select bank3
  2878  059D  1703               	bsf	3,6	;RP1=1, select bank3
  2879  059E  1387               	bcf	7,7
  2880                           
  2881                           ;main.c: 99: PA7 = 0;
  2882  059F  1283               	bcf	3,5	;RP0=0, select bank0
  2883  05A0  1303               	bcf	3,6	;RP1=0, select bank0
  2884  05A1  1385               	bcf	5,7
  2885                           
  2886                           ;main.c: 100: clearAllTimer();
  2887  05A2  2DA3               	ljmp	l4188
  2888  05A3                     __end_of_clearPinPortAndTimer:	
  2889  05A3                     __ptext760:	
  2890 ;; =============== function _process_AD_Converter_Value ends ============
  2891                           
  2892                           
  2893 ;; *************** function _clearAllTimer *****************
  2894 ;; Defined at:
  2895 ;;		line 83 in file "D:\develop\190625\AK7030-OTP\main.c"
  2896 ;; Parameters:    Size  Location     Type
  2897 ;;		None
  2898 ;; Auto vars:     Size  Location     Type
  2899 ;;		None
  2900 ;; Return value:  Size  Location     Type
  2901 ;;		None               void
  2902 ;; Registers used:
  2903 ;;		status,2, status,0, pclath, cstack
  2904 ;; Tracked objects:
  2905 ;;		On entry : 140/20
  2906 ;;		On exit  : 160/20
  2907 ;;		Unchanged: FFE9F/0
  2908 ;; Data sizes:     COMMON   BANK0   BANK1   BANK3   BANK2
  2909 ;;      Params:         0       0       0       0       0
  2910 ;;      Locals:         0       0       0       0       0
  2911 ;;      Temps:          0       0       0       0       0
  2912 ;;      Totals:         0       0       0       0       0
  2913 ;;Total ram usage:        0 bytes
  2914 ;; Hardware stack levels used:    1
  2915 ;; Hardware stack levels required when called:    3
  2916 ;; This function calls:
  2917 ;;		_clearTwelveHoursTimer
  2918 ;;		_clearThreeHoursTimer
  2919 ;;		_clearTwentySecondsTimer
  2920 ;; This function is called by:
  2921 ;;		_clearPinPortAndTimer
  2922 ;;		_main
  2923 ;; This function uses a non-reentrant model
  2924 ;;
  2925  05A3                     _clearAllTimer:	
  2926  05A3                     l4188:	
  2927                           ; Regs used in _clearAllTimer: [status,2+status,0+pclath+cstack]
  2928                           
  2929                           
  2930                           ;main.c: 84: clearTwelveHoursTimer();
  2931  05A3  25A8  118A         	fcall	_clearTwelveHoursTimer
  2932                           
  2933                           ;main.c: 85: clearThreeHoursTimer();
  2934  05A5  25AC  118A         	fcall	_clearThreeHoursTimer
  2935                           
  2936                           ;main.c: 86: clearTwentySecondsTimer();
  2937  05A7  2DB0               	ljmp	l3918
  2938  05A8                     __end_of_clearAllTimer:	
  2939  05A8                     __ptext784:	
  2940 ;; =============== function _clearThreeHoursTimer ends ============
  2941                           
  2942                           
  2943 ;; *************** function _clearTwelveHoursTimer *****************
  2944 ;; Defined at:
  2945 ;;		line 365 in file "D:\develop\190625\AK7030-OTP\common.c"
  2946 ;; Parameters:    Size  Location     Type
  2947 ;;		None
  2948 ;; Auto vars:     Size  Location     Type
  2949 ;;		None
  2950 ;; Return value:  Size  Location     Type
  2951 ;;		None               void
  2952 ;; Registers used:
  2953 ;;		status,2
  2954 ;; Tracked objects:
  2955 ;;		On entry : 140/20
  2956 ;;		On exit  : 160/20
  2957 ;;		Unchanged: FFE9F/0
  2958 ;; Data sizes:     COMMON   BANK0   BANK1   BANK3   BANK2
  2959 ;;      Params:         0       0       0       0       0
  2960 ;;      Locals:         0       0       0       0       0
  2961 ;;      Temps:          0       0       0       0       0
  2962 ;;      Totals:         0       0       0       0       0
  2963 ;;Total ram usage:        0 bytes
  2964 ;; Hardware stack levels used:    1
  2965 ;; Hardware stack levels required when called:    2
  2966 ;; This function calls:
  2967 ;;		Nothing
  2968 ;; This function is called by:
  2969 ;;		_clearAllTimer
  2970 ;; This function uses a non-reentrant model
  2971 ;;
  2972  05A8                     _clearTwelveHoursTimer:	
  2973                           
  2974                           ;common.c: 366: uiBigTimer = 0;
  2975                           
  2976                           ; Regs used in _clearTwelveHoursTimer: [status,2]
  2977  05A8  1683               	bsf	3,5	;RP0=1, select bank1
  2978  05A9  01A0               	clrf	_uiBigTimer^(0+128)
  2979  05AA  01A1               	clrf	(_uiBigTimer+1)^(0+128)
  2980  05AB  0008               	return
  2981  05AC                     __end_of_clearTwelveHoursTimer:	
  2982  05AC                     __ptext783:	
  2983 ;; =============== function _clearTwentySecondsTimer ends ============
  2984                           
  2985                           
  2986 ;; *************** function _clearThreeHoursTimer *****************
  2987 ;; Defined at:
  2988 ;;		line 371 in file "D:\develop\190625\AK7030-OTP\common.c"
  2989 ;; Parameters:    Size  Location     Type
  2990 ;;		None
  2991 ;; Auto vars:     Size  Location     Type
  2992 ;;		None
  2993 ;; Return value:  Size  Location     Type
  2994 ;;		None               void
  2995 ;; Registers used:
  2996 ;;		status,2
  2997 ;; Tracked objects:
  2998 ;;		On entry : 140/0
  2999 ;;		On exit  : 160/20
  3000 ;;		Unchanged: FFE9F/0
  3001 ;; Data sizes:     COMMON   BANK0   BANK1   BANK3   BANK2
  3002 ;;      Params:         0       0       0       0       0
  3003 ;;      Locals:         0       0       0       0       0
  3004 ;;      Temps:          0       0       0       0       0
  3005 ;;      Totals:         0       0       0       0       0
  3006 ;;Total ram usage:        0 bytes
  3007 ;; Hardware stack levels used:    1
  3008 ;; Hardware stack levels required when called:    2
  3009 ;; This function calls:
  3010 ;;		Nothing
  3011 ;; This function is called by:
  3012 ;;		_clearAllTimer
  3013 ;;		_main
  3014 ;; This function uses a non-reentrant model
  3015 ;;
  3016  05AC                     _clearThreeHoursTimer:	
  3017                           
  3018                           ;common.c: 372: uiSmallTimer = 0;
  3019                           
  3020                           ; Regs used in _clearThreeHoursTimer: [status,2]
  3021  05AC  1683               	bsf	3,5	;RP0=1, select bank1
  3022  05AD  01A2               	clrf	_uiSmallTimer^(0+128)
  3023  05AE  01A3               	clrf	(_uiSmallTimer+1)^(0+128)
  3024  05AF  0008               	return
  3025  05B0                     __end_of_clearThreeHoursTimer:	
  3026  05B0                     __ptext782:	
  3027 ;; =============== function _initPin ends ============
  3028                           
  3029                           
  3030 ;; *************** function _clearTwentySecondsTimer *****************
  3031 ;; Defined at:
  3032 ;;		line 376 in file "D:\develop\190625\AK7030-OTP\common.c"
  3033 ;; Parameters:    Size  Location     Type
  3034 ;;		None
  3035 ;; Auto vars:     Size  Location     Type
  3036 ;;		None
  3037 ;; Return value:  Size  Location     Type
  3038 ;;		None               void
  3039 ;; Registers used:
  3040 ;;		status,2
  3041 ;; Tracked objects:
  3042 ;;		On entry : 160/20
  3043 ;;		On exit  : 160/20
  3044 ;;		Unchanged: FFE9F/0
  3045 ;; Data sizes:     COMMON   BANK0   BANK1   BANK3   BANK2
  3046 ;;      Params:         0       0       0       0       0
  3047 ;;      Locals:         0       0       0       0       0
  3048 ;;      Temps:          0       0       0       0       0
  3049 ;;      Totals:         0       0       0       0       0
  3050 ;;Total ram usage:        0 bytes
  3051 ;; Hardware stack levels used:    1
  3052 ;; Hardware stack levels required when called:    2
  3053 ;; This function calls:
  3054 ;;		Nothing
  3055 ;; This function is called by:
  3056 ;;		_clearAllTimer
  3057 ;; This function uses a non-reentrant model
  3058 ;;
  3059  05B0                     _clearTwentySecondsTimer:	
  3060  05B0                     l3918:	
  3061                           ; Regs used in _clearTwentySecondsTimer: [status,2]
  3062                           
  3063                           
  3064                           ;common.c: 377: uiTwentySecondsTimer = 0;
  3065  05B0  01A4               	clrf	_uiTwentySecondsTimer^(0+128)
  3066  05B1  01A5               	clrf	(_uiTwentySecondsTimer+1)^(0+128)
  3067  05B2  0008               	return
  3068  05B3                     __end_of_clearTwentySecondsTimer:	
  3069                           
  3070                           	psect	text756
  3071  046F                     __ptext756:	
  3072 ;; =============== function _clearPinPortAndTimer ends ============
  3073                           
  3074                           
  3075 ;; *************** function _getAdOriginaCh4Value *****************
  3076 ;; Defined at:
  3077 ;;		line 229 in file "D:\develop\190625\AK7030-OTP\common.c"
  3078 ;; Parameters:    Size  Location     Type
  3079 ;;		None
  3080 ;; Auto vars:     Size  Location     Type
  3081 ;;		None
  3082 ;; Return value:  Size  Location     Type
  3083 ;;                  2   38[BANK0 ] unsigned int 
  3084 ;; Registers used:
  3085 ;;		wreg, fsr0l, fsr0h, status,2, status,0, btemp+1, pclath, cstack
  3086 ;; Tracked objects:
  3087 ;;		On entry : 60/0
  3088 ;;		On exit  : 160/0
  3089 ;;		Unchanged: FFE00/0
  3090 ;; Data sizes:     COMMON   BANK0   BANK1   BANK3   BANK2
  3091 ;;      Params:         0       2       0       0       0
  3092 ;;      Locals:         0       0       0       0       0
  3093 ;;      Temps:          0       0       0       0       0
  3094 ;;      Totals:         0       2       0       0       0
  3095 ;;Total ram usage:        2 bytes
  3096 ;; Hardware stack levels used:    1
  3097 ;; Hardware stack levels required when called:    3
  3098 ;; This function calls:
  3099 ;;		_Filter
  3100 ;; This function is called by:
  3101 ;;		_main
  3102 ;; This function uses a non-reentrant model
  3103 ;;
  3104  046F                     _getAdOriginaCh4Value:	
  3105                           
  3106                           ;common.c: 231: return Filter(uiSampleChannelFourth);
  3107                           
  3108                           ; Regs used in _getAdOriginaCh4Value: [wreg-fsr0h+status,2+status,0+btemp+1+pclath+cstac
      +                          k]
  3109  046F  30C4               	movlw	_uiSampleChannelFourth& (0+255)
  3110  0470  00A0               	movwf	?_Filter
  3111  0471  01A1               	clrf	?_Filter+1
  3112  0472  248D               	fcall	_Filter
  3113  0473  0821               	movf	?_Filter+1,w
  3114  0474  00C7               	movwf	?_getAdOriginaCh4Value+1
  3115  0475  0820               	movf	?_Filter,w
  3116  0476  00C6               	movwf	?_getAdOriginaCh4Value
  3117  0477  0008               	return
  3118  0478                     __end_of_getAdOriginaCh4Value:	
  3119  0478                     __ptext757:	
  3120 ;; =============== function _getAdOriginaCh4Value ends ============
  3121                           
  3122                           
  3123 ;; *************** function _getAdOriginalCh1Value *****************
  3124 ;; Defined at:
  3125 ;;		line 217 in file "D:\develop\190625\AK7030-OTP\common.c"
  3126 ;; Parameters:    Size  Location     Type
  3127 ;;		None
  3128 ;; Auto vars:     Size  Location     Type
  3129 ;;		None
  3130 ;; Return value:  Size  Location     Type
  3131 ;;                  2   38[BANK0 ] unsigned int 
  3132 ;; Registers used:
  3133 ;;		wreg, fsr0l, fsr0h, status,2, status,0, btemp+1, pclath, cstack
  3134 ;; Tracked objects:
  3135 ;;		On entry : 40/0
  3136 ;;		On exit  : 160/0
  3137 ;;		Unchanged: FFE00/0
  3138 ;; Data sizes:     COMMON   BANK0   BANK1   BANK3   BANK2
  3139 ;;      Params:         0       2       0       0       0
  3140 ;;      Locals:         0       0       0       0       0
  3141 ;;      Temps:          0       0       0       0       0
  3142 ;;      Totals:         0       2       0       0       0
  3143 ;;Total ram usage:        2 bytes
  3144 ;; Hardware stack levels used:    1
  3145 ;; Hardware stack levels required when called:    3
  3146 ;; This function calls:
  3147 ;;		_Filter
  3148 ;; This function is called by:
  3149 ;;		_main
  3150 ;; This function uses a non-reentrant model
  3151 ;;
  3152  0478                     _getAdOriginalCh1Value:	
  3153                           
  3154                           ;common.c: 220: return Filter(uiSampleChannelFirst);
  3155                           
  3156                           ; Regs used in _getAdOriginalCh1Value: [wreg-fsr0h+status,2+status,0+btemp+1+pclath+csta
      +                          ck]
  3157  0478  30AC               	movlw	_uiSampleChannelFirst& (0+255)
  3158  0479  1283               	bcf	3,5	;RP0=0, select bank0
  3159  047A  00A0               	movwf	?_Filter
  3160  047B  01A1               	clrf	?_Filter+1
  3161  047C  248D               	fcall	_Filter
  3162  047D  0821               	movf	?_Filter+1,w
  3163  047E  00C7               	movwf	?_getAdOriginalCh1Value+1
  3164  047F  0820               	movf	?_Filter,w
  3165  0480  00C6               	movwf	?_getAdOriginalCh1Value
  3166  0481  0008               	return
  3167  0482                     __end_of_getAdOriginalCh1Value:	
  3168  0482                     __ptext758:	
  3169 ;; =============== function _getAdOriginalCh1Value ends ============
  3170                           
  3171                           
  3172 ;; *************** function _getAdOriginalCh14Value *****************
  3173 ;; Defined at:
  3174 ;;		line 240 in file "D:\develop\190625\AK7030-OTP\common.c"
  3175 ;; Parameters:    Size  Location     Type
  3176 ;;		None
  3177 ;; Auto vars:     Size  Location     Type
  3178 ;;		None
  3179 ;; Return value:  Size  Location     Type
  3180 ;;                  2   38[BANK0 ] unsigned int 
  3181 ;; Registers used:
  3182 ;;		wreg, fsr0l, fsr0h, status,2, status,0, btemp+1, pclath, cstack
  3183 ;; Tracked objects:
  3184 ;;		On entry : 40/0
  3185 ;;		On exit  : 160/0
  3186 ;;		Unchanged: FFE00/0
  3187 ;; Data sizes:     COMMON   BANK0   BANK1   BANK3   BANK2
  3188 ;;      Params:         0       2       0       0       0
  3189 ;;      Locals:         0       0       0       0       0
  3190 ;;      Temps:          0       0       0       0       0
  3191 ;;      Totals:         0       2       0       0       0
  3192 ;;Total ram usage:        2 bytes
  3193 ;; Hardware stack levels used:    1
  3194 ;; Hardware stack levels required when called:    3
  3195 ;; This function calls:
  3196 ;;		_Filter
  3197 ;; This function is called by:
  3198 ;;		_main
  3199 ;; This function uses a non-reentrant model
  3200 ;;
  3201  0482                     _getAdOriginalCh14Value:	
  3202                           
  3203                           ;common.c: 242: return Filter(uiSampleChannelFourteenth);
  3204                           
  3205                           ; Regs used in _getAdOriginalCh14Value: [wreg-fsr0h+status,2+status,0+btemp+1+pclath+cst
      +                          ack]
  3206  0482  3090               	movlw	_uiSampleChannelFourteenth& (0+255)
  3207  0483  1283               	bcf	3,5	;RP0=0, select bank0
  3208  0484  00A0               	movwf	?_Filter
  3209  0485  3001               	movlw	1
  3210  0486  00A1               	movwf	?_Filter+1
  3211  0487  248D               	fcall	_Filter
  3212  0488  0821               	movf	?_Filter+1,w
  3213  0489  00C7               	movwf	?_getAdOriginalCh14Value+1
  3214  048A  0820               	movf	?_Filter,w
  3215  048B  00C6               	movwf	?_getAdOriginalCh14Value
  3216  048C  0008               	return
  3217  048D                     __end_of_getAdOriginalCh14Value:	
  3218  048D                     __ptext764:	
  3219 ;; =============== function _getAD_ConvertFlag ends ============
  3220                           
  3221                           
  3222 ;; *************** function _Filter *****************
  3223 ;; Defined at:
  3224 ;;		line 51 in file "D:\develop\190625\AK7030-OTP\common.c"
  3225 ;; Parameters:    Size  Location     Type
  3226 ;;  tmpValue        2    0[BANK0 ] PTR int 
  3227 ;;		 -> uiSampleChannelFourteenth(24), uiSampleChannelFourth(24), uiSampleChannelFirst(24), 
  3228 ;; Auto vars:     Size  Location     Type
  3229 ;;  cir             2   34[BANK0 ] int 
  3230 ;;  filter_buf     24    6[BANK0 ] unsigned int [12]
  3231 ;;  filter_sum      2   32[BANK0 ] unsigned int 
  3232 ;;  filter_temp     2   30[BANK0 ] unsigned int 
  3233 ;;  i               1   37[BANK0 ] unsigned char 
  3234 ;;  j               1   36[BANK0 ] unsigned char 
  3235 ;; Return value:  Size  Location     Type
  3236 ;;                  2    0[BANK0 ] unsigned int 
  3237 ;; Registers used:
  3238 ;;		wreg, fsr0l, fsr0h, status,2, status,0, btemp+1
  3239 ;; Tracked objects:
  3240 ;;		On entry : 60/0
  3241 ;;		On exit  : 160/0
  3242 ;;		Unchanged: FFE00/0
  3243 ;; Data sizes:     COMMON   BANK0   BANK1   BANK3   BANK2
  3244 ;;      Params:         0       2       0       0       0
  3245 ;;      Locals:         0      32       0       0       0
  3246 ;;      Temps:          0       4       0       0       0
  3247 ;;      Totals:         0      38       0       0       0
  3248 ;;Total ram usage:       38 bytes
  3249 ;; Hardware stack levels used:    1
  3250 ;; Hardware stack levels required when called:    2
  3251 ;; This function calls:
  3252 ;;		Nothing
  3253 ;; This function is called by:
  3254 ;;		_getAdOriginalCh1Value
  3255 ;;		_getAdOriginaCh4Value
  3256 ;;		_getAdOriginalCh14Value
  3257 ;; This function uses a non-reentrant model
  3258 ;;
  3259  048D                     _Filter:	
  3260                           
  3261                           ; Regs used in _Filter: [wreg-fsr0h+status,2+status,0+btemp+1]
  3262  048D  01C4               	clrf	Filter@j
  3263                           
  3264                           ;common.c: 55: unsigned int filter_temp = 0, filter_sum = 0;
  3265  048E  01BE               	clrf	Filter@filter_temp
  3266  048F  01BF               	clrf	Filter@filter_temp+1
  3267  0490  01C0               	clrf	Filter@filter_sum
  3268  0491  01C1               	clrf	Filter@filter_sum+1
  3269                           
  3270                           ;common.c: 57: unsigned int filter_buf[12];
  3271                           ;common.c: 59: for(int cir = 0;cir < 12; cir++)
  3272  0492  01C2               	clrf	Filter@cir
  3273  0493  01C3               	clrf	Filter@cir+1
  3274  0494                     l4028:	
  3275                           
  3276                           ;common.c: 60: filter_buf[cir] = *tmpValue++;
  3277  0494  1283               	bcf	3,5	;RP0=0, select bank0
  3278  0495  1303               	bcf	3,6	;RP1=0, select bank0
  3279  0496  0820               	movf	Filter@tmpValue,w
  3280  0497  0084               	movwf	4
  3281  0498  1783               	bsf	3,7
  3282  0499  1C21               	btfss	Filter@tmpValue+1,0
  3283  049A  1383               	bcf	3,7
  3284  049B  0800               	movf	0,w
  3285  049C  252E  118A         	fcall	PL5	;call to abstracted procedure
  3286  049E  0D42               	rlf	Filter@cir,w
  3287  049F  3E26               	addlw	Filter@filter_buf& (0+255)
  3288  04A0  0084               	movwf	4
  3289  04A1  0822               	movf	??_Filter,w
  3290  04A2  1383               	bcf	3,7	;select IRP bank0
  3291  04A3  0080               	movwf	0
  3292  04A4  0A84               	incf	4,f
  3293  04A5  0823               	movf	??_Filter+1,w
  3294  04A6  0080               	movwf	0
  3295  04A7  3002               	movlw	2
  3296  04A8  07A0               	addwf	Filter@tmpValue,f
  3297  04A9  1803               	skipnc
  3298  04AA  0AA1               	incf	Filter@tmpValue+1,f
  3299  04AB  0AC2               	incf	Filter@cir,f
  3300  04AC  1903               	skipnz
  3301  04AD  0AC3               	incf	Filter@cir+1,f
  3302  04AE  0843               	movf	Filter@cir+1,w
  3303  04AF  3A80               	xorlw	128
  3304  04B0  00FF               	movwf	127
  3305  04B1  3080               	movlw	128
  3306  04B2  027F               	subwf	127,w
  3307  04B3  1D03               	skipz
  3308  04B4  2CB7               	goto	u1095
  3309  04B5  300C               	movlw	12
  3310  04B6  0242               	subwf	Filter@cir,w
  3311  04B7                     u1095:	
  3312  04B7  1C03               	skipc
  3313  04B8  2C94               	goto	l4028
  3314                           
  3315                           ;common.c: 63: for(j = 0; j < 12 - 1; j++)
  3316  04B9  1283               	bcf	3,5	;RP0=0, select bank0
  3317  04BA  1303               	bcf	3,6	;RP1=0, select bank0
  3318  04BB  01C4               	clrf	Filter@j
  3319  04BC                     l4042:	
  3320                           
  3321                           ;common.c: 64: {
  3322                           ;common.c: 65: for(i = 0; i < 12 - 1 - j; i++)
  3323  04BC  01C5               	clrf	Filter@i
  3324  04BD                     l4050:	
  3325  04BD  01A3               	clrf	??_Filter+1
  3326  04BE  0844               	movf	Filter@j,w
  3327  04BF  3C0B               	sublw	11
  3328  04C0  00A2               	movwf	??_Filter
  3329  04C1  1C03               	skipc
  3330  04C2  03A3               	decf	??_Filter+1,f
  3331  04C3  0823               	movf	??_Filter+1,w
  3332  04C4  3A80               	xorlw	128
  3333  04C5  3C80               	sublw	128
  3334  04C6  1D03               	skipz
  3335  04C7  2CCA               	goto	u1115
  3336  04C8  0822               	movf	??_Filter,w
  3337  04C9  0245               	subwf	Filter@i,w
  3338  04CA                     u1115:	
  3339  04CA  1803               	btfsc	3,0
  3340  04CB  2CFF               	goto	l4052
  3341                           
  3342                           ;common.c: 66: {
  3343                           ;common.c: 67: if(filter_buf[i] > filter_buf[i + 1])
  3344  04CC  1283               	bcf	3,5	;RP0=0, select bank0
  3345  04CD  1303               	bcf	3,6	;RP1=0, select bank0
  3346  04CE  1003               	clrc
  3347  04CF  2524  118A         	fcall	PL3	;call to abstracted procedure
  3348  04D1  2534  118A         	fcall	PL6	;call to abstracted procedure
  3349  04D3  0800               	movf	0,w
  3350  04D4  00A4               	movwf	??_Filter+2
  3351  04D5  0A84               	incf	4,f
  3352  04D6  0800               	movf	0,w
  3353  04D7  00A5               	movwf	??_Filter+3
  3354  04D8  0823               	movf	??_Filter+1,w
  3355  04D9  0225               	subwf	??_Filter+3,w
  3356  04DA  1D03               	skipz
  3357  04DB  2CDE               	goto	u1105
  3358  04DC  0822               	movf	??_Filter,w
  3359  04DD  0224               	subwf	??_Filter+2,w
  3360  04DE                     u1105:	
  3361  04DE  1803               	skipnc
  3362  04DF  2CFD               	goto	l4048
  3363                           
  3364                           ;common.c: 68: {
  3365                           ;common.c: 70: filter_temp = filter_buf[i];
  3366  04E0  1003               	clrc
  3367  04E1  0D45               	rlf	Filter@i,w
  3368  04E2  3E26               	addlw	Filter@filter_buf& (0+255)
  3369  04E3  0084               	movwf	4
  3370  04E4  0800               	movf	0,w
  3371  04E5  00BE               	movwf	Filter@filter_temp
  3372  04E6  0A84               	incf	4,f
  3373  04E7  0800               	movf	0,w
  3374  04E8  00BF               	movwf	Filter@filter_temp+1
  3375                           
  3376                           ;common.c: 72: filter_buf[i] = filter_buf[i + 1];
  3377  04E9  2534  118A         	fcall	PL6	;call to abstracted procedure
  3378  04EB  0800               	movf	0,w
  3379  04EC  252E  118A         	fcall	PL5	;call to abstracted procedure
  3380  04EE  0D45               	rlf	Filter@i,w
  3381  04EF  3E26               	addlw	Filter@filter_buf& (0+255)
  3382  04F0  0084               	movwf	4
  3383  04F1  0822               	movf	??_Filter,w
  3384  04F2  0080               	movwf	0
  3385  04F3  0A84               	incf	4,f
  3386  04F4  0823               	movf	??_Filter+1,w
  3387  04F5  0080               	movwf	0
  3388                           
  3389                           ;common.c: 74: filter_buf[i + 1] = filter_temp;
  3390  04F6  2534  118A         	fcall	PL6	;call to abstracted procedure
  3391  04F8  083E               	movf	Filter@filter_temp,w
  3392  04F9  0080               	movwf	0
  3393  04FA  0A84               	incf	4,f
  3394  04FB  083F               	movf	Filter@filter_temp+1,w
  3395  04FC  0080               	movwf	0
  3396  04FD                     l4048:	
  3397  04FD  0AC5               	incf	Filter@i,f
  3398  04FE  2CBD               	goto	l4050
  3399  04FF                     l4052:	
  3400  04FF  1283               	bcf	3,5	;RP0=0, select bank0
  3401  0500  300B               	movlw	11
  3402  0501  1303               	bcf	3,6	;RP1=0, select bank0
  3403  0502  0AC4               	incf	Filter@j,f
  3404  0503  0244               	subwf	Filter@j,w
  3405  0504  1C03               	skipc
  3406  0505  2CBC               	goto	l4042
  3407                           
  3408                           ;common.c: 75: }
  3409                           ;common.c: 76: }
  3410                           ;common.c: 77: }
  3411                           ;common.c: 79: for(i = 2; i < 12 - 2; i++)
  3412  0506  3002               	movlw	2
  3413  0507  00C5               	movwf	Filter@i
  3414                           
  3415                           ;common.c: 80: {
  3416                           ;common.c: 81: filter_sum += filter_buf[i];
  3417  0508  1003               	clrc
  3418  0509                     L9:	
  3419  0509  2524  118A         	fcall	PL3	;call to abstracted procedure
  3420  050B  0822               	movf	??_Filter,w
  3421  050C  07C0               	addwf	Filter@filter_sum,f
  3422  050D  1803               	skipnc
  3423  050E  0AC1               	incf	Filter@filter_sum+1,f
  3424  050F  0823               	movf	??_Filter+1,w
  3425  0510  07C1               	addwf	Filter@filter_sum+1,f
  3426  0511  300A               	movlw	10
  3427  0512  0AC5               	incf	Filter@i,f
  3428  0513  0245               	subwf	Filter@i,w
  3429  0514  1C03               	skipc
  3430  0515  2D09               	goto	L9
  3431                           
  3432                           ;common.c: 82: }
  3433                           ;common.c: 84: return (filter_sum >> 3);
  3434  0516  0841               	movf	Filter@filter_sum+1,w
  3435  0517  00A1               	movwf	?_Filter+1
  3436  0518  0840               	movf	Filter@filter_sum,w
  3437  0519  00A0               	movwf	?_Filter
  3438  051A  1003               	clrc
  3439  051B  0CA1               	rrf	?_Filter+1,f
  3440  051C  0CA0               	rrf	?_Filter,f
  3441  051D  1003               	clrc
  3442  051E  0CA1               	rrf	?_Filter+1,f
  3443  051F  0CA0               	rrf	?_Filter,f
  3444  0520  1003               	clrc
  3445  0521  0CA1               	rrf	?_Filter+1,f
  3446  0522  0CA0               	rrf	?_Filter,f
  3447  0523  0008               	return
  3448  0524                     __end_of_Filter:	
  3449  0524                     PL3:	
  3450  0524  0D45               	rlf	Filter@i,w
  3451  0525  3E26               	addlw	Filter@filter_buf& (0+255)
  3452  0526  0084               	movwf	4
  3453  0527  1383               	bcf	3,7	;select IRP bank0
  3454  0528  0800               	movf	0,w
  3455  0529  00A2               	movwf	??_Filter
  3456  052A  0A84               	incf	4,f
  3457  052B  0800               	movf	0,w
  3458  052C  00A3               	movwf	??_Filter+1
  3459  052D  0008               	return
  3460  052E                     PL5:	
  3461  052E  00A2               	movwf	??_Filter
  3462  052F  0A84               	incf	4,f
  3463  0530  0800               	movf	0,w
  3464  0531  00A3               	movwf	??_Filter+1
  3465  0532  1003               	clrc
  3466  0533  0008               	return
  3467  0534                     PL6:	
  3468  0534  1003               	clrc
  3469  0535  0D45               	rlf	Filter@i,w
  3470  0536  3E02               	addlw	2
  3471  0537  3E26               	addlw	Filter@filter_buf& (0+255)
  3472  0538  0084               	movwf	4
  3473  0539  0008               	return
  3474                           
  3475                           	psect	text759
  3476  053A                     __ptext759:	
  3477 ;; =============== function _getAdOriginalCh14Value ends ============
  3478                           
  3479                           
  3480 ;; *************** function _process_AD_Converter_Value *****************
  3481 ;; Defined at:
  3482 ;;		line 251 in file "D:\develop\190625\AK7030-OTP\common.c"
  3483 ;; Parameters:    Size  Location     Type
  3484 ;;		None
  3485 ;; Auto vars:     Size  Location     Type
  3486 ;;		None
  3487 ;; Return value:  Size  Location     Type
  3488 ;;		None               void
  3489 ;; Registers used:
  3490 ;;		wreg, status,2, status,0, pclath, cstack
  3491 ;; Tracked objects:
  3492 ;;		On entry : 0/0
  3493 ;;		On exit  : 40/0
  3494 ;;		Unchanged: FFF9F/0
  3495 ;; Data sizes:     COMMON   BANK0   BANK1   BANK3   BANK2
  3496 ;;      Params:         0       0       0       0       0
  3497 ;;      Locals:         0       0       0       0       0
  3498 ;;      Temps:          0       0       0       0       0
  3499 ;;      Totals:         0       0       0       0       0
  3500 ;;Total ram usage:        0 bytes
  3501 ;; Hardware stack levels used:    1
  3502 ;; Hardware stack levels required when called:    3
  3503 ;; This function calls:
  3504 ;;		_getAD_ConvertFlag
  3505 ;;		_setAD_ConvertFlag
  3506 ;;		_AD_Sample
  3507 ;;		_adc_test_init
  3508 ;;		_adc_start
  3509 ;; This function is called by:
  3510 ;;		_main
  3511 ;; This function uses a non-reentrant model
  3512 ;;
  3513  053A                     _process_AD_Converter_Value:	
  3514                           
  3515                           ;common.c: 252: if(getAD_ConvertFlag())
  3516                           
  3517                           ; Regs used in _process_AD_Converter_Value: [wreg+status,2+status,0+pclath+cstack]
  3518  053A  2558  118A         	fcall	_getAD_ConvertFlag
  3519  053C  3A00               	xorlw	0
  3520  053D  1903               	skipnz
  3521  053E  0008               	return
  3522                           
  3523                           ;common.c: 253: {
  3524                           ;common.c: 254: setAD_ConvertFlag(0);
  3525  053F  3000               	movlw	0
  3526  0540  255C  118A         	fcall	_setAD_ConvertFlag
  3527                           
  3528                           ;common.c: 255: AD_Sample();
  3529  0542  2561  118A         	fcall	_AD_Sample
  3530                           
  3531                           ;common.c: 256: if(4 == sampleChannelSelect)
  3532  0544  086E               	movf	_sampleChannelSelect,w
  3533  0545  3A04               	xorlw	4
  3534  0546  1D03               	skipz
  3535  0547  2D4C               	goto	l4198
  3536                           
  3537                           ;common.c: 257: adc_test_init(4,3);
  3538  0548  3003               	movlw	3
  3539  0549  00A0               	movwf	?_adc_test_init
  3540  054A  3004               	movlw	4
  3541  054B  2D55               	goto	L8
  3542  054C                     l4198:	
  3543                           
  3544                           ;common.c: 258: else if(1 == sampleChannelSelect)
  3545  054C  0B6E               	decfsz	_sampleChannelSelect,w
  3546  054D  2D52               	goto	l4202
  3547                           
  3548                           ;common.c: 259: adc_test_init(1,3);
  3549  054E  3003               	movlw	3
  3550  054F  00A0               	movwf	?_adc_test_init
  3551  0550  3001               	movlw	1
  3552  0551  2D55               	goto	L8
  3553  0552                     l4202:	
  3554                           
  3555                           ;common.c: 260: else
  3556                           ;common.c: 261: adc_test_init(14,3);
  3557  0552  3003               	movlw	3
  3558  0553  00A0               	movwf	?_adc_test_init
  3559  0554  300E               	movlw	14
  3560  0555                     L8:	
  3561  0555  257F  118A         	fcall	_adc_test_init
  3562                           
  3563                           ;common.c: 263: adc_start();
  3564  0557  2D94               	ljmp	l3960
  3565  0558                     __end_of_process_AD_Converter_Value:	
  3566  0558                     __ptext763:	
  3567 ;; =============== function _setAD_ConvertFlag ends ============
  3568                           
  3569                           
  3570 ;; *************** function _getAD_ConvertFlag *****************
  3571 ;; Defined at:
  3572 ;;		line 200 in file "D:\develop\190625\AK7030-OTP\common.c"
  3573 ;; Parameters:    Size  Location     Type
  3574 ;;		None
  3575 ;; Auto vars:     Size  Location     Type
  3576 ;;		None
  3577 ;; Return value:  Size  Location     Type
  3578 ;;                  1    wreg      unsigned char 
  3579 ;; Registers used:
  3580 ;;		wreg
  3581 ;; Tracked objects:
  3582 ;;		On entry : 0/0
  3583 ;;		On exit  : 60/20
  3584 ;;		Unchanged: FFF9F/0
  3585 ;; Data sizes:     COMMON   BANK0   BANK1   BANK3   BANK2
  3586 ;;      Params:         0       0       0       0       0
  3587 ;;      Locals:         0       0       0       0       0
  3588 ;;      Temps:          0       0       0       0       0
  3589 ;;      Totals:         0       0       0       0       0
  3590 ;;Total ram usage:        0 bytes
  3591 ;; Hardware stack levels used:    1
  3592 ;; Hardware stack levels required when called:    2
  3593 ;; This function calls:
  3594 ;;		Nothing
  3595 ;; This function is called by:
  3596 ;;		_process_AD_Converter_Value
  3597 ;; This function uses a non-reentrant model
  3598 ;;
  3599  0558                     _getAD_ConvertFlag:	
  3600                           
  3601                           ;common.c: 201: return adc_convert_flag;
  3602                           
  3603                           ; Regs used in _getAD_ConvertFlag: [wreg]
  3604  0558  1683               	bsf	3,5	;RP0=1, select bank1
  3605  0559  1303               	bcf	3,6	;RP1=0, select bank1
  3606  055A  0827               	movf	_adc_convert_flag^(0+128),w
  3607  055B  0008               	return
  3608  055C                     __end_of_getAD_ConvertFlag:	
  3609  055C                     __ptext762:	
  3610 ;; =============== function _AD_Sample ends ============
  3611                           
  3612                           
  3613 ;; *************** function _setAD_ConvertFlag *****************
  3614 ;; Defined at:
  3615 ;;		line 206 in file "D:\develop\190625\AK7030-OTP\common.c"
  3616 ;; Parameters:    Size  Location     Type
  3617 ;;  flag            1    wreg     unsigned char 
  3618 ;; Auto vars:     Size  Location     Type
  3619 ;;  flag            1    0[BANK0 ] unsigned char 
  3620 ;; Return value:  Size  Location     Type
  3621 ;;		None               void
  3622 ;; Registers used:
  3623 ;;		wreg
  3624 ;; Tracked objects:
  3625 ;;		On entry : 60/20
  3626 ;;		On exit  : 60/20
  3627 ;;		Unchanged: FFF9F/0
  3628 ;; Data sizes:     COMMON   BANK0   BANK1   BANK3   BANK2
  3629 ;;      Params:         0       0       0       0       0
  3630 ;;      Locals:         0       1       0       0       0
  3631 ;;      Temps:          0       0       0       0       0
  3632 ;;      Totals:         0       1       0       0       0
  3633 ;;Total ram usage:        1 bytes
  3634 ;; Hardware stack levels used:    1
  3635 ;; Hardware stack levels required when called:    2
  3636 ;; This function calls:
  3637 ;;		Nothing
  3638 ;; This function is called by:
  3639 ;;		_process_AD_Converter_Value
  3640 ;; This function uses a non-reentrant model
  3641 ;;
  3642  055C                     _setAD_ConvertFlag:	
  3643                           
  3644                           ; Regs used in _setAD_ConvertFlag: [wreg]
  3645                           ;setAD_ConvertFlag@flag stored from wreg
  3646  055C  1283               	bcf	3,5	;RP0=0, select bank0
  3647  055D  00A0               	movwf	setAD_ConvertFlag@flag
  3648                           
  3649                           ;common.c: 207: adc_convert_flag = flag;
  3650  055E  1683               	bsf	3,5	;RP0=1, select bank1
  3651  055F  00A7               	movwf	_adc_convert_flag^(0+128)
  3652  0560  0008               	return
  3653  0561                     __end_of_setAD_ConvertFlag:	
  3654  0561                     __ptext761:	
  3655 ;; =============== function _clearAllTimer ends ============
  3656                           
  3657                           
  3658 ;; *************** function _AD_Sample *****************
  3659 ;; Defined at:
  3660 ;;		line 277 in file "D:\develop\190625\AK7030-OTP\common.c"
  3661 ;; Parameters:    Size  Location     Type
  3662 ;;		None
  3663 ;; Auto vars:     Size  Location     Type
  3664 ;;		None
  3665 ;; Return value:  Size  Location     Type
  3666 ;;		None               void
  3667 ;; Registers used:
  3668 ;;		wreg, status,2, status,0
  3669 ;; Tracked objects:
  3670 ;;		On entry : 60/20
  3671 ;;		On exit  : 60/0
  3672 ;;		Unchanged: FFF9F/0
  3673 ;; Data sizes:     COMMON   BANK0   BANK1   BANK3   BANK2
  3674 ;;      Params:         0       0       0       0       0
  3675 ;;      Locals:         0       0       0       0       0
  3676 ;;      Temps:          0       0       0       0       0
  3677 ;;      Totals:         0       0       0       0       0
  3678 ;;Total ram usage:        0 bytes
  3679 ;; Hardware stack levels used:    1
  3680 ;; Hardware stack levels required when called:    2
  3681 ;; This function calls:
  3682 ;;		Nothing
  3683 ;; This function is called by:
  3684 ;;		_process_AD_Converter_Value
  3685 ;; This function uses a non-reentrant model
  3686 ;;
  3687  0561                     _AD_Sample:	
  3688                           
  3689                           ;common.c: 278: if(sampleTimes < 12)
  3690                           
  3691                           ; Regs used in _AD_Sample: [wreg+status,2+status,0]
  3692  0561  300C               	movlw	12
  3693  0562  1283               	bcf	3,5	;RP0=0, select bank0
  3694  0563  0248               	subwf	_sampleTimes,w
  3695  0564  1803               	skipnc
  3696  0565  0008               	return
  3697  0566  300C               	movlw	12
  3698                           
  3699                           ;common.c: 279: {
  3700                           ;common.c: 300: sampleTimes++;
  3701  0567  0AC8               	incf	_sampleTimes,f
  3702                           
  3703                           ;common.c: 302: if(sampleTimes >= 12)
  3704  0568  0248               	subwf	_sampleTimes,w
  3705  0569  1C03               	skipc
  3706  056A  0008               	return
  3707                           
  3708                           ;common.c: 303: {
  3709                           ;common.c: 304: sampleTimes = 0;
  3710  056B  01C8               	clrf	_sampleTimes
  3711                           
  3712                           ;common.c: 306: if(sampleChannelSelect == 14)
  3713  056C  086E               	movf	_sampleChannelSelect,w
  3714  056D  3A0E               	xorlw	14
  3715  056E  1D03               	skipz
  3716  056F  2D73               	goto	l4138
  3717                           
  3718                           ;common.c: 307: {
  3719                           ;common.c: 310: sampleChannelSelect = 1;
  3720  0570  01EE               	clrf	_sampleChannelSelect
  3721  0571  0AEE               	incf	_sampleChannelSelect,f
  3722                           
  3723                           ;common.c: 311: }
  3724  0572  0008               	return
  3725  0573                     l4138:	
  3726                           
  3727                           ;common.c: 312: else if(sampleChannelSelect == 4)
  3728  0573  086E               	movf	_sampleChannelSelect,w
  3729  0574  3A04               	xorlw	4
  3730  0575  1D03               	skipz
  3731  0576  2D7A               	goto	l4142
  3732  0577                     l4140:	
  3733                           
  3734                           ;common.c: 313: {
  3735                           ;common.c: 315: sampleChannelSelect = 14;
  3736  0577  300E               	movlw	14
  3737  0578  00EE               	movwf	_sampleChannelSelect
  3738                           
  3739                           ;common.c: 316: }
  3740  0579  0008               	return
  3741  057A                     l4142:	
  3742                           
  3743                           ;common.c: 317: else if(sampleChannelSelect == 1)
  3744  057A  0B6E               	decfsz	_sampleChannelSelect,w
  3745  057B  2D77               	goto	l4140
  3746                           
  3747                           ;common.c: 318: {
  3748                           ;common.c: 320: sampleChannelSelect = 4;
  3749  057C  3004               	movlw	4
  3750  057D  00EE               	movwf	_sampleChannelSelect
  3751                           
  3752                           ;common.c: 321: }
  3753  057E  0008               	return
  3754  057F                     __end_of_AD_Sample:	
  3755  057F                     __ptext777:	
  3756 ;; =============== function _dac_init ends ============
  3757                           
  3758                           
  3759 ;; *************** function _adc_test_init *****************
  3760 ;; Defined at:
  3761 ;;		line 85 in file "D:\develop\190625\AK7030-OTP\periph.c"
  3762 ;; Parameters:    Size  Location     Type
  3763 ;;  channel         1    wreg     unsigned char 
  3764 ;;  ref             1    0[BANK0 ] unsigned char 
  3765 ;; Auto vars:     Size  Location     Type
  3766 ;;  channel         1    2[BANK0 ] unsigned char 
  3767 ;; Return value:  Size  Location     Type
  3768 ;;		None               void
  3769 ;; Registers used:
  3770 ;;		wreg, status,2, status,0
  3771 ;; Tracked objects:
  3772 ;;		On entry : 60/0
  3773 ;;		On exit  : 60/20
  3774 ;;		Unchanged: FFF9F/0
  3775 ;; Data sizes:     COMMON   BANK0   BANK1   BANK3   BANK2
  3776 ;;      Params:         0       1       0       0       0
  3777 ;;      Locals:         0       1       0       0       0
  3778 ;;      Temps:          0       1       0       0       0
  3779 ;;      Totals:         0       3       0       0       0
  3780 ;;Total ram usage:        3 bytes
  3781 ;; Hardware stack levels used:    1
  3782 ;; Hardware stack levels required when called:    2
  3783 ;; This function calls:
  3784 ;;		Nothing
  3785 ;; This function is called by:
  3786 ;;		_main
  3787 ;;		_process_AD_Converter_Value
  3788 ;; This function uses a non-reentrant model
  3789 ;;
  3790  057F                     _adc_test_init:	
  3791                           
  3792                           ; Regs used in _adc_test_init: [wreg+status,2+status,0]
  3793                           ;adc_test_init@channel stored from wreg
  3794  057F  00A2               	movwf	adc_test_init@channel
  3795                           
  3796                           ;periph.c: 86: ADCON0 = 0x00;
  3797  0580  019F               	clrf	31	;volatile
  3798                           
  3799                           ;periph.c: 87: ADCON0|=channel<<2;
  3800  0581  00A1               	movwf	??_adc_test_init
  3801  0582  1003               	clrc
  3802  0583  0DA1               	rlf	??_adc_test_init,f
  3803  0584  1003               	clrc
  3804  0585  0D21               	rlf	??_adc_test_init,w
  3805  0586  049F               	iorwf	31,f	;volatile
  3806                           
  3807                           ;periph.c: 88: ADCON1|=ref<<6;
  3808  0587  0820               	movf	adc_test_init@ref,w
  3809  0588  00A1               	movwf	??_adc_test_init
  3810  0589  0CA1               	rrf	??_adc_test_init,f
  3811  058A  0CA1               	rrf	??_adc_test_init,f
  3812  058B  0C21               	rrf	??_adc_test_init,w
  3813  058C  39C0               	andlw	192
  3814  058D  1683               	bsf	3,5	;RP0=1, select bank1
  3815  058E  049F               	iorwf	31,f	;volatile
  3816                           
  3817                           ;periph.c: 89: ADON=1;
  3818  058F  1283               	bcf	3,5	;RP0=0, select bank0
  3819  0590  141F               	bsf	31,0
  3820                           
  3821                           ;periph.c: 90: ADIE=1;
  3822  0591  1683               	bsf	3,5	;RP0=1, select bank1
  3823  0592  150D               	bsf	13,2
  3824  0593  0008               	return
  3825  0594                     __end_of_adc_test_init:	
  3826  0594                     __ptext773:	
  3827 ;; =============== function _isPermitSampleTime ends ============
  3828                           
  3829                           
  3830 ;; *************** function _adc_start *****************
  3831 ;; Defined at:
  3832 ;;		line 100 in file "D:\develop\190625\AK7030-OTP\periph.c"
  3833 ;; Parameters:    Size  Location     Type
  3834 ;;		None
  3835 ;; Auto vars:     Size  Location     Type
  3836 ;;		None
  3837 ;; Return value:  Size  Location     Type
  3838 ;;		None               void
  3839 ;; Registers used:
  3840 ;;		None
  3841 ;; Tracked objects:
  3842 ;;		On entry : 60/20
  3843 ;;		On exit  : 60/0
  3844 ;;		Unchanged: FFF9F/0
  3845 ;; Data sizes:     COMMON   BANK0   BANK1   BANK3   BANK2
  3846 ;;      Params:         0       0       0       0       0
  3847 ;;      Locals:         0       0       0       0       0
  3848 ;;      Temps:          0       0       0       0       0
  3849 ;;      Totals:         0       0       0       0       0
  3850 ;;Total ram usage:        0 bytes
  3851 ;; Hardware stack levels used:    1
  3852 ;; Hardware stack levels required when called:    2
  3853 ;; This function calls:
  3854 ;;		Nothing
  3855 ;; This function is called by:
  3856 ;;		_main
  3857 ;;		_process_AD_Converter_Value
  3858 ;; This function uses a non-reentrant model
  3859 ;;
  3860  0594                     _adc_start:	
  3861  0594                     l3960:	
  3862                           ; Regs used in _adc_start: []
  3863                           
  3864                           
  3865                           ;periph.c: 101: GO=1;
  3866  0594  1283               	bcf	3,5	;RP0=0, select bank0
  3867  0595  149F               	bsf	31,1
  3868  0596  0008               	return
  3869  0597                     __end_of_adc_start:	
  3870                           
  3871                           	psect	text765
  3872  0650                     __ptext765:	
  3873 ;; =============== function _Filter ends ============
  3874                           
  3875                           
  3876 ;; *************** function _isFinishedThreeHoursTimer *****************
  3877 ;; Defined at:
  3878 ;;		line 416 in file "D:\develop\190625\AK7030-OTP\common.c"
  3879 ;; Parameters:    Size  Location     Type
  3880 ;;		None
  3881 ;; Auto vars:     Size  Location     Type
  3882 ;;		None
  3883 ;; Return value:  Size  Location     Type
  3884 ;;                  1    wreg      unsigned char 
  3885 ;; Registers used:
  3886 ;;		wreg, status,2, status,0
  3887 ;; Tracked objects:
  3888 ;;		On entry : 60/0
  3889 ;;		On exit  : 60/20
  3890 ;;		Unchanged: FFF9F/0
  3891 ;; Data sizes:     COMMON   BANK0   BANK1   BANK3   BANK2
  3892 ;;      Params:         0       0       0       0       0
  3893 ;;      Locals:         0       0       0       0       0
  3894 ;;      Temps:          0       0       0       0       0
  3895 ;;      Totals:         0       0       0       0       0
  3896 ;;Total ram usage:        0 bytes
  3897 ;; Hardware stack levels used:    1
  3898 ;; Hardware stack levels required when called:    2
  3899 ;; This function calls:
  3900 ;;		Nothing
  3901 ;; This function is called by:
  3902 ;;		_main
  3903 ;; This function uses a non-reentrant model
  3904 ;;
  3905  0650                     _isFinishedThreeHoursTimer:	
  3906                           
  3907                           ;common.c: 417: if(uiSmallTimer == 0)
  3908                           
  3909                           ; Regs used in _isFinishedThreeHoursTimer: [wreg+status,2+status,0]
  3910  0650  1683               	bsf	3,5	;RP0=1, select bank1
  3911  0651  0823               	movf	(_uiSmallTimer+1)^(0+128),w
  3912  0652  0422               	iorwf	_uiSmallTimer^(0+128),w
  3913  0653  1903               	btfsc	3,2
  3914                           
  3915                           ;common.c: 418: return 1;
  3916  0654  3401               	retlw	1
  3917                           
  3918                           ;common.c: 419: else
  3919                           ;common.c: 420: return 0;
  3920  0655  3400               	retlw	0
  3921  0656                     __end_of_isFinishedThreeHoursTimer:	
  3922                           
  3923                           	psect	text766
  3924  05FB                     __ptext766:	
  3925 ;; =============== function _isFinishedThreeHoursTimer ends ============
  3926                           
  3927                           
  3928 ;; *************** function _startThreeHoursTimer *****************
  3929 ;; Defined at:
  3930 ;;		line 382 in file "D:\develop\190625\AK7030-OTP\common.c"
  3931 ;; Parameters:    Size  Location     Type
  3932 ;;  uiSetTime       2    0[BANK0 ] unsigned int 
  3933 ;; Auto vars:     Size  Location     Type
  3934 ;;		None
  3935 ;; Return value:  Size  Location     Type
  3936 ;;		None               void
  3937 ;; Registers used:
  3938 ;;		wreg, status,2, status,0
  3939 ;; Tracked objects:
  3940 ;;		On entry : 60/0
  3941 ;;		On exit  : 60/20
  3942 ;;		Unchanged: FFF9F/0
  3943 ;; Data sizes:     COMMON   BANK0   BANK1   BANK3   BANK2
  3944 ;;      Params:         0       2       0       0       0
  3945 ;;      Locals:         0       0       0       0       0
  3946 ;;      Temps:          0       0       0       0       0
  3947 ;;      Totals:         0       2       0       0       0
  3948 ;;Total ram usage:        2 bytes
  3949 ;; Hardware stack levels used:    1
  3950 ;; Hardware stack levels required when called:    2
  3951 ;; This function calls:
  3952 ;;		Nothing
  3953 ;; This function is called by:
  3954 ;;		_main
  3955 ;; This function uses a non-reentrant model
  3956 ;;
  3957  05FB                     _startThreeHoursTimer:	
  3958                           
  3959                           ;common.c: 383: if(0 == uiSmallTimer)
  3960                           
  3961                           ; Regs used in _startThreeHoursTimer: [wreg+status,2+status,0]
  3962  05FB  1683               	bsf	3,5	;RP0=1, select bank1
  3963  05FC  0823               	movf	(_uiSmallTimer+1)^(0+128),w
  3964  05FD  0422               	iorwf	_uiSmallTimer^(0+128),w
  3965  05FE  1D03               	skipz
  3966  05FF  0008               	return
  3967                           
  3968                           ;common.c: 384: uiSmallTimer = uiSetTime;
  3969  0600  1283               	bcf	3,5	;RP0=0, select bank0
  3970  0601  0821               	movf	startThreeHoursTimer@uiSetTime+1,w
  3971  0602  1683               	bsf	3,5	;RP0=1, select bank1
  3972  0603  00A3               	movwf	(_uiSmallTimer+1)^(0+128)
  3973  0604  1283               	bcf	3,5	;RP0=0, select bank0
  3974  0605  0820               	movf	startThreeHoursTimer@uiSetTime,w
  3975  0606  1683               	bsf	3,5	;RP0=1, select bank1
  3976  0607  00A2               	movwf	_uiSmallTimer^(0+128)
  3977  0608  0008               	return
  3978  0609                     __end_of_startThreeHoursTimer:	
  3979                           
  3980                           	psect	text767
  3981  0656                     __ptext767:	
  3982 ;; =============== function _startThreeHoursTimer ends ============
  3983                           
  3984                           
  3985 ;; *************** function _isFinishedTwentySecondsTimer *****************
  3986 ;; Defined at:
  3987 ;;		line 399 in file "D:\develop\190625\AK7030-OTP\common.c"
  3988 ;; Parameters:    Size  Location     Type
  3989 ;;		None
  3990 ;; Auto vars:     Size  Location     Type
  3991 ;;		None
  3992 ;; Return value:  Size  Location     Type
  3993 ;;                  1    wreg      unsigned char 
  3994 ;; Registers used:
  3995 ;;		wreg, status,2, status,0
  3996 ;; Tracked objects:
  3997 ;;		On entry : 60/0
  3998 ;;		On exit  : 60/20
  3999 ;;		Unchanged: FFF9F/0
  4000 ;; Data sizes:     COMMON   BANK0   BANK1   BANK3   BANK2
  4001 ;;      Params:         0       0       0       0       0
  4002 ;;      Locals:         0       0       0       0       0
  4003 ;;      Temps:          0       0       0       0       0
  4004 ;;      Totals:         0       0       0       0       0
  4005 ;;Total ram usage:        0 bytes
  4006 ;; Hardware stack levels used:    1
  4007 ;; Hardware stack levels required when called:    2
  4008 ;; This function calls:
  4009 ;;		Nothing
  4010 ;; This function is called by:
  4011 ;;		_main
  4012 ;; This function uses a non-reentrant model
  4013 ;;
  4014  0656                     _isFinishedTwentySecondsTimer:	
  4015                           
  4016                           ;common.c: 400: if(0 == uiTwentySecondsTimer)
  4017                           
  4018                           ; Regs used in _isFinishedTwentySecondsTimer: [wreg+status,2+status,0]
  4019  0656  1683               	bsf	3,5	;RP0=1, select bank1
  4020  0657  0825               	movf	(_uiTwentySecondsTimer+1)^(0+128),w
  4021  0658  0424               	iorwf	_uiTwentySecondsTimer^(0+128),w
  4022  0659  1903               	btfsc	3,2
  4023                           
  4024                           ;common.c: 401: return 1;
  4025  065A  3401               	retlw	1
  4026                           
  4027                           ;common.c: 402: else
  4028                           ;common.c: 403: return 0;
  4029  065B  3400               	retlw	0
  4030  065C                     __end_of_isFinishedTwentySecondsTimer:	
  4031                           
  4032                           	psect	text768
  4033  0668                     __ptext768:	
  4034 ;; =============== function _isFinishedTwentySecondsTimer ends ============
  4035                           
  4036                           
  4037 ;; *************** function _startTwentySecondsTimer *****************
  4038 ;; Defined at:
  4039 ;;		line 393 in file "D:\develop\190625\AK7030-OTP\common.c"
  4040 ;; Parameters:    Size  Location     Type
  4041 ;;		None
  4042 ;; Auto vars:     Size  Location     Type
  4043 ;;		None
  4044 ;; Return value:  Size  Location     Type
  4045 ;;		None               void
  4046 ;; Registers used:
  4047 ;;		wreg
  4048 ;; Tracked objects:
  4049 ;;		On entry : 60/0
  4050 ;;		On exit  : 60/20
  4051 ;;		Unchanged: FFF9F/0
  4052 ;; Data sizes:     COMMON   BANK0   BANK1   BANK3   BANK2
  4053 ;;      Params:         0       0       0       0       0
  4054 ;;      Locals:         0       0       0       0       0
  4055 ;;      Temps:          0       0       0       0       0
  4056 ;;      Totals:         0       0       0       0       0
  4057 ;;Total ram usage:        0 bytes
  4058 ;; Hardware stack levels used:    1
  4059 ;; Hardware stack levels required when called:    2
  4060 ;; This function calls:
  4061 ;;		Nothing
  4062 ;; This function is called by:
  4063 ;;		_main
  4064 ;; This function uses a non-reentrant model
  4065 ;;
  4066  0668                     _startTwentySecondsTimer:	
  4067                           
  4068                           ;common.c: 394: uiTwentySecondsTimer = 20;
  4069                           
  4070                           ; Regs used in _startTwentySecondsTimer: [wreg]
  4071  0668  3014               	movlw	20
  4072  0669  1683               	bsf	3,5	;RP0=1, select bank1
  4073  066A  00A4               	movwf	_uiTwentySecondsTimer^(0+128)
  4074  066B  01A5               	clrf	(_uiTwentySecondsTimer+1)^(0+128)
  4075  066C  0008               	return
  4076  066D                     __end_of_startTwentySecondsTimer:	
  4077                           
  4078                           	psect	text769
  4079  065C                     __ptext769:	
  4080 ;; =============== function _startTwentySecondsTimer ends ============
  4081                           
  4082                           
  4083 ;; *************** function _isFinishedTwelveHoursTimer *****************
  4084 ;; Defined at:
  4085 ;;		line 408 in file "D:\develop\190625\AK7030-OTP\common.c"
  4086 ;; Parameters:    Size  Location     Type
  4087 ;;		None
  4088 ;; Auto vars:     Size  Location     Type
  4089 ;;		None
  4090 ;; Return value:  Size  Location     Type
  4091 ;;                  1    wreg      unsigned char 
  4092 ;; Registers used:
  4093 ;;		wreg, status,2, status,0
  4094 ;; Tracked objects:
  4095 ;;		On entry : 60/0
  4096 ;;		On exit  : 60/20
  4097 ;;		Unchanged: FFF9F/0
  4098 ;; Data sizes:     COMMON   BANK0   BANK1   BANK3   BANK2
  4099 ;;      Params:         0       0       0       0       0
  4100 ;;      Locals:         0       0       0       0       0
  4101 ;;      Temps:          0       0       0       0       0
  4102 ;;      Totals:         0       0       0       0       0
  4103 ;;Total ram usage:        0 bytes
  4104 ;; Hardware stack levels used:    1
  4105 ;; Hardware stack levels required when called:    2
  4106 ;; This function calls:
  4107 ;;		Nothing
  4108 ;; This function is called by:
  4109 ;;		_main
  4110 ;; This function uses a non-reentrant model
  4111 ;;
  4112  065C                     _isFinishedTwelveHoursTimer:	
  4113                           
  4114                           ;common.c: 409: if(uiBigTimer == 0)
  4115                           
  4116                           ; Regs used in _isFinishedTwelveHoursTimer: [wreg+status,2+status,0]
  4117  065C  1683               	bsf	3,5	;RP0=1, select bank1
  4118  065D  0821               	movf	(_uiBigTimer+1)^(0+128),w
  4119  065E  0420               	iorwf	_uiBigTimer^(0+128),w
  4120  065F  1903               	btfsc	3,2
  4121                           
  4122                           ;common.c: 410: return 1;
  4123  0660  3401               	retlw	1
  4124                           
  4125                           ;common.c: 411: else
  4126                           ;common.c: 412: return 0;
  4127  0661  3400               	retlw	0
  4128  0662                     __end_of_isFinishedTwelveHoursTimer:	
  4129                           
  4130                           	psect	text770
  4131  0609                     __ptext770:	
  4132 ;; =============== function _isFinishedTwelveHoursTimer ends ============
  4133                           
  4134                           
  4135 ;; *************** function _startTwelveHourTimer *****************
  4136 ;; Defined at:
  4137 ;;		line 354 in file "D:\develop\190625\AK7030-OTP\common.c"
  4138 ;; Parameters:    Size  Location     Type
  4139 ;;  uiSetTime       2    0[BANK0 ] unsigned int 
  4140 ;; Auto vars:     Size  Location     Type
  4141 ;;		None
  4142 ;; Return value:  Size  Location     Type
  4143 ;;		None               void
  4144 ;; Registers used:
  4145 ;;		wreg, status,2, status,0
  4146 ;; Tracked objects:
  4147 ;;		On entry : 60/0
  4148 ;;		On exit  : 60/20
  4149 ;;		Unchanged: FFF9F/0
  4150 ;; Data sizes:     COMMON   BANK0   BANK1   BANK3   BANK2
  4151 ;;      Params:         0       2       0       0       0
  4152 ;;      Locals:         0       0       0       0       0
  4153 ;;      Temps:          0       0       0       0       0
  4154 ;;      Totals:         0       2       0       0       0
  4155 ;;Total ram usage:        2 bytes
  4156 ;; Hardware stack levels used:    1
  4157 ;; Hardware stack levels required when called:    2
  4158 ;; This function calls:
  4159 ;;		Nothing
  4160 ;; This function is called by:
  4161 ;;		_main
  4162 ;; This function uses a non-reentrant model
  4163 ;;
  4164  0609                     _startTwelveHourTimer:	
  4165                           
  4166                           ;common.c: 355: if(0 == uiBigTimer)
  4167                           
  4168                           ; Regs used in _startTwelveHourTimer: [wreg+status,2+status,0]
  4169  0609  1683               	bsf	3,5	;RP0=1, select bank1
  4170  060A  0821               	movf	(_uiBigTimer+1)^(0+128),w
  4171  060B  0420               	iorwf	_uiBigTimer^(0+128),w
  4172  060C  1D03               	skipz
  4173  060D  0008               	return
  4174                           
  4175                           ;common.c: 356: uiBigTimer = uiSetTime;
  4176  060E  1283               	bcf	3,5	;RP0=0, select bank0
  4177  060F  0821               	movf	startTwelveHourTimer@uiSetTime+1,w
  4178  0610  1683               	bsf	3,5	;RP0=1, select bank1
  4179  0611  00A1               	movwf	(_uiBigTimer+1)^(0+128)
  4180  0612  1283               	bcf	3,5	;RP0=0, select bank0
  4181  0613  0820               	movf	startTwelveHourTimer@uiSetTime,w
  4182  0614  1683               	bsf	3,5	;RP0=1, select bank1
  4183  0615  00A0               	movwf	_uiBigTimer^(0+128)
  4184  0616  0008               	return
  4185  0617                     __end_of_startTwelveHourTimer:	
  4186                           
  4187                           	psect	text771
  4188  0675                     __ptext771:	
  4189 ;; =============== function _startTwelveHourTimer ends ============
  4190                           
  4191                           
  4192 ;; *************** function _clrSampeTime *****************
  4193 ;; Defined at:
  4194 ;;		line 434 in file "D:\develop\190625\AK7030-OTP\common.c"
  4195 ;; Parameters:    Size  Location     Type
  4196 ;;		None
  4197 ;; Auto vars:     Size  Location     Type
  4198 ;;		None
  4199 ;; Return value:  Size  Location     Type
  4200 ;;		None               void
  4201 ;; Registers used:
  4202 ;;		status,2
  4203 ;; Tracked objects:
  4204 ;;		On entry : 60/20
  4205 ;;		On exit  : 60/20
  4206 ;;		Unchanged: FFF9F/0
  4207 ;; Data sizes:     COMMON   BANK0   BANK1   BANK3   BANK2
  4208 ;;      Params:         0       0       0       0       0
  4209 ;;      Locals:         0       0       0       0       0
  4210 ;;      Temps:          0       0       0       0       0
  4211 ;;      Totals:         0       0       0       0       0
  4212 ;;Total ram usage:        0 bytes
  4213 ;; Hardware stack levels used:    1
  4214 ;; Hardware stack levels required when called:    2
  4215 ;; This function calls:
  4216 ;;		Nothing
  4217 ;; This function is called by:
  4218 ;;		_main
  4219 ;; This function uses a non-reentrant model
  4220 ;;
  4221  0675                     _clrSampeTime:	
  4222                           
  4223                           ;common.c: 435: timer.timer10msStopWatch = 0;
  4224                           
  4225                           ; Regs used in _clrSampeTime: [status,2]
  4226  0675  01A8               	clrf	_timer^(0+128)
  4227  0676  0008               	return
  4228  0677                     __end_of_clrSampeTime:	
  4229                           
  4230                           	psect	text772
  4231  0662                     __ptext772:	
  4232 ;; =============== function _clrSampeTime ends ============
  4233                           
  4234                           
  4235 ;; *************** function _isPermitSampleTime *****************
  4236 ;; Defined at:
  4237 ;;		line 424 in file "D:\develop\190625\AK7030-OTP\common.c"
  4238 ;; Parameters:    Size  Location     Type
  4239 ;;		None
  4240 ;; Auto vars:     Size  Location     Type
  4241 ;;		None
  4242 ;; Return value:  Size  Location     Type
  4243 ;;                  1    wreg      unsigned char 
  4244 ;; Registers used:
  4245 ;;		wreg
  4246 ;; Tracked objects:
  4247 ;;		On entry : 40/0
  4248 ;;		On exit  : 60/20
  4249 ;;		Unchanged: FFF9F/0
  4250 ;; Data sizes:     COMMON   BANK0   BANK1   BANK3   BANK2
  4251 ;;      Params:         0       0       0       0       0
  4252 ;;      Locals:         0       0       0       0       0
  4253 ;;      Temps:          0       0       0       0       0
  4254 ;;      Totals:         0       0       0       0       0
  4255 ;;Total ram usage:        0 bytes
  4256 ;; Hardware stack levels used:    1
  4257 ;; Hardware stack levels required when called:    2
  4258 ;; This function calls:
  4259 ;;		Nothing
  4260 ;; This function is called by:
  4261 ;;		_main
  4262 ;; This function uses a non-reentrant model
  4263 ;;
  4264  0662                     _isPermitSampleTime:	
  4265                           
  4266                           ;common.c: 425: if(timer.timer10msStopWatch >= 10)
  4267                           
  4268                           ; Regs used in _isPermitSampleTime: [wreg]
  4269  0662  300A               	movlw	10
  4270  0663  1683               	bsf	3,5	;RP0=1, select bank1
  4271  0664  0228               	subwf	_timer^(0+128),w
  4272  0665  1803               	btfsc	3,0
  4273                           
  4274                           ;common.c: 426: {
  4275                           ;common.c: 427: return 1;
  4276  0666  3401               	retlw	1
  4277                           
  4278                           ;common.c: 429: else
  4279                           ;common.c: 430: return 0;
  4280  0667  3400               	retlw	0
  4281  0668                     __end_of_isPermitSampleTime:	
  4282                           
  4283                           	psect	text774
  4284  0640                     __ptext774:	
  4285 ;; =============== function _adc_start ends ============
  4286                           
  4287                           
  4288 ;; *************** function _op2_init *****************
  4289 ;; Defined at:
  4290 ;;		line 45 in file "D:\develop\190625\AK7030-OTP\periph.c"
  4291 ;; Parameters:    Size  Location     Type
  4292 ;;		None
  4293 ;; Auto vars:     Size  Location     Type
  4294 ;;		None
  4295 ;; Return value:  Size  Location     Type
  4296 ;;		None               void
  4297 ;; Registers used:
  4298 ;;		wreg
  4299 ;; Tracked objects:
  4300 ;;		On entry : 17F/20
  4301 ;;		On exit  : 17F/20
  4302 ;;		Unchanged: FFE80/0
  4303 ;; Data sizes:     COMMON   BANK0   BANK1   BANK3   BANK2
  4304 ;;      Params:         0       0       0       0       0
  4305 ;;      Locals:         0       0       0       0       0
  4306 ;;      Temps:          0       0       0       0       0
  4307 ;;      Totals:         0       0       0       0       0
  4308 ;;Total ram usage:        0 bytes
  4309 ;; Hardware stack levels used:    1
  4310 ;; Hardware stack levels required when called:    2
  4311 ;; This function calls:
  4312 ;;		Nothing
  4313 ;; This function is called by:
  4314 ;;		_main
  4315 ;; This function uses a non-reentrant model
  4316 ;;
  4317  0640                     _op2_init:	
  4318                           
  4319                           ;periph.c: 52: OP2CON1=0x10;
  4320                           
  4321                           ; Regs used in _op2_init: [wreg]
  4322  0640  3010               	movlw	16
  4323  0641  009C               	movwf	28	;volatile
  4324                           
  4325                           ;periph.c: 54: OP2CON2=0x10;
  4326  0642  009D               	movwf	29	;volatile
  4327                           
  4328                           ;periph.c: 55: OP2CON0=0x80;
  4329  0643  3080               	movlw	128
  4330  0644  009B               	movwf	27	;volatile
  4331                           
  4332                           ;periph.c: 58: TRISA7=0;
  4333  0645  1385               	bcf	5,7
  4334                           
  4335                           ;periph.c: 60: TRISB7 = 1;
  4336  0646  1786               	bsf	6,7
  4337  0647  0008               	return
  4338  0648                     __end_of_op2_init:	
  4339                           
  4340                           	psect	text775
  4341  0623                     __ptext775:	
  4342 ;; =============== function _op2_init ends ============
  4343                           
  4344                           
  4345 ;; *************** function _op1_init *****************
  4346 ;; Defined at:
  4347 ;;		line 26 in file "D:\develop\190625\AK7030-OTP\periph.c"
  4348 ;; Parameters:    Size  Location     Type
  4349 ;;		None
  4350 ;; Auto vars:     Size  Location     Type
  4351 ;;		None
  4352 ;; Return value:  Size  Location     Type
  4353 ;;		None               void
  4354 ;; Registers used:
  4355 ;;		wreg
  4356 ;; Tracked objects:
  4357 ;;		On entry : 17F/20
  4358 ;;		On exit  : 17F/20
  4359 ;;		Unchanged: FFE80/0
  4360 ;; Data sizes:     COMMON   BANK0   BANK1   BANK3   BANK2
  4361 ;;      Params:         0       0       0       0       0
  4362 ;;      Locals:         0       0       0       0       0
  4363 ;;      Temps:          0       0       0       0       0
  4364 ;;      Totals:         0       0       0       0       0
  4365 ;;Total ram usage:        0 bytes
  4366 ;; Hardware stack levels used:    1
  4367 ;; Hardware stack levels required when called:    2
  4368 ;; This function calls:
  4369 ;;		Nothing
  4370 ;; This function is called by:
  4371 ;;		_main
  4372 ;; This function uses a non-reentrant model
  4373 ;;
  4374  0623                     _op1_init:	
  4375                           
  4376                           ;periph.c: 33: OP1CON1=0x02;
  4377                           
  4378                           ; Regs used in _op1_init: [wreg]
  4379  0623  3002               	movlw	2
  4380  0624  1283               	bcf	3,5	;RP0=0, select bank0
  4381  0625  009C               	movwf	28	;volatile
  4382                           
  4383                           ;periph.c: 34: OP1CON2=0xA0;
  4384  0626  30A0               	movlw	160
  4385  0627  009D               	movwf	29	;volatile
  4386                           
  4387                           ;periph.c: 35: OP1CON0=0x80;
  4388  0628  3080               	movlw	128
  4389  0629  009B               	movwf	27	;volatile
  4390                           
  4391                           ;periph.c: 38: TRISB3=1;
  4392  062A  1683               	bsf	3,5	;RP0=1, select bank1
  4393  062B  1586               	bsf	6,3
  4394                           
  4395                           ;periph.c: 40: TRISB5=0;
  4396  062C  1286               	bcf	6,5
  4397  062D  0008               	return
  4398  062E                     __end_of_op1_init:	
  4399                           
  4400                           	psect	text776
  4401  066D                     __ptext776:	
  4402 ;; =============== function _op1_init ends ============
  4403                           
  4404                           
  4405 ;; *************** function _dac_init *****************
  4406 ;; Defined at:
  4407 ;;		line 14 in file "D:\develop\190625\AK7030-OTP\periph.c"
  4408 ;; Parameters:    Size  Location     Type
  4409 ;;		None
  4410 ;; Auto vars:     Size  Location     Type
  4411 ;;		None
  4412 ;; Return value:  Size  Location     Type
  4413 ;;		None               void
  4414 ;; Registers used:
  4415 ;;		wreg
  4416 ;; Tracked objects:
  4417 ;;		On entry : 17F/20
  4418 ;;		On exit  : 17F/20
  4419 ;;		Unchanged: FFE80/0
  4420 ;; Data sizes:     COMMON   BANK0   BANK1   BANK3   BANK2
  4421 ;;      Params:         0       0       0       0       0
  4422 ;;      Locals:         0       0       0       0       0
  4423 ;;      Temps:          0       0       0       0       0
  4424 ;;      Totals:         0       0       0       0       0
  4425 ;;Total ram usage:        0 bytes
  4426 ;; Hardware stack levels used:    1
  4427 ;; Hardware stack levels required when called:    2
  4428 ;; This function calls:
  4429 ;;		Nothing
  4430 ;; This function is called by:
  4431 ;;		_main
  4432 ;; This function uses a non-reentrant model
  4433 ;;
  4434  066D                     _dac_init:	
  4435                           
  4436                           ;periph.c: 15: DACCON|=1;
  4437                           
  4438                           ; Regs used in _dac_init: [wreg]
  4439  066D  1407               	bsf	7,0	;volatile
  4440                           
  4441                           ;periph.c: 17: DACR0=0x0F;
  4442  066E  300F               	movlw	15
  4443  066F  0088               	movwf	8	;volatile
  4444                           
  4445                           ;periph.c: 18: DACCON|=(1)<<2;
  4446  0670  1507               	bsf	7,2	;volatile
  4447  0671  0008               	return
  4448  0672                     __end_of_dac_init:	
  4449                           
  4450                           	psect	text778
  4451  0672                     __ptext778:	
  4452 ;; =============== function _adc_test_init ends ============
  4453                           
  4454                           
  4455 ;; *************** function _timer1_interrupt_config *****************
  4456 ;; Defined at:
  4457 ;;		line 192 in file "D:\develop\190625\AK7030-OTP\common.c"
  4458 ;; Parameters:    Size  Location     Type
  4459 ;;		None
  4460 ;; Auto vars:     Size  Location     Type
  4461 ;;		None
  4462 ;; Return value:  Size  Location     Type
  4463 ;;		None               void
  4464 ;; Registers used:
  4465 ;;		None
  4466 ;; Tracked objects:
  4467 ;;		On entry : 17F/20
  4468 ;;		On exit  : 17F/20
  4469 ;;		Unchanged: FFE80/0
  4470 ;; Data sizes:     COMMON   BANK0   BANK1   BANK3   BANK2
  4471 ;;      Params:         0       0       0       0       0
  4472 ;;      Locals:         0       0       0       0       0
  4473 ;;      Temps:          0       0       0       0       0
  4474 ;;      Totals:         0       0       0       0       0
  4475 ;;Total ram usage:        0 bytes
  4476 ;; Hardware stack levels used:    1
  4477 ;; Hardware stack levels required when called:    2
  4478 ;; This function calls:
  4479 ;;		Nothing
  4480 ;; This function is called by:
  4481 ;;		_main
  4482 ;; This function uses a non-reentrant model
  4483 ;;
  4484  0672                     _timer1_interrupt_config:	
  4485                           
  4486                           ;common.c: 193: GIE = 1;
  4487                           
  4488                           ; Regs used in _timer1_interrupt_config: []
  4489  0672  178B               	bsf	11,7
  4490                           
  4491                           ;common.c: 194: PEIE = 1;
  4492  0673  170B               	bsf	11,6
  4493  0674  0008               	return
  4494  0675                     __end_of_timer1_interrupt_config:	
  4495                           
  4496                           	psect	text779
  4497  062E                     __ptext779:	
  4498 ;; =============== function _timer1_interrupt_config ends ============
  4499                           
  4500                           
  4501 ;; *************** function _timer1_config *****************
  4502 ;; Defined at:
  4503 ;;		line 180 in file "D:\develop\190625\AK7030-OTP\common.c"
  4504 ;; Parameters:    Size  Location     Type
  4505 ;;		None
  4506 ;; Auto vars:     Size  Location     Type
  4507 ;;		None
  4508 ;; Return value:  Size  Location     Type
  4509 ;;		None               void
  4510 ;; Registers used:
  4511 ;;		wreg
  4512 ;; Tracked objects:
  4513 ;;		On entry : 17F/40
  4514 ;;		On exit  : 17F/20
  4515 ;;		Unchanged: FFE80/0
  4516 ;; Data sizes:     COMMON   BANK0   BANK1   BANK3   BANK2
  4517 ;;      Params:         0       0       0       0       0
  4518 ;;      Locals:         0       0       0       0       0
  4519 ;;      Temps:          0       0       0       0       0
  4520 ;;      Totals:         0       0       0       0       0
  4521 ;;Total ram usage:        0 bytes
  4522 ;; Hardware stack levels used:    1
  4523 ;; Hardware stack levels required when called:    2
  4524 ;; This function calls:
  4525 ;;		Nothing
  4526 ;; This function is called by:
  4527 ;;		_main
  4528 ;; This function uses a non-reentrant model
  4529 ;;
  4530  062E                     _timer1_config:	
  4531                           
  4532                           ;common.c: 182: TMR1H=0xCF;
  4533                           
  4534                           ; Regs used in _timer1_config: [wreg]
  4535  062E  30CF               	movlw	207
  4536  062F  1303               	bcf	3,6	;RP1=0, select bank0
  4537  0630  008F               	movwf	15	;volatile
  4538                           
  4539                           ;common.c: 183: TMR1L=0x2C;
  4540  0631  302C               	movlw	44
  4541  0632  008E               	movwf	14	;volatile
  4542                           
  4543                           ;common.c: 184: T1CON=0xE1;
  4544  0633  30E1               	movlw	225
  4545  0634  0090               	movwf	16	;volatile
  4546                           
  4547                           ;common.c: 185: TMR1IE=1;
  4548  0635  1683               	bsf	3,5	;RP0=1, select bank1
  4549  0636  140C               	bsf	12,0
  4550  0637  0008               	return
  4551  0638                     __end_of_timer1_config:	
  4552                           
  4553                           	psect	text780
  4554  0648                     __ptext780:	
  4555 ;; =============== function _timer1_config ends ============
  4556                           
  4557                           
  4558 ;; *************** function _clock_config *****************
  4559 ;; Defined at:
  4560 ;;		line 172 in file "D:\develop\190625\AK7030-OTP\common.c"
  4561 ;; Parameters:    Size  Location     Type
  4562 ;;		None
  4563 ;; Auto vars:     Size  Location     Type
  4564 ;;		None
  4565 ;; Return value:  Size  Location     Type
  4566 ;;		None               void
  4567 ;; Registers used:
  4568 ;;		wreg, status,2
  4569 ;; Tracked objects:
  4570 ;;		On entry : 17F/20
  4571 ;;		On exit  : 17F/40
  4572 ;;		Unchanged: FFE80/0
  4573 ;; Data sizes:     COMMON   BANK0   BANK1   BANK3   BANK2
  4574 ;;      Params:         0       0       0       0       0
  4575 ;;      Locals:         0       0       0       0       0
  4576 ;;      Temps:          0       0       0       0       0
  4577 ;;      Totals:         0       0       0       0       0
  4578 ;;Total ram usage:        0 bytes
  4579 ;; Hardware stack levels used:    1
  4580 ;; Hardware stack levels required when called:    2
  4581 ;; This function calls:
  4582 ;;		Nothing
  4583 ;; This function is called by:
  4584 ;;		_main
  4585 ;; This function uses a non-reentrant model
  4586 ;;
  4587  0648                     _clock_config:	
  4588                           
  4589                           ;common.c: 174: CLKPR = 0x80;
  4590                           
  4591                           ; Regs used in _clock_config: [wreg+status,2]
  4592  0648  3080               	movlw	128
  4593  0649  1283               	bcf	3,5	;RP0=0, select bank2
  4594  064A  1703               	bsf	3,6	;RP1=1, select bank2
  4595  064B  0088               	movwf	8	;volatile
  4596                           
  4597                           ;common.c: 175: CLKPR = 0x00;
  4598  064C  0188               	clrf	8	;volatile
  4599  064D                     l1681:	
  4600                           ;common.c: 176: while(CLKPCE);
  4601                           
  4602  064D  1F88               	btfss	8,7
  4603  064E  0008               	return
  4604  064F  2E4D               	goto	l1681
  4605  0650                     __end_of_clock_config:	
  4606                           
  4607                           	psect	text781
  4608  05CC                     __ptext781:	
  4609 ;; =============== function _clock_config ends ============
  4610                           
  4611                           
  4612 ;; *************** function _initPin *****************
  4613 ;; Defined at:
  4614 ;;		line 105 in file "D:\develop\190625\AK7030-OTP\main.c"
  4615 ;; Parameters:    Size  Location     Type
  4616 ;;		None
  4617 ;; Auto vars:     Size  Location     Type
  4618 ;;		None
  4619 ;; Return value:  Size  Location     Type
  4620 ;;		None               void
  4621 ;; Registers used:
  4622 ;;		None
  4623 ;; Tracked objects:
  4624 ;;		On entry : 160/20
  4625 ;;		On exit  : 160/60
  4626 ;;		Unchanged: FFE9F/0
  4627 ;; Data sizes:     COMMON   BANK0   BANK1   BANK3   BANK2
  4628 ;;      Params:         0       0       0       0       0
  4629 ;;      Locals:         0       0       0       0       0
  4630 ;;      Temps:          0       0       0       0       0
  4631 ;;      Totals:         0       0       0       0       0
  4632 ;;Total ram usage:        0 bytes
  4633 ;; Hardware stack levels used:    1
  4634 ;; Hardware stack levels required when called:    2
  4635 ;; This function calls:
  4636 ;;		Nothing
  4637 ;; This function is called by:
  4638 ;;		_main
  4639 ;; This function uses a non-reentrant model
  4640 ;;
  4641  05CC                     _initPin:	
  4642                           
  4643                           ;main.c: 106: PB6 = 1;
  4644                           
  4645                           ; Regs used in _initPin: []
  4646  05CC  1283               	bcf	3,5	;RP0=0, select bank0
  4647  05CD  1706               	bsf	6,6
  4648                           
  4649                           ;main.c: 107: PBOD6 = 1;
  4650  05CE  1683               	bsf	3,5	;RP0=1, select bank3
  4651  05CF  1703               	bsf	3,6	;RP1=1, select bank3
  4652  05D0  1708               	bsf	8,6
  4653                           
  4654                           ;main.c: 111: PA0 = 0;
  4655  05D1  1283               	bcf	3,5	;RP0=0, select bank0
  4656  05D2  1303               	bcf	3,6	;RP1=0, select bank0
  4657  05D3  1005               	bcf	5,0
  4658                           
  4659                           ;main.c: 112: PA1 = 0;
  4660  05D4  1085               	bcf	5,1
  4661                           
  4662                           ;main.c: 113: PA2 = 0;
  4663  05D5  1105               	bcf	5,2
  4664                           
  4665                           ;main.c: 114: PA3 = 0;
  4666  05D6  1185               	bcf	5,3
  4667                           
  4668                           ;main.c: 115: PB0 = 0;
  4669  05D7  1006               	bcf	6,0
  4670                           
  4671                           ;main.c: 116: PB1 = 1;
  4672  05D8  1486               	bsf	6,1
  4673                           
  4674                           ;main.c: 117: PA6 = 0;
  4675  05D9  1305               	bcf	5,6
  4676                           
  4677                           ;main.c: 118: PA7 = 0;
  4678  05DA  1385               	bcf	5,7
  4679                           
  4680                           ;main.c: 119: PAOD7 = 0;
  4681  05DB  1683               	bsf	3,5	;RP0=1, select bank3
  4682  05DC  1703               	bsf	3,6	;RP1=1, select bank3
  4683  05DD  1387               	bcf	7,7
  4684  05DE  0008               	return
  4685  05DF                     __end_of_initPin:	
  4686                           
  4687                           	psect	text785
  4688  038F                     __ptext785:	
  4689 ;; =============== function _clearTwelveHoursTimer ends ============
  4690                           
  4691                           
  4692 ;; *************** function _ISR *****************
  4693 ;; Defined at:
  4694 ;;		line 439 in file "D:\develop\190625\AK7030-OTP\common.c"
  4695 ;; Parameters:    Size  Location     Type
  4696 ;;		None
  4697 ;; Auto vars:     Size  Location     Type
  4698 ;;		None
  4699 ;; Return value:  Size  Location     Type
  4700 ;;		None               void
  4701 ;; Registers used:
  4702 ;;		wreg, fsr0l, fsr0h, status,2, status,0, btemp+1, pclath, cstack
  4703 ;; Tracked objects:
  4704 ;;		On entry : 0/0
  4705 ;;		On exit  : 60/0
  4706 ;;		Unchanged: FFE00/0
  4707 ;; Data sizes:     COMMON   BANK0   BANK1   BANK3   BANK2
  4708 ;;      Params:         0       0       0       0       0
  4709 ;;      Locals:         0       0       0       0       0
  4710 ;;      Temps:          4       0       0       0       0
  4711 ;;      Totals:         4       0       0       0       0
  4712 ;;Total ram usage:        4 bytes
  4713 ;; Hardware stack levels used:    1
  4714 ;; Hardware stack levels required when called:    1
  4715 ;; This function calls:
  4716 ;;		i1_setAD_ConvertFlag
  4717 ;;		_adc_get
  4718 ;;		_vPutSampleDataIntoTable
  4719 ;; This function is called by:
  4720 ;;		Interrupt level 1
  4721 ;; This function uses a non-reentrant model
  4722 ;;
  4723  038F                     _ISR:	
  4724                           
  4725                           ;common.c: 440: static unsigned char ucTimer1sCnt = 0;
  4726                           ;common.c: 442: if(TMR1IF == 1)
  4727  038F  1C0C               	btfss	12,0
  4728  0390  2BB8               	goto	i1l4166
  4729                           
  4730                           ;common.c: 443: {
  4731                           ;common.c: 444: TMR1IF = 0 ;
  4732  0391  100C               	bcf	12,0
  4733                           
  4734                           ;common.c: 445: timer.timer10msStopWatch++;
  4735  0392  1683               	bsf	3,5	;RP0=1, select bank1
  4736  0393  3064               	movlw	100
  4737  0394  0AA8               	incf	_timer^(0+128),f
  4738                           
  4739                           ;common.c: 446: ucTimer1sCnt++;
  4740  0395  0AA6               	incf	ISR@ucTimer1sCnt^(0+128),f
  4741                           
  4742                           ;common.c: 448: if(ucTimer1sCnt >= 100)
  4743  0396  0226               	subwf	ISR@ucTimer1sCnt^(0+128),w
  4744  0397  1C03               	skipc
  4745  0398  2BB8               	goto	i1l4166
  4746                           
  4747                           ;common.c: 449: {
  4748                           ;common.c: 450: ucTimer1sCnt = 0;
  4749  0399  01A6               	clrf	ISR@ucTimer1sCnt^(0+128)
  4750                           
  4751                           ;common.c: 451: if(uiBigTimer > 0)
  4752  039A  0821               	movf	(_uiBigTimer+1)^(0+128),w
  4753  039B  0420               	iorwf	_uiBigTimer^(0+128),w
  4754  039C  1903               	skipnz
  4755  039D  2BA4               	goto	i1l1777
  4756                           
  4757                           ;common.c: 452: uiBigTimer--;
  4758  039E  3001               	movlw	1
  4759  039F  02A0               	subwf	_uiBigTimer^(0+128),f
  4760  03A0  3000               	movlw	0
  4761  03A1  1C03               	skipc
  4762  03A2  03A1               	decf	(_uiBigTimer+1)^(0+128),f
  4763  03A3  02A1               	subwf	(_uiBigTimer+1)^(0+128),f
  4764  03A4                     i1l1777:	
  4765                           
  4766                           ;common.c: 454: if(uiSmallTimer)
  4767  03A4  0823               	movf	(_uiSmallTimer+1)^(0+128),w
  4768  03A5  0422               	iorwf	_uiSmallTimer^(0+128),w
  4769  03A6  1903               	skipnz
  4770  03A7  2BAE               	goto	i1l1778
  4771                           
  4772                           ;common.c: 455: uiSmallTimer--;
  4773  03A8  3001               	movlw	1
  4774  03A9  02A2               	subwf	_uiSmallTimer^(0+128),f
  4775  03AA  3000               	movlw	0
  4776  03AB  1C03               	skipc
  4777  03AC  03A3               	decf	(_uiSmallTimer+1)^(0+128),f
  4778  03AD  02A3               	subwf	(_uiSmallTimer+1)^(0+128),f
  4779  03AE                     i1l1778:	
  4780                           
  4781                           ;common.c: 457: if(uiTwentySecondsTimer)
  4782  03AE  0825               	movf	(_uiTwentySecondsTimer+1)^(0+128),w
  4783  03AF  0424               	iorwf	_uiTwentySecondsTimer^(0+128),w
  4784  03B0  1903               	skipnz
  4785  03B1  2BB8               	goto	i1l4166
  4786                           
  4787                           ;common.c: 458: uiTwentySecondsTimer--;
  4788  03B2  3001               	movlw	1
  4789  03B3  02A4               	subwf	_uiTwentySecondsTimer^(0+128),f
  4790  03B4  3000               	movlw	0
  4791  03B5  1C03               	skipc
  4792  03B6  03A5               	decf	(_uiTwentySecondsTimer+1)^(0+128),f
  4793  03B7  02A5               	subwf	(_uiTwentySecondsTimer+1)^(0+128),f
  4794  03B8                     i1l4166:	
  4795                           
  4796                           ;common.c: 459: }
  4797                           ;common.c: 460: }
  4798                           ;common.c: 462: if(ADIF)
  4799  03B8  1283               	bcf	3,5	;RP0=0, select bank0
  4800  03B9  1D0D               	btfss	13,2
  4801  03BA  2BE0               	goto	i1l1785
  4802  03BB  3001               	movlw	1
  4803                           
  4804                           ;common.c: 463: {
  4805                           ;common.c: 464: ADIF=0;
  4806  03BC  110D               	bcf	13,2
  4807                           
  4808                           ;common.c: 465: setAD_ConvertFlag(1);
  4809  03BD  245B  118A         	fcall	i1_setAD_ConvertFlag
  4810                           
  4811                           ;common.c: 467: if(sampleChannelSelect == 4)
  4812  03BF  1283               	bcf	3,5	;RP0=0, select bank0
  4813  03C0  086E               	movf	_sampleChannelSelect,w
  4814  03C1  3A04               	xorlw	4
  4815  03C2  1D03               	skipz
  4816  03C3  2BCC               	goto	i1l4176
  4817                           
  4818                           ;common.c: 468: {
  4819                           ;common.c: 471: vPutSampleDataIntoTable(adc_get(),4);
  4820  03C4  23ED  118A         	fcall	_adc_get
  4821  03C6  0871               	movf	?_adc_get+1,w
  4822  03C7  00F5               	movwf	?_vPutSampleDataIntoTable+1
  4823  03C8  0870               	movf	?_adc_get,w
  4824  03C9  00F4               	movwf	?_vPutSampleDataIntoTable
  4825  03CA  3004               	movlw	4
  4826  03CB  2BDE               	goto	L10
  4827  03CC                     i1l4176:	
  4828                           ;common.c: 475: }
  4829                           
  4830                           
  4831                           ;common.c: 476: else if(sampleChannelSelect == 1)
  4832  03CC  0B6E               	decfsz	_sampleChannelSelect,w
  4833  03CD  2BD7               	goto	i1l4180
  4834                           
  4835                           ;common.c: 477: {
  4836                           ;common.c: 479: vPutSampleDataIntoTable(adc_get(),1);
  4837  03CE  23ED  118A         	fcall	_adc_get
  4838  03D0  0871               	movf	?_adc_get+1,w
  4839  03D1  00F5               	movwf	?_vPutSampleDataIntoTable+1
  4840  03D2  0870               	movf	?_adc_get,w
  4841  03D3  00F4               	movwf	?_vPutSampleDataIntoTable
  4842  03D4  01F6               	clrf	?_vPutSampleDataIntoTable+2
  4843  03D5  0AF6               	incf	?_vPutSampleDataIntoTable+2,f
  4844  03D6  2BDF               	goto	L11
  4845  03D7                     i1l4180:	
  4846                           ;common.c: 484: }
  4847                           
  4848                           
  4849                           ;common.c: 485: else
  4850                           ;common.c: 486: {
  4851                           ;common.c: 490: vPutSampleDataIntoTable(adc_get(),14);
  4852  03D7  23ED  118A         	fcall	_adc_get
  4853  03D9  0871               	movf	?_adc_get+1,w
  4854  03DA  00F5               	movwf	?_vPutSampleDataIntoTable+1
  4855  03DB  0870               	movf	?_adc_get,w
  4856  03DC  00F4               	movwf	?_vPutSampleDataIntoTable
  4857  03DD  300E               	movlw	14
  4858  03DE                     L10:	
  4859  03DE  00F6               	movwf	?_vPutSampleDataIntoTable+2
  4860  03DF                     L11:	
  4861  03DF  23F8               	fcall	_vPutSampleDataIntoTable
  4862  03E0                     i1l1785:	
  4863  03E0  087C               	movf	??_ISR+3,w
  4864  03E1  1283               	bcf	3,5	;RP0=0, select bank0
  4865  03E2  1303               	bcf	3,6	;RP1=0, select bank0
  4866  03E3  00FF               	movwf	127
  4867  03E4  087B               	movf	??_ISR+2,w
  4868  03E5  008A               	movwf	10
  4869  03E6  087A               	movf	??_ISR+1,w
  4870  03E7  0084               	movwf	4
  4871  03E8  0E79               	swapf	??_ISR^(0+-128),w
  4872  03E9  0083               	movwf	3
  4873  03EA  0EFE               	swapf	126,f
  4874  03EB  0E7E               	swapf	126,w
  4875  03EC  0009               	retfie
  4876  03ED                     __end_of_ISR:	
  4877  03ED                     __ptext787:	
  4878 ;; =============== function i1_setAD_ConvertFlag ends ============
  4879                           
  4880                           
  4881 ;; *************** function _adc_get *****************
  4882 ;; Defined at:
  4883 ;;		line 105 in file "D:\develop\190625\AK7030-OTP\periph.c"
  4884 ;; Parameters:    Size  Location     Type
  4885 ;;		None
  4886 ;; Auto vars:     Size  Location     Type
  4887 ;;  val             2    2[COMMON] unsigned int 
  4888 ;; Return value:  Size  Location     Type
  4889 ;;                  2    0[COMMON] unsigned int 
  4890 ;; Registers used:
  4891 ;;		wreg
  4892 ;; Tracked objects:
  4893 ;;		On entry : 60/0
  4894 ;;		On exit  : 60/20
  4895 ;;		Unchanged: FFF9F/0
  4896 ;; Data sizes:     COMMON   BANK0   BANK1   BANK3   BANK2
  4897 ;;      Params:         2       0       0       0       0
  4898 ;;      Locals:         2       0       0       0       0
  4899 ;;      Temps:          0       0       0       0       0
  4900 ;;      Totals:         4       0       0       0       0
  4901 ;;Total ram usage:        4 bytes
  4902 ;; Hardware stack levels used:    1
  4903 ;; This function calls:
  4904 ;;		Nothing
  4905 ;; This function is called by:
  4906 ;;		_ISR
  4907 ;; This function uses a non-reentrant model
  4908 ;;
  4909  03ED                     _adc_get:	
  4910                           
  4911                           ;periph.c: 106: unsigned int val;
  4912                           ;periph.c: 107: val = (ADRESH<<8) | ADRESL;
  4913                           
  4914                           ; Regs used in _adc_get: [wreg]
  4915  03ED  081E               	movf	30,w	;volatile
  4916  03EE  00F3               	movwf	adc_get@val+1
  4917  03EF  01F2               	clrf	adc_get@val
  4918  03F0  1683               	bsf	3,5	;RP0=1, select bank1
  4919  03F1  081E               	movf	30,w	;volatile
  4920  03F2  04F2               	iorwf	adc_get@val,f
  4921                           
  4922                           ;periph.c: 108: return val;
  4923  03F3  0873               	movf	adc_get@val+1,w
  4924  03F4  00F1               	movwf	?_adc_get+1
  4925  03F5  0872               	movf	adc_get@val,w
  4926  03F6  00F0               	movwf	?_adc_get
  4927  03F7  0008               	return
  4928  03F8                     __end_of_adc_get:	
  4929  03F8                     __ptext788:	
  4930 ;; =============== function _adc_get ends ============
  4931                           
  4932                           
  4933 ;; *************** function _vPutSampleDataIntoTable *****************
  4934 ;; Defined at:
  4935 ;;		line 97 in file "D:\develop\190625\AK7030-OTP\common.c"
  4936 ;; Parameters:    Size  Location     Type
  4937 ;;  uiSampleData    2    4[COMMON] unsigned int 
  4938 ;;  channel         1    6[COMMON] unsigned char 
  4939 ;; Auto vars:     Size  Location     Type
  4940 ;;  i               2    7[COMMON] int 
  4941 ;; Return value:  Size  Location     Type
  4942 ;;		None               void
  4943 ;; Registers used:
  4944 ;;		wreg, fsr0l, fsr0h, status,2, status,0, btemp+1
  4945 ;; Tracked objects:
  4946 ;;		On entry : 60/20
  4947 ;;		On exit  : 0/0
  4948 ;;		Unchanged: FFE00/0
  4949 ;; Data sizes:     COMMON   BANK0   BANK1   BANK3   BANK2
  4950 ;;      Params:         3       0       0       0       0
  4951 ;;      Locals:         2       0       0       0       0
  4952 ;;      Temps:          0       0       0       0       0
  4953 ;;      Totals:         5       0       0       0       0
  4954 ;;Total ram usage:        5 bytes
  4955 ;; Hardware stack levels used:    1
  4956 ;; This function calls:
  4957 ;;		Nothing
  4958 ;; This function is called by:
  4959 ;;		_ISR
  4960 ;; This function uses a non-reentrant model
  4961 ;;
  4962  03F8                     _vPutSampleDataIntoTable:	
  4963                           
  4964                           ;common.c: 99: static unsigned char ucChannelFirstLength = 0;
  4965                           ;common.c: 101: static unsigned char ucChannelFourthLength = 0;
  4966                           ;common.c: 103: static unsigned char ucChannelFourteenthLength = 0;
  4967                           ;common.c: 105: if(channel == 1)
  4968                           
  4969                           ; Regs used in _vPutSampleDataIntoTable: [wreg-fsr0h+status,2+status,0+btemp+1]
  4970  03F8  0B76               	decfsz	vPutSampleDataIntoTable@channel,w
  4971  03F9  2C0A               	goto	i1l4084
  4972                           
  4973                           ;common.c: 106: {
  4974                           ;common.c: 107: if(ucChannelFirstLength < 12)
  4975  03FA  300C               	movlw	12
  4976  03FB  027D               	subwf	vPutSampleDataIntoTable@ucChannelFirstLength,w
  4977  03FC  1803               	skipnc
  4978  03FD  2C04               	goto	i1l4080
  4979                           
  4980                           ;common.c: 108: {
  4981                           ;common.c: 109: uiSampleChannelFirst[ucChannelFirstLength] = uiSampleData;
  4982  03FE  1003               	clrc
  4983  03FF  0D7D               	rlf	vPutSampleDataIntoTable@ucChannelFirstLength,w
  4984  0400  3EAC               	addlw	_uiSampleChannelFirst& (0+255)
  4985  0401  245F               	fcall	PL2	;call to abstracted procedure
  4986                           
  4987                           ;common.c: 111: ucChannelFirstLength++;
  4988  0402  0AFD               	incf	vPutSampleDataIntoTable@ucChannelFirstLength,f
  4989                           
  4990                           ;common.c: 112: }
  4991  0403  0008               	return
  4992  0404                     i1l4080:	
  4993                           
  4994                           ;common.c: 113: else
  4995                           ;common.c: 114: {
  4996                           ;common.c: 115: ucChannelFirstLength = 0;
  4997  0404  01FD               	clrf	vPutSampleDataIntoTable@ucChannelFirstLength
  4998                           
  4999                           ;common.c: 117: uiSampleChannelFirst[ucChannelFirstLength] = uiSampleData;
  5000  0405  1003               	clrc
  5001  0406  0D7D               	rlf	vPutSampleDataIntoTable@ucChannelFirstLength,w
  5002  0407  3EAC               	addlw	_uiSampleChannelFirst& (0+255)
  5003  0408  245F               	fcall	PL2	;call to abstracted procedure
  5004  0409  0008               	return
  5005  040A                     i1l4084:	
  5006                           
  5007                           ;common.c: 120: else if(channel == 4)
  5008  040A  0876               	movf	vPutSampleDataIntoTable@channel,w
  5009  040B  3A04               	xorlw	4
  5010  040C  1D03               	skipz
  5011  040D  2C1F               	goto	i1l4096
  5012                           
  5013                           ;common.c: 121: {
  5014                           ;common.c: 122: if(ucChannelFourthLength < 12)
  5015  040E  300C               	movlw	12
  5016  040F  1283               	bcf	3,5	;RP0=0, select bank0
  5017  0410  026D               	subwf	vPutSampleDataIntoTable@ucChannelFourthLength,w
  5018  0411  1803               	skipnc
  5019  0412  2C19               	goto	i1l4092
  5020                           
  5021                           ;common.c: 123: {
  5022                           ;common.c: 124: uiSampleChannelFourth[ucChannelFourthLength] = uiSampleData;
  5023  0413  1003               	clrc
  5024  0414  0D6D               	rlf	vPutSampleDataIntoTable@ucChannelFourthLength,w
  5025  0415  3EC4               	addlw	_uiSampleChannelFourth& (0+255)
  5026  0416  245F               	fcall	PL2	;call to abstracted procedure
  5027                           
  5028                           ;common.c: 126: ucChannelFourthLength++;
  5029  0417  0AED               	incf	vPutSampleDataIntoTable@ucChannelFourthLength,f
  5030                           
  5031                           ;common.c: 127: }
  5032  0418  0008               	return
  5033  0419                     i1l4092:	
  5034                           
  5035                           ;common.c: 128: else
  5036                           ;common.c: 129: {
  5037                           ;common.c: 130: ucChannelFourthLength = 0;
  5038  0419  01ED               	clrf	vPutSampleDataIntoTable@ucChannelFourthLength
  5039                           
  5040                           ;common.c: 132: uiSampleChannelFourth[ucChannelFourthLength] = uiSampleData;
  5041  041A  1003               	clrc
  5042  041B  0D6D               	rlf	vPutSampleDataIntoTable@ucChannelFourthLength,w
  5043  041C  3EC4               	addlw	_uiSampleChannelFourth& (0+255)
  5044  041D  245F               	fcall	PL2	;call to abstracted procedure
  5045  041E  0008               	return
  5046  041F                     i1l4096:	
  5047                           
  5048                           ;common.c: 135: else if(channel == 14)
  5049  041F  0876               	movf	vPutSampleDataIntoTable@channel,w
  5050  0420  3A0E               	xorlw	14
  5051  0421  1D03               	skipz
  5052  0422  2C3A               	goto	i1l4108
  5053                           
  5054                           ;common.c: 136: {
  5055                           ;common.c: 137: if(ucChannelFourteenthLength < 12)
  5056  0423  300C               	movlw	12
  5057  0424  1283               	bcf	3,5	;RP0=0, select bank0
  5058  0425  026C               	subwf	vPutSampleDataIntoTable@ucChannelFourteenthLength,w
  5059  0426  1803               	skipnc
  5060  0427  2C34               	goto	i1l4104
  5061                           
  5062                           ;common.c: 138: {
  5063                           ;common.c: 139: uiSampleChannelFourteenth[ucChannelFourteenthLength] = uiSampleData;
  5064  0428  1003               	clrc
  5065  0429  0D6C               	rlf	vPutSampleDataIntoTable@ucChannelFourteenthLength,w
  5066  042A  3E90               	addlw	_uiSampleChannelFourteenth& (0+255)
  5067  042B  0084               	movwf	4
  5068  042C  0874               	movf	vPutSampleDataIntoTable@uiSampleData,w
  5069  042D  1783               	bsf	3,7	;select IRP bank3
  5070  042E  0080               	movwf	0
  5071  042F  0A84               	incf	4,f
  5072  0430  0875               	movf	vPutSampleDataIntoTable@uiSampleData+1,w
  5073  0431  0080               	movwf	0
  5074                           
  5075                           ;common.c: 141: ucChannelFourteenthLength++;
  5076  0432  0AEC               	incf	vPutSampleDataIntoTable@ucChannelFourteenthLength,f
  5077                           
  5078                           ;common.c: 142: }
  5079  0433  0008               	return
  5080  0434                     i1l4104:	
  5081                           
  5082                           ;common.c: 143: else
  5083                           ;common.c: 144: {
  5084                           ;common.c: 145: ucChannelFourteenthLength = 0;
  5085  0434  01EC               	clrf	vPutSampleDataIntoTable@ucChannelFourteenthLength
  5086                           
  5087                           ;common.c: 147: uiSampleChannelFourth[ucChannelFourteenthLength] = uiSampleData;
  5088  0435  1003               	clrc
  5089  0436  0D6C               	rlf	vPutSampleDataIntoTable@ucChannelFourteenthLength,w
  5090  0437  3EC4               	addlw	_uiSampleChannelFourth& (0+255)
  5091  0438  245F               	fcall	PL2	;call to abstracted procedure
  5092  0439  0008               	return
  5093  043A                     i1l4108:	
  5094                           
  5095                           ;common.c: 150: else
  5096                           ;common.c: 151: {
  5097                           ;common.c: 152: ucChannelFirstLength = 0;
  5098  043A  01FD               	clrf	vPutSampleDataIntoTable@ucChannelFirstLength
  5099                           
  5100                           ;common.c: 154: ucChannelFourthLength = 0;
  5101  043B  1283               	bcf	3,5	;RP0=0, select bank0
  5102  043C  01ED               	clrf	vPutSampleDataIntoTable@ucChannelFourthLength
  5103                           
  5104                           ;common.c: 156: ucChannelFourteenthLength = 0;
  5105  043D  01EC               	clrf	vPutSampleDataIntoTable@ucChannelFourteenthLength
  5106                           
  5107                           ;common.c: 158: for(int i = 0;i < 12; i++)
  5108  043E  01F7               	clrf	vPutSampleDataIntoTable@i
  5109  043F  01F8               	clrf	vPutSampleDataIntoTable@i+1
  5110  0440                     i1l4114:	
  5111                           
  5112                           ;common.c: 159: {
  5113                           ;common.c: 160: uiSampleChannelFirst[i] = 0;
  5114  0440  1003               	clrc
  5115  0441  0D77               	rlf	vPutSampleDataIntoTable@i,w
  5116  0442  3EAC               	addlw	_uiSampleChannelFirst& (0+255)
  5117  0443  0084               	movwf	4
  5118  0444  1383               	bcf	3,7	;select IRP bank1
  5119  0445  0180               	clrf	0
  5120                           
  5121                           ;common.c: 162: uiSampleChannelFourth[i] = 0;
  5122  0446  2467  118A         	fcall	PL4	;call to abstracted procedure
  5123                           
  5124                           ;common.c: 164: uiSampleChannelFourth[i] = 0;
  5125  0448  2467  118A         	fcall	PL4	;call to abstracted procedure
  5126  044A  0A84               	incf	4,f
  5127  044B  0180               	clrf	0
  5128  044C  0AF7               	incf	vPutSampleDataIntoTable@i,f
  5129  044D  1903               	skipnz
  5130  044E  0AF8               	incf	vPutSampleDataIntoTable@i+1,f
  5131  044F  0878               	movf	vPutSampleDataIntoTable@i+1,w
  5132  0450  3A80               	xorlw	128
  5133  0451  00FF               	movwf	127
  5134  0452  3080               	movlw	128
  5135  0453  027F               	subwf	127,w
  5136  0454  1D03               	skipz
  5137  0455  2C58               	goto	u120_25
  5138  0456  300C               	movlw	12
  5139  0457  0277               	subwf	vPutSampleDataIntoTable@i,w
  5140  0458                     u120_25:	
  5141  0458  1803               	btfsc	3,0
  5142  0459  0008               	return
  5143  045A  2C40               	goto	i1l4114
  5144  045B                     __end_of_vPutSampleDataIntoTable:	
  5145  045B                     __ptext786:	
  5146 ;; =============== function _ISR ends ============
  5147                           
  5148                           
  5149 ;; *************** function i1_setAD_ConvertFlag *****************
  5150 ;; Defined at:
  5151 ;;		line 206 in file "D:\develop\190625\AK7030-OTP\common.c"
  5152 ;; Parameters:    Size  Location     Type
  5153 ;;  setAD_Conver    1    wreg     unsigned char 
  5154 ;; Auto vars:     Size  Location     Type
  5155 ;;  setAD_Conver    1    0[COMMON] unsigned char 
  5156 ;; Return value:  Size  Location     Type
  5157 ;;		None               void
  5158 ;; Registers used:
  5159 ;;		wreg
  5160 ;; Tracked objects:
  5161 ;;		On entry : 60/0
  5162 ;;		On exit  : 60/20
  5163 ;;		Unchanged: FFF9F/0
  5164 ;; Data sizes:     COMMON   BANK0   BANK1   BANK3   BANK2
  5165 ;;      Params:         0       0       0       0       0
  5166 ;;      Locals:         1       0       0       0       0
  5167 ;;      Temps:          0       0       0       0       0
  5168 ;;      Totals:         1       0       0       0       0
  5169 ;;Total ram usage:        1 bytes
  5170 ;; Hardware stack levels used:    1
  5171 ;; This function calls:
  5172 ;;		Nothing
  5173 ;; This function is called by:
  5174 ;;		_ISR
  5175 ;; This function uses a non-reentrant model
  5176 ;;
  5177  045B                     i1_setAD_ConvertFlag:	
  5178                           
  5179                           ; Regs used in i1_setAD_ConvertFlag: [wreg]
  5180                           ;i1setAD_ConvertFlag@flag stored from wreg
  5181  045B  00F0               	movwf	i1setAD_ConvertFlag@flag
  5182                           
  5183                           ;common.c: 207: adc_convert_flag = flag;
  5184  045C  1683               	bsf	3,5	;RP0=1, select bank1
  5185  045D  00A7               	movwf	_adc_convert_flag^(0+128)
  5186  045E  0008               	return
  5187  045F                     __end_ofi1_setAD_ConvertFlag:	
  5188  045F                     PL2:	
  5189  045F  0084               	movwf	4
  5190  0460  0874               	movf	vPutSampleDataIntoTable@uiSampleData,w
  5191  0461  1383               	bcf	3,7	;select IRP bank1
  5192  0462  0080               	movwf	0
  5193  0463  0A84               	incf	4,f
  5194  0464  0875               	movf	vPutSampleDataIntoTable@uiSampleData+1,w
  5195  0465  0080               	movwf	0
  5196  0466  0008               	return
  5197  0467                     PL4:	
  5198  0467  0A84               	incf	4,f
  5199  0468  0180               	clrf	0
  5200  0469  1003               	clrc
  5201  046A  0D77               	rlf	vPutSampleDataIntoTable@i,w
  5202  046B  3EC4               	addlw	_uiSampleChannelFourth& (0+255)
  5203  046C  0084               	movwf	4
  5204  046D  0180               	clrf	0
  5205  046E  0008               	return
  5206                           
  5207                           	psect	intentry
  5208  0004                     __pintentry:	
  5209                           ; Regs used in _ISR: [wreg-fsr0h+status,2+status,0+btemp+1+pclath+cstack]
  5210                           
  5211  0004                     interrupt_function:	
  5212  007E                     saved_w	set	btemp
  5213  0004  00FE               	movwf	btemp
  5214  0005  0E03               	swapf	3,w
  5215  0006  00F9               	movwf	??_ISR
  5216  0007  0804               	movf	4,w
  5217  0008  00FA               	movwf	??_ISR+1
  5218  0009  080A               	movf	10,w
  5219  000A  00FB               	movwf	??_ISR+2
  5220  000B  1283               	bcf	3,5	;RP0=0, select bank0
  5221  000C  1303               	bcf	3,6	;RP1=0, select bank0
  5222  000D  087F               	movf	btemp+1,w
  5223  000E  00FC               	movwf	??_ISR+3
  5224  000F  118A  2B8F         	ljmp	_ISR
  5225                           
  5226                           	psect	text789
  5227  0000                     __ptext789:	
  5228 ;; =============== function _vPutSampleDataIntoTable ends ============
  5229                           
  5230  007E                     btemp	set	126	;btemp
  5231  007E                     wtemp0	set	126


HI-TECH Software PICC Macro Assembler V9.83 build 10920 
Symbol Table                                                                                   Fri Jun 28 13:26:06 2019

                                  ??_clock_config 0020                                                 pc 0002  
                                              _GO 00F9                                                fsr 0004  
                        ?_timer1_interrupt_config 0070                                               l710 0062  
                                             l718 007B                                               l680 0000  
                                             l930 02A0                                               l850 01BF  
                                             l826 018C                                               l683 0000  
                                             l771 0117                                               l756 0115  
                                             l677 0000                                               l871 01F1  
                                             l980 0365                                               l965 031C  
                                             l799 0153                                               _PA0 0028  
                                             _PA1 0029                                               _GIE 005F  
                                             _PB0 0030                                               _PA2 002A  
                                             _PB1 0031                                               _PA3 002B  
                                             _PA6 002E                                               _PA7 002F  
                                             _PB6 0036                                               _ISR 038F  
                                             fsr0 0004                                               indf 0000  
                          ??_startThreeHoursTimer 0022                                              S5030 0617  
                                            S5026 05DF                                              S5028 05ED  
                                            ?_ISR 0070                                __size_of_AD_Sample 001E  
                          ?_getAdOriginalCh1Value 0046                                              l4010 0000  
                                            l2430 0000                                              l2422 0000  
                                            l4006 0000                                              l4030 0000  
                                            l4022 0000                                              l1702 0000  
                                            l2416 0000                                              l4032 0000  
                                            l4120 0000                                              l4200 0000  
                                            l1705 0000                                              l4050 04BD  
                                            l4042 04BC                                              l4034 0000  
                                            l4130 0000                                              l4202 0552  
                                            l4210 0000                                              l2419 0000  
                                            l1740 0000                                              l2436 0000  
                                            l4052 04FF                                              l4028 0494  
                                            l4124 0000                                              l4140 0577  
                                            l4220 0000                                              l4300 0000  
                                            l1734 0000                                              l4062 0000  
                                            l4054 0000                                              l4142 057A  
                                            l4134 0000                                              l4126 0000  
                                            l4206 0000                                              l4214 0000  
                                            l4310 00AC                                              l4302 009B  
                                            l4230 0000                                              l4222 0000  
                                            l1655 0000                                              l4064 0000  
                                            l4048 04FD                                              l4144 0000  
                                            l4400 0135                                              l4320 00BC  
                                            l4240 0000                                              l4232 0000  
                                            l4224 0000                                              l1737 0000  
                                            l1681 064D                                              l1690 0000  
                                            l1770 0000                                              l4138 0573  
                                            l4218 0000                                              l4410 013F  
                                            l4322 00C0                                              l4314 0000  
                                            l4242 0000                                              l4234 0000  
                                            l4226 0000                                              l1747 0000  
                                            l1684 0000                                              l4068 0000  
                                            l4420 0147                                              l4412 0000  
                                            l4340 00E2                                              l4324 0000  
                                            l4308 00AB                                              l4316 00B4  
                                            l4252 004E                                              l4244 0040  
                                            l4236 0000                                              l4228 0000  
                                            l1693 0000                                              l4190 0000  
                                            l4422 0154                                              l4414 0144  
                                            l4334 0000                                              l4326 0000  
                                            l4270 0071                                              l4262 0000  
                                            l4246 0000                                              l4238 0000  
                                            l1687 0000                                              l1696 0000  
                                            l4432 015D                                              l4424 0156  
                                            l4360 011A                                              l4352 0107  
                                            l4344 00EE                                              l4336 00DB  
                                            l4328 00CC                                              l4272 0000  
                                            l4264 0063                                              l4256 005A  
                                            l4248 0000                                              l4194 0000  
                                            l4530 0000                                              l4434 015F  
                                            l4370 0123                                              l4338 00DE  
                                            l4290 0000                                              l4282 0082  
                                            l4258 005B                                              l1699 0000  
                                            l4188 05A3                                              l4700 0000  
                                            l4620 021A                                              l4540 01C2  
                                            l4508 019F                                              l4444 0165  
                                            l4428 015B                                              l4380 0129  
                                            l4364 011F                                              l4356 0113  
                                            l4348 00FB                                              l4292 0092  
                                            l4284 0000                                              l4276 0000  
                                            l4268 0000                                              l4198 054C  
                                            l4710 0000                                              l4702 0000  
                                            l4630 0238                                              l4622 022B  
                                            l4606 0206                                              l4550 01CB  
                                            l4542 01C4                                              l4518 01A5  
                                            l4454 016B                                              l4390 012F  
                                            l4358 0118                                              l4294 0000  
                                            l4286 0085                                              l4278 0000  
                                            l3920 0000                                              l4800 0000  
                                            l4720 02CA                                              l4712 0000  
                                            l4704 02B6                                              l4640 0249  
                                            l4616 020C                                              l4608 0000  
                                            l4552 01CD                                              l4528 01AD  
                                            l4464 0171                                              l4368 0121  
                                            l4296 0094                                              l3914 0000  
                                            l3922 0000                                              l3930 0000  
                                            l4730 02D9                                              l4714 02C1  
                                            l4650 0258                                              l4634 0000  
                                            l4562 01D3                                              l4546 01C9  
                                            l4538 01B3                                              l4474 017A  
                                            l3916 0000                                              l3924 0000  
                                            l3940 0000                                              l3932 0000  
                                            l4804 0366                                              l4740 0000  
                                            l4724 0000                                              l4708 02BC  
                                            l4660 0000                                              l4644 0000  
                                            l4636 0243                                              l4628 0000  
                                            l4572 01DA                                              l4492 0195  
                                            l4484 0180                                              l4476 0000  
                                            l3918 05B0                                              l3926 0000  
                                            l3934 0000                                              l3942 0000  
                                            l3950 0000                                              l4750 0000  
                                            l4742 0000                                              l4734 0000  
                                            l4726 02D7                                              l4718 0000  
                                            l4670 0278                                              l4662 0263  
                                            l4646 0256                                              l4590 01FC  
                                            l4582 01E0                                              l4574 0000  
                                            l4486 018E                                              l3928 0000  
                                            l3936 0000                                              l3944 0000  
                                            l3952 0000                                              l3960 0594  
                                            l4760 0305                                              l4752 02FD  
                                            l4736 0000                                              l4744 02EC  
                                            l4728 0000                                              l4680 0000  
                                            l4664 0000                                              l4648 0000  
                                            l4584 01F5                                              l4496 0197  
                                            l4488 0190                                              l4808 0372  
                                            l3938 0000                                              l3946 0000  
                                            l3954 0000                                              l3962 0000  
                                            l4770 0311                                              l4754 0000  
                                            l4738 0000                                              l4690 0000  
                                            l4682 0288                                              l4674 027E  
                                            l4666 026C                                              l4658 025E  
                                            l4594 01FE                                              l4586 01F7  
                                            l4498 0199                                              l3948 0000  
                                            l3956 0000                                              l3980 0000  
                                            l4772 032E                                              l4764 0000  
                                            l4756 02FF                                              l4692 0000  
                                            l4684 0000                                              l4596 0200  
                                            l3958 0000                                              l3974 0000  
                                            l4790 0354                                              l4782 0000  
                                            l4766 0000                                              l4694 0000  
                                            l4678 0000                                              _ADIE 046A  
                                            l3976 0000                                              l3992 0000  
                                            l4784 0345                                              l4776 033B  
                                            l4696 0000                                              l4688 028E  
                                            _ADIF 006A                                              l3994 0000  
                                            l4794 0000                                              l4778 033D  
                                            l4698 0000                                              l4796 0000  
                                            l4788 0352                                              l4798 0000  
                                            _ADON 00F8                     startTwelveHourTimer@uiSetTime 0020  
                                            u1105 04DE                                              u1115 04CA  
                                            u1095 04B7                                              _PEIE 005E  
                                            _main 0013                                              btemp 007E  
                         _clearTwentySecondsTimer 05B0                                              start 0011  
                         ?_getAdOriginalCh14Value 0046                                 main@ucTimerDelay1 0057  
                               main@ucTimerDelay2 0058                                 main@ucTimerDelay3 0059  
                               main@ucTimerDelay4 005A                                             ??_ISR 0079  
                      __end_of_isPermitSampleTime 0668                               _sampleChannelSelect 006E  
                          ??_getAdOriginaCh4Value 0048                                             ?_main 0070  
                                           _DACR0 0088                                             _CLKPR 0108  
                                           _T1CON 0010                                   __end_of_adc_get 03F8  
                                           _PAOD7 0C3F                                             _PBOD6 0C46  
                                           _TMR1H 000F                                             _TMR1L 000E  
                           setAD_ConvertFlag@flag 0020                           _vPutSampleDataIntoTable 03F8  
                                 __end_of_initPin 05DF                                             _timer 00A8  
                                           pclath 000A                                             status 0003  
                                           wtemp0 007E                    __end_of_getAdOriginalCh14Value 048D  
                   __size_of_startTwelveHourTimer 000E                              __end_of_clrSampeTime 0677  
                           __end_of_clearAllTimer 05A8                                      __end_of_main 038F  
                          __size_of_adc_test_init 0015                                 __end_of_AD_Sample 057F  
                              main@ucTimerSeond1s 0067                                            ??_main 0048  
                            _clearPinPortAndTimer 0597                                            _ADCON0 001F  
                                          _ADCON1 009F                              __end_of_clock_config 0650  
                                          _DACCON 0087                                            _ADRESH 001E  
                                          _ADRESL 009E                                            _CLKPCE 0847  
                                          u120_25 0458                                            i1l4102 0000  
                                          i1l4104 0434                                            i1l4114 0440  
                                          i1l4106 0000                                            i1l4116 0000  
                                          i1l4108 043A                                            i1l4118 0000  
                                          i1l2439 0000                                            i1l4080 0404  
                                          i1l4072 0000                                            i1l4152 0000  
                                          i1l4090 0000                                            i1l4082 0000  
                                          i1l4074 0000                                            i1l4170 0000  
                                          i1l4154 0000                                            i1l4092 0419  
                                          i1l4084 040A                                            i1l4180 03D7  
                                          i1l4172 0000                                            i1l4148 0000  
                                          i1l4094 0000                                            i1l4078 0000  
                                          i1l4182 0000                                            i1l4158 0000  
                                          i1l4166 03B8                                            i1l4096 041F  
                                          i1l1696 0000                                            i1l4176 03CC  
                                          i1l1785 03E0                                            i1l1777 03A4  
                                          i1l4186 0000                                            i1l4178 0000  
                                          i1l1778 03AE                                  __end_of_dac_init 0672  
                       ??_clearTwentySecondsTimer 0020                                            _TMR1IE 0460  
                                          _TMR1IF 0060                                 _getAD_ConvertFlag 0558  
                               _setAD_ConvertFlag 055C                                            _TRISA0 0428  
                                          _TRISA1 0429                                            _TRISB0 0430  
                                          _TRISA2 042A                                            _TRISB1 0431  
                                          _TRISA3 042B                                            _TRISB2 0432  
                                          _TRISB3 0433                                            _TRISB4 0434  
                                          _TRISA6 042E                                            _TRISB5 0435  
                                          _TRISA7 042F                                            _TRISB6 0436  
                                          _TRISB7 0437                                     main@ucTimer1s 0053  
                              ?_getAD_ConvertFlag 0070                                            _Filter 048D  
                              ?_setAD_ConvertFlag 0070                                  __end_of_op1_init 062E  
                                __end_of_op2_init 0648                       ??_isFinishedThreeHoursTimer 0020  
                   __size_of_clearThreeHoursTimer 0004                                         ??_adc_get 0072  
                             ??_getAD_ConvertFlag 0020                               ??_setAD_ConvertFlag 0020  
                                          clrloop 0639                                  Filter@filter_buf 0026  
                                Filter@filter_sum 0040                                         ??_initPin 0020  
                       ??_vPutSampleDataIntoTable 0077                             ?_clearPinPortAndTimer 0070  
                                          saved_w 007E                           ??_clearTwelveHoursTimer 0020  
                     ?_process_AD_Converter_Value 0070                                     _adc_test_init 057F  
                __size_of_startTwentySecondsTimer 0005                         __end_of_getAD_ConvertFlag 055C  
                       __end_of_setAD_ConvertFlag 0561                                __size_of_adc_start 0003  
                             main@ucTimerDelayP5s 005B                                    __pcstackCOMMON 0070  
                                    __pidataBANK0 0000                   __end_of_clearTwentySecondsTimer 05B3  
                            _uiSampleChannelFirst 00AC                    vPutSampleDataIntoTable@channel 0076  
                             main@ucTimerRightP5s 0066                         _isFinishedThreeHoursTimer 0650  
                         ??_getAdOriginalCh1Value 0048                             __end_of_timer1_config 0638  
                                  ?_adc_test_init 0020       vPutSampleDataIntoTable@ucChannelFirstLength 007D  
                __size_of_timer1_interrupt_config 0003                             __size_of_clrSampeTime 0002  
                                      __pbssBANK0 0048                                        __pbssBANK1 00A0  
                                      __pbssBANK3 0190                      __size_ofi1_setAD_ConvertFlag 0004  
                                      adc_get@val 0072                   __end_of_vPutSampleDataIntoTable 045B  
                                         ?_Filter 0020                                        __pmaintext 0013  
                                      __pintentry 0004                               main@enumInteralStep 00AA  
                                       ?_dac_init 0070                            ??_clearPinPortAndTimer 0020  
                           __size_of_clock_config 0008                                           _OP1CON0 001B  
                                         _OP1CON1 001C                                           _OP1CON2 001D  
                                         _OP2CON0 009B                                           _OP2CON1 009C  
                                         _OP2CON2 009D                                      _clrSampeTime 0675  
                               __end_of_adc_start 0597                              _uiTwentySecondsTimer 00A4  
                                       ?_op1_init 0070                                         ?_op2_init 0070  
                              _isPermitSampleTime 0662                                           Filter@i 0045  
                                         Filter@j 0044                     __size_of_startThreeHoursTimer 000E  
                      __size_of_getAD_ConvertFlag 0004                        __size_of_setAD_ConvertFlag 0005  
                                  main@ucTimer20s 0054                                    main@ucTimerP3s 00AB  
                                  main@ucTimerP5s 0063                               ?_isPermitSampleTime 0070  
                                 __size_of_Filter 0097                                        _uiBigTimer 00A0  
                                    _clock_config 0648                                           _adc_get 03ED  
            __end_of_isFinishedTwentySecondsTimer 065C             __size_of_isFinishedTwentySecondsTimer 0006  
                    _isFinishedTwentySecondsTimer 0656                              ??_isPermitSampleTime 0020  
                    __end_of_startTwelveHourTimer 0617                                        ??_dac_init 0020  
                                       _AD_Sample 0561                                      __size_of_ISR 005E  
                                         _initPin 05CC                     __size_of_getAdOriginaCh4Value 0009  
                                 ??_adc_test_init 0021                                        ??_op1_init 0020  
                                      ??_op2_init 0020                           _startTwentySecondsTimer 0668  
                            end_of_initialization 05C9                                 Filter@filter_temp 003E  
                                main@ucLoaderStep 004E                                        ?_AD_Sample 0070  
                   ?_isFinishedTwentySecondsTimer 0070                              main@enumMainLoopStep 004B  
                              main@ucChannel4Type 004D                      ??_isFinishedTwelveHoursTimer 0020  
                                       Filter@cir 0042                                  _adc_convert_flag 00A7  
                          __size_of_clearAllTimer 0005                      __end_of_clearThreeHoursTimer 05B0  
                          main@ucTimerADC1ZeroP5s 0055                    __size_of_clearTwelveHoursTimer 0004  
                         _timer1_interrupt_config 0672                     __end_of_clearTwelveHoursTimer 05AC  
                        main@ucTimerForDACR0_CNT1 005C                          main@ucTimerForDACR0_CNT2 005E  
              __size_of_isFinishedThreeHoursTimer 0006                                  main@ucTimerX1P5s 0068  
                                main@ucTimerX2P5s 0069                            main@ucTimerZeroPoint3s 006A  
                          main@ucTimerZeroPoint5s 006B                                  main@ucTimerDelay 0056  
                                  __end_of_Filter 0524                                   main@ucADC4_Step 004C  
             __size_of_isFinishedTwelveHoursTimer 0006                          vPutSampleDataIntoTable@i 0077  
                             i1_setAD_ConvertFlag 045B                         ??_startTwentySecondsTimer 0020  
                             start_initialization 05B3                                       __end_of_ISR 03ED  
                            main@ucTimerLessX1P5s 0061                              main@ucTimerLessX2P5s 0062  
                           _uiSampleChannelFourth 00C4                          ?_clearTwentySecondsTimer 0070  
                  __size_of_getAdOriginalCh1Value 000A                     __end_of_getAdOriginalCh1Value 0482  
                        ??_getAdOriginalCh14Value 0048                              ?i1_setAD_ConvertFlag 0070  
                            _startTwelveHourTimer 0609                 __end_of_isFinishedThreeHoursTimer 0656  
                              main@enumBranchStep 004A                                          ??_Filter 0022  
                                   _clearAllTimer 05A3                                       __pdataBANK0 006E  
                        ?_vPutSampleDataIntoTable 0074                                       ??_AD_Sample 0020  
                       ??_timer1_interrupt_config 0020                                       __pbssCOMMON 007D  
                               __size_of_dac_init 0005                                     __pcstackBANK0 0020  
                  ??_isFinishedTwentySecondsTimer 0020                                         _adc_start 0594  
                               __size_of_op1_init 000B                                 __size_of_op2_init 0008  
                           ??i1_setAD_ConvertFlag 0070                             ?_startTwelveHourTimer 0020  
                 __end_of_startTwentySecondsTimer 066D                                    ?_clearAllTimer 0070  
                          __size_of_timer1_config 000A                              _clearThreeHoursTimer 05AC  
                    __end_of_startThreeHoursTimer 0609                                         __ptext760 05A3  
                                       __ptext761 0561                                         __ptext770 0609  
                                       __ptext762 055C                                         __ptext771 0675  
                                       __ptext763 0558                                         __ptext755 0597  
                                       __ptext780 0648                                         __ptext772 0662  
                                       __ptext764 048D                                         __ptext756 046F  
                                       __ptext781 05CC                                         __ptext773 0594  
                                       __ptext765 0650                                         __ptext757 0478  
                                       __ptext782 05B0                                         __ptext774 0640  
                                       __ptext766 05FB                                         __ptext758 0482  
                                       __ptext783 05AC                                         __ptext775 0623  
                                       __ptext767 0656                                         __ptext759 053A  
                                       __ptext784 05A8                                         __ptext776 066D  
                                       __ptext768 0668                                         __ptext785 038F  
                                       __ptext777 057F                                         __ptext769 065C  
                                       __ptext786 045B                                         __ptext778 0672  
                                       __ptext787 03ED                                         __ptext779 062E  
                                       __ptext788 03F8                                         __ptext789 0000  
                                        ?_adc_get 0070                                         __pswtext1 05DF  
                                       __pswtext2 05ED                                         __pswtext3 0617  
              __end_of_isFinishedTwelveHoursTimer 0662                        _isFinishedTwelveHoursTimer 065C  
                                 ISR@ucTimer1sCnt 00A6                                          ?_initPin 0070  
                   __size_of_clearPinPortAndTimer 000C                         _uiSampleChannelFourteenth 0190  
                                      ?_adc_start 0070                   __size_of_getAdOriginalCh14Value 000B  
                               interrupt_function 0004                      __end_of_getAdOriginaCh4Value 0478  
                 __end_of_timer1_interrupt_config 0675                            main@ucTimerPA6DelayP1s 0064  
                      main@ucTimerLessADC1ZeroP5s 0060                            main@ucTimerPB6DelayP1s 0065  
                           ?_clearThreeHoursTimer 0070                              adc_test_init@channel 0022  
             vPutSampleDataIntoTable@uiSampleData 0074      vPutSampleDataIntoTable@ucChannelFourthLength 006D  
                     __size_of_isPermitSampleTime 0006                                      _uiSmallTimer 00A2  
                           __end_of_adc_test_init 0594                                     _timer1_config 062E  
                    ??_process_AD_Converter_Value 0023                            ??_startTwelveHourTimer 0022  
                                 ??_clearAllTimer 0020                            _getAdOriginalCh14Value 0482  
                                __size_of_adc_get 000B               __size_of_process_AD_Converter_Value 001E  
                                        _dac_init 066D  vPutSampleDataIntoTable@ucChannelFourteenthLength 006C  
                      main@ucTimerForDACR0_CNT1_f 005D                        main@ucTimerForDACR0_CNT2_f 005F  
                                __size_of_initPin 0013                                  main@cTimer1s_824 00A9  
                                  Filter@tmpValue 0020                                    ?_timer1_config 0070  
                                        _op1_init 0623                                          _op2_init 0640  
                                     ??_adc_start 0020                              _startThreeHoursTimer 05FB  
                           _clearTwelveHoursTimer 05A8                                     __size_of_main 037C  
                                        clear_ram 0638                            ??_clearThreeHoursTimer 0020  
                __size_of_clearTwentySecondsTimer 0003                                     ?_clrSampeTime 0070  
                            _getAdOriginaCh4Value 046F                                       _sampleTimes 0048  
                           ?_startThreeHoursTimer 0020                  __size_of_vPutSampleDataIntoTable 0063  
                                        intlevel1 0000                             _getAdOriginalCh1Value 0478  
                      ?_isFinishedThreeHoursTimer 0070                                 main@ucLoaderStep1 004F  
                               main@ucLoaderStep2 0050                                 main@ucLoaderStep3 0051  
                               main@ucLoaderStep4 0052                                     ?_clock_config 0070  
                        ?_startTwentySecondsTimer 0070                     startThreeHoursTimer@uiSetTime 0020  
                         i1setAD_ConvertFlag@flag 0070                                    ??_clrSampeTime 0020  
                     ?_isFinishedTwelveHoursTimer 0070                             ?_getAdOriginaCh4Value 0046  
                                 ??_timer1_config 0020                                 main@bCheckTweHour 0049  
                     __end_ofi1_setAD_ConvertFlag 045F                __end_of_process_AD_Converter_Value 0558  
                      _process_AD_Converter_Value 053A                            ?_clearTwelveHoursTimer 0070  
                                adc_test_init@ref 0020                      __end_of_clearPinPortAndTimer 05A3  
