

HI-TECH Software PIC PRO Macro Assembler V9.83 build 10920 
                                                                                               Thu Nov 22 21:00:05 2018

HI-TECH Software Omniscient Code Generator (PRO mode) build 10920
     1                           	processor	16C77
     2                           	opt	pw 120
     3                           	opt	pm
     4                           	psect	config,global,class=CONFIG,delta=2
     5                           	psect	text61,local,class=CODE,delta=2
     6                           	psect	cinit,global,class=CODE,delta=2
     7                           	psect	cstackCOMMON,global,class=COMMON,space=1,delta=1
     8                           	psect	maintext,global,class=CODE,delta=2
     9                           	psect	text62,local,class=CODE,delta=2
    10                           	psect	text63,local,class=CODE,delta=2
    11                           	psect	text64,local,class=CODE,delta=2
    12                           	psect	text65,local,class=CODE,delta=2
    13                           	psect	text66,local,class=CODE,delta=2
    14                           	psect	pa_nodes,global,class=CODE,delta=2
    15                           	dabs	1,0x7E,2
    16  000A                     	;#
    17                           
    18                           	psect	config
    19  2000  2FCB               	dw	12235	;#
    20  2001  3FAE               	dw	16302	;#
    21  2002  3FF8               	dw	16376	;#
    22                           
    23                           	psect	text61
    24  0000                     __ptext61:	
    25  001B                     _OP1CON0	set	27
    26  001C                     _OP1CON1	set	28
    27  001D                     _OP1CON2	set	29
    28  0030                     _PB0	set	48
    29  0087                     _DACCON	set	135
    30  0088                     _DACR0	set	136
    31  0089                     _DACR1	set	137
    32  009B                     _OP2CON0	set	155
    33  009C                     _OP2CON1	set	156
    34  009D                     _OP2CON2	set	157
    35  042F                     _TRISA7	set	1071
    36  0430                     _TRISB0	set	1072
    37  0433                     _TRISB3	set	1075
    38  0434                     _TRISB4	set	1076
    39  0435                     _TRISB5	set	1077
    40  0436                     _TRISB6	set	1078
    41  0108                     _CLKPR	set	264
    42                           
    43                           	psect	cinit
    44  07BF                     start_initialization:	
    45  07BF                     end_of_initialization:	
    46                           ;End of C runtime variable initialization code
    47                           
    48  07BF  0183               	clrf	3
    49  07C0  118A  2FDF         	ljmp	_main	;jump to C main() function
    50                           
    51                           	psect	cstackCOMMON
    52  0070                     __pcstackCOMMON:	
    53  0070                     ?_dac_init:	
    54  0070                     ??_dac_init:	
    55                           ; 0 bytes @ 0x0
    56                           
    57  0070                     ?_op1_init:	
    58                           ; 0 bytes @ 0x0
    59                           
    60  0070                     ??_op1_init:	
    61                           ; 0 bytes @ 0x0
    62                           
    63  0070                     ?_op2_init:	
    64                           ; 0 bytes @ 0x0
    65                           
    66  0070                     ??_op2_init:	
    67                           ; 0 bytes @ 0x0
    68                           
    69  0070                     ?_clock_config:	
    70                           ; 0 bytes @ 0x0
    71                           
    72  0070                     ??_clock_config:	
    73                           ; 0 bytes @ 0x0
    74                           
    75  0070                     ?_main:	
    76                           ; 0 bytes @ 0x0
    77                           
    78  0070                     ??_main:	
    79                           ; 0 bytes @ 0x0
    80                           
    81                           
    82                           ; 0 bytes @ 0x0
    83  0070                     	ds	2
    84                           
    85                           	psect	maintext
    86  07DF                     __pmaintext:	
    87 ;;Data sizes: Strings 0, constant 0, data 0, bss 0, persistent 0 stack 0
    88 ;;Auto spaces:   Size  Autos    Used
    89 ;; COMMON          14      2       2
    90 ;; BANK0           80      0       0
    91 ;; BANK1           80      0       0
    92 ;; BANK3           96      0       0
    93 ;; BANK2           96      0       0
    94 ;;
    95 ;; Pointer list with targets:
    96 ;;
    97 ;; Critical Paths under _main in COMMON
    98 ;;
    99 ;;   None.
   100 ;;
   101 ;; Critical Paths under _main in BANK0
   102 ;;
   103 ;;   None.
   104 ;;
   105 ;; Critical Paths under _main in BANK1
   106 ;;
   107 ;;   None.
   108 ;;
   109 ;; Critical Paths under _main in BANK3
   110 ;;
   111 ;;   None.
   112 ;;
   113 ;; Critical Paths under _main in BANK2
   114 ;;
   115 ;;   None.
   116 ;;
   117 ;;Main: autosize = 0, tempsize = 2, incstack = 0, save=0
   118 ;;
   119 ;;
   120 ;;Call Graph Tables:
   121 ;;
   122 ;; ---------------------------------------------------------------------------------
   123 ;; (Depth) Function   	        Calls       Base Space   Used Autos Params    Refs
   124 ;; ---------------------------------------------------------------------------------
   125 ;; (0) _main                                                 2     2      0       0
   126 ;;                                              0 COMMON     2     2      0
   127 ;;                       _clock_config
   128 ;;                           _dac_init
   129 ;;                           _op1_init
   130 ;;                           _op2_init
   131 ;; ---------------------------------------------------------------------------------
   132 ;; (1) _op2_init                                             0     0      0       0
   133 ;; ---------------------------------------------------------------------------------
   134 ;; (1) _op1_init                                             0     0      0       0
   135 ;; ---------------------------------------------------------------------------------
   136 ;; (1) _dac_init                                             0     0      0       0
   137 ;; ---------------------------------------------------------------------------------
   138 ;; (1) _clock_config                                         0     0      0       0
   139 ;; ---------------------------------------------------------------------------------
   140 ;; Estimated maximum stack depth 1
   141 ;; ---------------------------------------------------------------------------------
   142 ;; Call Graph Graphs:
   143 ;; _main (ROOT)
   144 ;;   _clock_config
   145 ;;   _dac_init
   146 ;;   _op1_init
   147 ;;   _op2_init
   148 ;;
   149 ;; Address spaces:
   150 ;;Name               Size   Autos  Total    Cost      Usage
   151 ;;BITCOMMON            E      0       0       0        0.0%
   152 ;;NULL                 0      0       0       0        0.0%
   153 ;;CODE                 0      0       0       0        0.0%
   154 ;;COMMON               E      2       2       1       14.3%
   155 ;;BITSFR0              0      0       0       1        0.0%
   156 ;;SFR0                 0      0       0       1        0.0%
   157 ;;BITSFR1              0      0       0       2        0.0%
   158 ;;SFR1                 0      0       0       2        0.0%
   159 ;;STACK                0      0       1       2        0.0%
   160 ;;ABS                  0      0       0       3        0.0%
   161 ;;BITBANK0            50      0       0       4        0.0%
   162 ;;BITSFR3              0      0       0       4        0.0%
   163 ;;SFR3                 0      0       0       4        0.0%
   164 ;;BANK0               50      0       0       5        0.0%
   165 ;;BITSFR2              0      0       0       5        0.0%
   166 ;;SFR2                 0      0       0       5        0.0%
   167 ;;DATA                 0      0       0       6        0.0%
   168 ;;BITBANK1            50      0       0       7        0.0%
   169 ;;BANK1               50      0       0       8        0.0%
   170 ;;BITBANK3            60      0       0       9        0.0%
   171 ;;BANK3               60      0       0      10        0.0%
   172 ;;BITBANK2            60      0       0      11        0.0%
   173 ;;BANK2               60      0       0      12        0.0%
   174                           
   175                           
   176 ;; *************** function _main *****************
   177 ;; Defined at:
   178 ;;		line 80 in file "C:\dev\DAC_OP_Test V1.1\src\main.c"
   179 ;; Parameters:    Size  Location     Type
   180 ;;		None
   181 ;; Auto vars:     Size  Location     Type
   182 ;;		None
   183 ;; Return value:  Size  Location     Type
   184 ;;		None               void
   185 ;; Registers used:
   186 ;;		wreg, status,2, status,0, pclath, cstack
   187 ;; Tracked objects:
   188 ;;		On entry : 17F/0
   189 ;;		On exit  : 0/0
   190 ;;		Unchanged: 0/0
   191 ;; Data sizes:     COMMON   BANK0   BANK1   BANK3   BANK2
   192 ;;      Params:         0       0       0       0       0
   193 ;;      Locals:         0       0       0       0       0
   194 ;;      Temps:          2       0       0       0       0
   195 ;;      Totals:         2       0       0       0       0
   196 ;;Total ram usage:        2 bytes
   197 ;; Hardware stack levels required when called:    1
   198 ;; This function calls:
   199 ;;		_clock_config
   200 ;;		_dac_init
   201 ;;		_op1_init
   202 ;;		_op2_init
   203 ;; This function is called by:
   204 ;;		Startup code after reset
   205 ;; This function uses a non-reentrant model
   206 ;;
   207  07DF                     _main:	
   208                           
   209                           ;main.c: 81: clock_config();
   210                           
   211                           ; Regs used in _main: [wreg+status,2+status,0+pclath+cstack]
   212  07DF  118A  27C2  118A   	fcall	_clock_config
   213                           
   214                           ;main.c: 84: TRISB3=1;
   215  07E2  1683               	bsf	3,5	;RP0=1, select bank1
   216  07E3  1303               	bcf	3,6	;RP1=0, select bank1
   217  07E4  1586               	bsf	6,3
   218                           
   219                           ;main.c: 85: TRISB4=1;
   220  07E5  1606               	bsf	6,4
   221                           
   222                           ;main.c: 86: TRISB5=0;
   223  07E6  1286               	bcf	6,5
   224                           
   225                           ;main.c: 89: TRISA7=0;
   226  07E7  1385               	bcf	5,7
   227                           
   228                           ;main.c: 90: TRISB6=1;
   229  07E8  1706               	bsf	6,6
   230                           
   231                           ;main.c: 93: TRISB0=0;
   232  07E9  1006               	bcf	6,0
   233                           
   234                           ;main.c: 95: dac_init();
   235  07EA  118A  27C7  118A   	fcall	_dac_init
   236                           
   237                           ;main.c: 96: op1_init();
   238  07ED  118A  27CF  118A   	fcall	_op1_init
   239                           
   240                           ;main.c: 97: op2_init();
   241  07F0  118A  27D7  118A   	fcall	_op2_init
   242  07F3                     l2298:	
   243                           
   244                           ;main.c: 100: {
   245                           ;main.c: 101: PB0=~PB0;
   246  07F3  3001               	movlw	1
   247  07F4  1283               	bcf	3,5	;RP0=0, select bank0
   248  07F5  1303               	bcf	3,6	;RP1=0, select bank0
   249  07F6  0686               	xorwf	6,f
   250                           
   251                           ;main.c: 102: _delay((unsigned long)((1000)*(20000000/4000000.0)));
   252  07F7  3007               	movlw	7
   253  07F8  00F1               	movwf	??_main+1
   254  07F9  307D               	movlw	125
   255  07FA  00F0               	movwf	??_main
   256  07FB                     u17:	
   257  07FB  0BF0               	decfsz	??_main,f
   258  07FC  2FFB               	goto	u17
   259  07FD  0BF1               	decfsz	??_main+1,f
   260  07FE  2FFB               	goto	u17
   261  07FF  2FF3               	goto	l2298
   262  0800                     __end_of_main:	
   263                           
   264                           	psect	text62
   265  07D7                     __ptext62:	
   266 ;; =============== function _main ends ============
   267                           
   268                           
   269 ;; *************** function _op2_init *****************
   270 ;; Defined at:
   271 ;;		line 40 in file "C:\dev\DAC_OP_Test V1.1\src\periph.c"
   272 ;; Parameters:    Size  Location     Type
   273 ;;		None
   274 ;; Auto vars:     Size  Location     Type
   275 ;;		None
   276 ;; Return value:  Size  Location     Type
   277 ;;		None               void
   278 ;; Registers used:
   279 ;;		wreg
   280 ;; Tracked objects:
   281 ;;		On entry : 17F/0
   282 ;;		On exit  : 17F/20
   283 ;;		Unchanged: FFE80/0
   284 ;; Data sizes:     COMMON   BANK0   BANK1   BANK3   BANK2
   285 ;;      Params:         0       0       0       0       0
   286 ;;      Locals:         0       0       0       0       0
   287 ;;      Temps:          0       0       0       0       0
   288 ;;      Totals:         0       0       0       0       0
   289 ;;Total ram usage:        0 bytes
   290 ;; Hardware stack levels used:    1
   291 ;; This function calls:
   292 ;;		Nothing
   293 ;; This function is called by:
   294 ;;		_main
   295 ;; This function uses a non-reentrant model
   296 ;;
   297  07D7                     _op2_init:	
   298                           
   299                           ;periph.c: 47: OP2CON1=0x03;
   300                           
   301                           ; Regs used in _op2_init: [wreg]
   302  07D7  3003               	movlw	3
   303  07D8  1683               	bsf	3,5	;RP0=1, select bank1
   304  07D9  009C               	movwf	28	;volatile
   305                           
   306                           ;periph.c: 49: OP2CON2=0xB0;
   307  07DA  30B0               	movlw	176
   308  07DB  009D               	movwf	29	;volatile
   309                           
   310                           ;periph.c: 50: OP2CON0=0x80;
   311  07DC  3080               	movlw	128
   312  07DD  009B               	movwf	27	;volatile
   313  07DE  0008               	return
   314  07DF                     __end_of_op2_init:	
   315                           
   316                           	psect	text63
   317  07CF                     __ptext63:	
   318 ;; =============== function _op2_init ends ============
   319                           
   320                           
   321 ;; *************** function _op1_init *****************
   322 ;; Defined at:
   323 ;;		line 26 in file "C:\dev\DAC_OP_Test V1.1\src\periph.c"
   324 ;; Parameters:    Size  Location     Type
   325 ;;		None
   326 ;; Auto vars:     Size  Location     Type
   327 ;;		None
   328 ;; Return value:  Size  Location     Type
   329 ;;		None               void
   330 ;; Registers used:
   331 ;;		wreg
   332 ;; Tracked objects:
   333 ;;		On entry : 17F/20
   334 ;;		On exit  : 17F/0
   335 ;;		Unchanged: FFE80/0
   336 ;; Data sizes:     COMMON   BANK0   BANK1   BANK3   BANK2
   337 ;;      Params:         0       0       0       0       0
   338 ;;      Locals:         0       0       0       0       0
   339 ;;      Temps:          0       0       0       0       0
   340 ;;      Totals:         0       0       0       0       0
   341 ;;Total ram usage:        0 bytes
   342 ;; Hardware stack levels used:    1
   343 ;; This function calls:
   344 ;;		Nothing
   345 ;; This function is called by:
   346 ;;		_main
   347 ;; This function uses a non-reentrant model
   348 ;;
   349  07CF                     _op1_init:	
   350                           
   351                           ;periph.c: 33: OP1CON1=0x02;
   352                           
   353                           ; Regs used in _op1_init: [wreg]
   354  07CF  3002               	movlw	2
   355  07D0  1283               	bcf	3,5	;RP0=0, select bank0
   356  07D1  009C               	movwf	28	;volatile
   357                           
   358                           ;periph.c: 34: OP1CON2=0xA0;
   359  07D2  30A0               	movlw	160
   360  07D3  009D               	movwf	29	;volatile
   361                           
   362                           ;periph.c: 35: OP1CON0=0x80;
   363  07D4  3080               	movlw	128
   364  07D5  009B               	movwf	27	;volatile
   365  07D6  0008               	return
   366  07D7                     __end_of_op1_init:	
   367                           
   368                           	psect	text64
   369  07C7                     __ptext64:	
   370 ;; =============== function _op1_init ends ============
   371                           
   372                           
   373 ;; *************** function _dac_init *****************
   374 ;; Defined at:
   375 ;;		line 14 in file "C:\dev\DAC_OP_Test V1.1\src\periph.c"
   376 ;; Parameters:    Size  Location     Type
   377 ;;		None
   378 ;; Auto vars:     Size  Location     Type
   379 ;;		None
   380 ;; Return value:  Size  Location     Type
   381 ;;		None               void
   382 ;; Registers used:
   383 ;;		wreg
   384 ;; Tracked objects:
   385 ;;		On entry : 17F/20
   386 ;;		On exit  : 17F/20
   387 ;;		Unchanged: FFE80/0
   388 ;; Data sizes:     COMMON   BANK0   BANK1   BANK3   BANK2
   389 ;;      Params:         0       0       0       0       0
   390 ;;      Locals:         0       0       0       0       0
   391 ;;      Temps:          0       0       0       0       0
   392 ;;      Totals:         0       0       0       0       0
   393 ;;Total ram usage:        0 bytes
   394 ;; Hardware stack levels used:    1
   395 ;; This function calls:
   396 ;;		Nothing
   397 ;; This function is called by:
   398 ;;		_main
   399 ;; This function uses a non-reentrant model
   400 ;;
   401  07C7                     _dac_init:	
   402                           
   403                           ;periph.c: 15: DACCON|=2;
   404                           
   405                           ; Regs used in _dac_init: [wreg]
   406  07C7  1487               	bsf	7,1	;volatile
   407                           
   408                           ;periph.c: 17: DACR0=0x19;
   409  07C8  3019               	movlw	25
   410  07C9  0088               	movwf	8	;volatile
   411                           
   412                           ;periph.c: 18: DACCON|=(1)<<2;
   413  07CA  1507               	bsf	7,2	;volatile
   414                           
   415                           ;periph.c: 20: DACR1=0x06;
   416  07CB  3006               	movlw	6
   417  07CC  0089               	movwf	9	;volatile
   418                           
   419                           ;periph.c: 21: DACCON|=(1)<<3;
   420  07CD  1587               	bsf	7,3	;volatile
   421  07CE  0008               	return
   422  07CF                     __end_of_dac_init:	
   423                           
   424                           	psect	text65
   425  07C2                     __ptext65:	
   426 ;; =============== function _dac_init ends ============
   427                           
   428                           
   429 ;; *************** function _clock_config *****************
   430 ;; Defined at:
   431 ;;		line 7 in file "C:\dev\DAC_OP_Test V1.1\src\common.c"
   432 ;; Parameters:    Size  Location     Type
   433 ;;		None
   434 ;; Auto vars:     Size  Location     Type
   435 ;;		None
   436 ;; Return value:  Size  Location     Type
   437 ;;		None               void
   438 ;; Registers used:
   439 ;;		wreg, status,2
   440 ;; Tracked objects:
   441 ;;		On entry : 17F/0
   442 ;;		On exit  : 17F/40
   443 ;;		Unchanged: FFE80/0
   444 ;; Data sizes:     COMMON   BANK0   BANK1   BANK3   BANK2
   445 ;;      Params:         0       0       0       0       0
   446 ;;      Locals:         0       0       0       0       0
   447 ;;      Temps:          0       0       0       0       0
   448 ;;      Totals:         0       0       0       0       0
   449 ;;Total ram usage:        0 bytes
   450 ;; Hardware stack levels used:    1
   451 ;; This function calls:
   452 ;;		Nothing
   453 ;; This function is called by:
   454 ;;		_main
   455 ;; This function uses a non-reentrant model
   456 ;;
   457  07C2                     _clock_config:	
   458                           
   459                           ;common.c: 9: CLKPR = 0x80;
   460                           
   461                           ; Regs used in _clock_config: [wreg+status,2]
   462  07C2  3080               	movlw	128
   463  07C3  1703               	bsf	3,6	;RP1=1, select bank2
   464  07C4  0088               	movwf	8	;volatile
   465                           
   466                           ;common.c: 10: CLKPR = 0x00;
   467  07C5  0188               	clrf	8	;volatile
   468  07C6  0008               	return
   469  07C7                     __end_of_clock_config:	
   470                           
   471                           	psect	text66
   472  0000                     __ptext66:	
   473 ;; =============== function _clock_config ends ============
   474                           
   475  007E                     btemp	set	126	;btemp
   476  007E                     wtemp0	set	126


HI-TECH Software PICC Macro Assembler V9.83 build 10920 
Symbol Table                                                                                   Thu Nov 22 21:00:05 2018

       ??_clock_config 0070                     u17 07FB                    l625 0000                    _PB0 0030  
                 l2300 0000                   l2270 0000                   l2272 0000                   l2280 0000  
                 l2274 0000                   l2282 0000                   l2290 0000                   l2268 0000  
                 l2276 0000                   l2292 0000                   l2284 0000                   l2278 0000  
                 l2294 0000                   l2286 0000                   l2296 0000                   l2288 0000  
                 l2298 07F3                   l1891 0000                   l1894 0000                   l1888 0000  
                 _main 07DF                   btemp 007E                   start 0000                  ?_main 0070  
                _DACR0 0088                  _DACR1 0089                  _CLKPR 0108                  status 0003  
                wtemp0 007E           __end_of_main 0800                 ??_main 0070   __end_of_clock_config 07C7  
               _DACCON 0087       __end_of_dac_init 07CF                 _TRISB0 0430                 _TRISB3 0433  
               _TRISB4 0434                 _TRISB5 0435                 _TRISA7 042F                 _TRISB6 0436  
     __end_of_op1_init 07D7       __end_of_op2_init 07DF         __pcstackCOMMON 0070             __pmaintext 07DF  
            ?_dac_init 0070  __size_of_clock_config 0005                _OP1CON0 001B                _OP1CON1 001C  
              _OP1CON2 001D                _OP2CON0 009B                _OP2CON1 009C                _OP2CON2 009D  
            ?_op1_init 0070              ?_op2_init 0070           _clock_config 07C2             ??_dac_init 0070  
           ??_op1_init 0070             ??_op2_init 0070   end_of_initialization 07BF    start_initialization 07BF  
    __size_of_dac_init 0008      __size_of_op1_init 0008      __size_of_op2_init 0008               _dac_init 07C7  
             _op1_init 07CF               _op2_init 07D7               __ptext61 0000               __ptext62 07D7  
             __ptext63 07CF               __ptext64 07C7               __ptext65 07C2               __ptext66 0000  
        __size_of_main 0021          ?_clock_config 0070  
