

HI-TECH Software PIC PRO Macro Assembler V9.83 build 10920 
                                                                                               Fri Feb 14 19:50:47 2020

HI-TECH Software Omniscient Code Generator (PRO mode) build 10920
     1                           	processor	16C77
     2                           	opt	pw 120
     3                           	opt	pm
     4                           	psect	config,global,class=CONFIG,delta=2
     5                           	psect	text986,local,class=CODE,delta=2
     6                           	psect	cinit,global,class=CODE,delta=2
     7                           	psect	bssCOMMON,global,class=COMMON,space=1,delta=1
     8                           	psect	bssBANK0,global,class=BANK0,space=1,delta=1
     9                           	psect	bssBANK1,global,class=BANK1,space=1,delta=1
    10                           	psect	bssBANK3,global,class=BANK3,space=1,delta=1
    11                           	psect	clrtext,global,class=CODE,delta=2
    12                           	psect	cstackCOMMON,global,class=COMMON,space=1,delta=1
    13                           	psect	cstackBANK0,global,class=BANK0,space=1,delta=1
    14                           	psect	maintext,global,class=CODE,delta=2
    15                           	psect	swtext1,local,class=CONST,delta=2
    16                           	psect	swtext2,local,class=CONST,delta=2
    17                           	psect	swtext3,local,class=CONST,delta=2
    18                           	psect	swtext4,local,class=CONST,delta=2
    19                           	psect	text988,local,class=CODE,delta=2
    20                           	psect	text994,local,class=CODE,delta=2
    21                           	psect	text1001,local,class=CODE,delta=2
    22                           	psect	text1002,local,class=CODE,delta=2
    23                           	psect	text1003,local,class=CODE,delta=2
    24                           	psect	text1004,local,class=CODE,delta=2
    25                           	psect	text1005,local,class=CODE,delta=2
    26                           	psect	text1006,local,class=CODE,delta=2
    27                           	psect	text1007,local,class=CODE,delta=2
    28                           	psect	text1008,local,class=CODE,delta=2
    29                           	psect	text1009,local,class=CODE,delta=2
    30                           	psect	text1010,local,class=CODE,delta=2
    31                           	psect	text1013,local,class=CODE,delta=2
    32                           	psect	text1014,local,class=CODE,delta=2
    33                           	psect	text1015,local,class=CODE,delta=2
    34                           	psect	text1017,local,class=CODE,delta=2
    35                           	psect	text1021,local,class=CODE,delta=2
    36                           	psect	text1027,local,class=CODE,delta=2
    37                           	psect	text1032,local,class=CODE,delta=2
    38                           	psect	intentry,global,class=CODE,delta=2
    39                           	psect	text1036,local,class=CODE,delta=2
    40                           	psect	pa_nodes,global,class=CODE,delta=2
    41                           	dabs	1,0x7E,2
    42  000A                     	;#
    43                           
    44                           	psect	config
    45  2000  2FFF               	dw	12287	;#
    46  2001  3FDE               	dw	16350	;#
    47  2002  3FF8               	dw	16376	;#
    48                           
    49                           	psect	text986
    50  0000                     __ptext986:	
    51  001F                     _ADCON0	set	31
    52  001E                     _ADRESH	set	30
    53  0010                     _T1CON	set	16
    54  000F                     _TMR1H	set	15
    55  000E                     _TMR1L	set	14
    56  006A                     _ADIF	set	106
    57  00F8                     _ADON	set	248
    58  005F                     _GIE	set	95
    59  00F9                     _GO	set	249
    60  0028                     _PA0	set	40
    61  0029                     _PA1	set	41
    62  002A                     _PA2	set	42
    63  002B                     _PA3	set	43
    64  002E                     _PA6	set	46
    65  0030                     _PB0	set	48
    66  0031                     _PB1	set	49
    67  0032                     _PB2	set	50
    68  0034                     _PB4	set	52
    69  0036                     _PB6	set	54
    70  0037                     _PB7	set	55
    71  005E                     _PEIE	set	94
    72  0060                     _TMR1IF	set	96
    73  009F                     _ADCON1	set	159
    74  009E                     _ADRESL	set	158
    75  046A                     _ADIE	set	1130
    76  0460                     _TMR1IE	set	1120
    77  0428                     _TRISA0	set	1064
    78  0429                     _TRISA1	set	1065
    79  042A                     _TRISA2	set	1066
    80  042B                     _TRISA3	set	1067
    81  042E                     _TRISA6	set	1070
    82  042F                     _TRISA7	set	1071
    83  0430                     _TRISB0	set	1072
    84  0431                     _TRISB1	set	1073
    85  0432                     _TRISB2	set	1074
    86  0433                     _TRISB3	set	1075
    87  0434                     _TRISB4	set	1076
    88  0435                     _TRISB5	set	1077
    89  0436                     _TRISB6	set	1078
    90  0437                     _TRISB7	set	1079
    91  0108                     _CLKPR	set	264
    92  0847                     _CLKPCE	set	2119
    93  0C47                     _PBOD7	set	3143
    94                           
    95                           	psect	cinit
    96  07E7                     start_initialization:	
    97  07E7  304A               	movlw	low __pbssBANK0
    98                           
    99                           ; Clear objects allocated to COMMON
   100  07E8  01FD               	clrf	__pbssCOMMON& (0+127)
   101                           
   102                           ; Clear objects allocated to BANK0
   103  07E9  1383               	bcf	3,7	;select IRP bank0
   104  07EA  0084               	movwf	4
   105  07EB  306F               	movlw	low (__pbssBANK0+37)
   106  07EC  158A  260C  118A   	fcall	clear_ram
   107                           
   108                           ; Clear objects allocated to BANK1
   109  07EF  30A0               	movlw	low __pbssBANK1
   110  07F0  0084               	movwf	4
   111  07F1  30E8               	movlw	low (__pbssBANK1+72)
   112  07F2  158A  260C  118A   	fcall	clear_ram
   113  07F5  3090               	movlw	low __pbssBANK3
   114                           
   115                           ; Clear objects allocated to BANK3
   116  07F6  1783               	bsf	3,7	;select IRP bank2
   117  07F7  0084               	movwf	4
   118  07F8  30D8               	movlw	low (__pbssBANK3+72)
   119  07F9  158A  260C         	fcall	clear_ram
   120  07FB                     end_of_initialization:	
   121                           ;End of C runtime variable initialization code
   122                           
   123  07FB  0183               	clrf	3
   124  07FC  118A  2813         	ljmp	_main	;jump to C main() function
   125                           
   126                           	psect	bssCOMMON
   127  007D                     __pbssCOMMON:	
   128  007D                     call_ADC4_STEP_FOURTH_PREFIX3@ucPrefix3Cnt:	
   129  007D                     	ds	1
   130                           
   131                           	psect	bssBANK0
   132  004A                     __pbssBANK0:	
   133  004A                     main@uiOldValue:	
   134  004A                     	ds	2
   135  004C                     _bBigTimerStartFlag:	
   136  004C                     	ds	1
   137  004D                     _bSmallTimerStartFlag:	
   138  004D                     	ds	1
   139  004E                     _bTwentyMinStartFlag:	
   140  004E                     	ds	1
   141  004F                     _bTwentySecStartFlag:	
   142  004F                     	ds	1
   143  0050                     _enumMainLoopStep:	
   144  0050                     	ds	1
   145  0051                     _sampleChannelSelect:	
   146  0051                     	ds	1
   147  0052                     _sampleTimes:	
   148  0052                     	ds	1
   149  0053                     _ucADC4_Step:	
   150  0053                     	ds	1
   151  0054                     _ucChannel5Type:	
   152  0054                     	ds	1
   153  0055                     main@bCheckTweHour:	
   154  0055                     	ds	1
   155  0056                     main@bInitFlag:	
   156  0056                     	ds	1
   157  0057                     main@ucLoaderStep:	
   158  0057                     	ds	1
   159  0058                     main@ucLoaderStep1:	
   160  0058                     	ds	1
   161  0059                     main@ucLoaderStep2:	
   162  0059                     	ds	1
   163  005A                     main@ucLoaderStep3:	
   164  005A                     	ds	1
   165  005B                     main@ucLoaderStep4:	
   166  005B                     	ds	1
   167  005C                     main@ucTimerCntMore:	
   168  005C                     	ds	1
   169  005D                     main@ucTimerCntP3s:	
   170  005D                     	ds	1
   171  005E                     main@ucTimerDelay:	
   172  005E                     	ds	1
   173  005F                     main@ucTimerDelay1:	
   174  005F                     	ds	1
   175  0060                     main@ucTimerDelay2:	
   176  0060                     	ds	1
   177  0061                     main@ucTimerDelay3:	
   178  0061                     	ds	1
   179  0062                     main@ucTimerDelay4:	
   180  0062                     	ds	1
   181  0063                     main@ucTimerDelayP2sLess:	
   182  0063                     	ds	1
   183  0064                     main@ucTimerDelayP2sMore:	
   184  0064                     	ds	1
   185  0065                     main@ucTimerLargeZeroP5s:	
   186  0065                     	ds	1
   187  0066                     main@ucTimerLessZeroP5s:	
   188  0066                     	ds	1
   189  0067                     main@ucTimerP5s:	
   190  0067                     	ds	1
   191  0068                     main@ucTimerRightP5s:	
   192  0068                     	ds	1
   193  0069                     main@ucTimerZeroPoint3s:	
   194  0069                     	ds	1
   195  006A                     main@ucTimerZeroPoint5s:	
   196  006A                     	ds	1
   197  006B                     vPutSampleDataIntoTable@ucChannelFifthLength:	
   198  006B                     	ds	1
   199  006C                     vPutSampleDataIntoTable@ucChannelSecondLength:	
   200  006C                     	ds	1
   201  006D                     vPutSampleDataIntoTable@ucChannelSixthLength:	
   202  006D                     	ds	1
   203  006E                     vPutSampleDataIntoTable@ucChannelZeroLength:	
   204  006E                     	ds	1
   205                           
   206                           	psect	bssBANK1
   207  00A0                     __pbssBANK1:	
   208  00A0                     _uiBigTimer:	
   209  00A0                     	ds	2
   210  00A2                     _uiSmallTimer:	
   211  00A2                     	ds	2
   212  00A4                     _uiTwentyMinuteTimer:	
   213  00A4                     	ds	2
   214  00A6                     _uiTwentySecondsTimer:	
   215  00A6                     	ds	2
   216  00A8                     main@uiMaxValue:	
   217  00A8                     	ds	2
   218  00AA                     main@uiMinValue:	
   219  00AA                     	ds	2
   220  00AC                     ISR@ucTimer1sCnt:	
   221  00AC                     	ds	1
   222  00AD                     _adc_convert_flag:	
   223  00AD                     	ds	1
   224  00AE                     _timer:	
   225  00AE                     	ds	1
   226  00AF                     call_ADC4_STEP_FOURTH_PREFIX2@ucCompareStep:	
   227  00AF                     	ds	1
   228  00B0                     call_ADC4_STEP_FOURTH_PREFIX2@ucLessThanP3sCnt:	
   229  00B0                     	ds	1
   230  00B1                     call_ADC4_STEP_FOURTH_PREFIX2@ucLessThanP8sCnt:	
   231  00B1                     	ds	1
   232  00B2                     call_ADC4_STEP_FOURTH_PREFIX2@ucMoreThanP3sCnt:	
   233  00B2                     	ds	1
   234  00B3                     call_ADC4_STEP_FOURTH_PREFIX2@ucMoreThanP8sCnt:	
   235  00B3                     	ds	1
   236  00B4                     call_ADC4_STEP_FOURTH_PREFIX2@ucPrefix2Step:	
   237  00B4                     	ds	1
   238  00B5                     call_ADC4_STEP_FOURTH_PREFIX2@ucTimeCntP2s:	
   239  00B5                     	ds	1
   240  00B6                     call_ADC4_STEP_FOURTH_PREFIX2@ucTimerCntLess:	
   241  00B6                     	ds	1
   242  00B7                     call_ADC4_STEP_FOURTH_PREFIX2@ucTimerCntMore:	
   243  00B7                     	ds	1
   244  00B8                     call_ADC4_STEP_FOURTH_PREFIX2@ucTimerCntN1:	
   245  00B8                     	ds	1
   246  00B9                     call_ADC4_STEP_FOURTH_PREFIX2@ucTimerCntP5s:	
   247  00B9                     	ds	1
   248  00BA                     call_ADC4_STEP_FOURTH_PREFIX3@ucPreFix3Step:	
   249  00BA                     	ds	1
   250  00BB                     main@enumBranchStep:	
   251  00BB                     	ds	1
   252  00BC                     main@enumInteralStep:	
   253  00BC                     	ds	1
   254  00BD                     main@ucDelayPrefix4TimerP5s:	
   255  00BD                     	ds	1
   256  00BE                     main@ucDelayPrefix6TimerP2s:	
   257  00BE                     	ds	1
   258  00BF                     main@ucFourthSuffix1TimerP3s:	
   259  00BF                     	ds	1
   260  00C0                     main@ucLessThanP3sCnt:	
   261  00C0                     	ds	1
   262  00C1                     main@ucLessThanP8sCnt:	
   263  00C1                     	ds	1
   264  00C2                     main@ucMoreThanP3sCnt:	
   265  00C2                     	ds	1
   266  00C3                     main@ucMoreThanP8sCnt:	
   267  00C3                     	ds	1
   268  00C4                     main@ucPrefix2Step:	
   269  00C4                     	ds	1
   270  00C5                     main@ucTimeCntP2s:	
   271  00C5                     	ds	1
   272  00C6                     main@ucTimer1s:	
   273  00C6                     	ds	1
   274  00C7                     main@ucTimerCntLess:	
   275  00C7                     	ds	1
   276  00C8                     main@ucTimerCntLessFlag:	
   277  00C8                     	ds	1
   278  00C9                     main@ucTimerCntMoreFlag:	
   279  00C9                     	ds	1
   280  00CA                     main@ucTimerCntP5s:	
   281  00CA                     	ds	1
   282  00CB                     main@ucTimerLessX1P5s:	
   283  00CB                     	ds	1
   284  00CC                     main@ucTimerLessX2P5s:	
   285  00CC                     	ds	1
   286  00CD                     main@ucTimerP3s:	
   287  00CD                     	ds	1
   288  00CE                     main@ucTimerX1P5s:	
   289  00CE                     	ds	1
   290  00CF                     main@ucTimerX2P5s:	
   291  00CF                     	ds	1
   292  00D0                     _uiSampleChannelSecond:	
   293  00D0                     	ds	24
   294                           
   295                           	psect	bssBANK3
   296  0190                     __pbssBANK3:	
   297  0190                     _uiSampleChannelFifth:	
   298  0190                     	ds	24
   299  01A8                     _uiSampleChannelSixth:	
   300  01A8                     	ds	24
   301  01C0                     _uiSampleChannelZero:	
   302  01C0                     	ds	24
   303                           
   304                           	psect	clrtext
   305  0E0C                     clear_ram:	
   306                           ;	Called with FSR containing the base address, and
   307                           ;	W with the last address+1
   308                           
   309  0E0C  0064               	clrwdt	;clear the watchdog before getting into this loop
   310  0E0D                     clrloop:	
   311  0E0D  0180               	clrf	0	;clear RAM location pointed to by FSR
   312  0E0E  0A84               	incf	4,f	;increment pointer
   313  0E0F  0604               	xorwf	4,w	;XOR with final address
   314  0E10  1903               	btfsc	3,2	;have we reached the end yet?
   315  0E11  3400               	retlw	0	;all done for this memory range, return
   316  0E12  0604               	xorwf	4,w	;XOR again to restore value
   317  0E13  2E0D               	goto	clrloop	;do the next byte
   318                           
   319                           	psect	cstackCOMMON
   320  0070                     __pcstackCOMMON:	
   321  0070                     ?_clearTwelveHoursTimer:	
   322  0070                     ?_clearThreeHoursTimer:	
   323                           ; 0 bytes @ 0x0
   324                           
   325  0070                     ?_clearTwentySecondsTimer:	
   326                           ; 0 bytes @ 0x0
   327                           
   328  0070                     ?_clearTwentyMinuteTimer:	
   329                           ; 0 bytes @ 0x0
   330                           
   331  0070                     ?_clock_config:	
   332                           ; 0 bytes @ 0x0
   333                           
   334  0070                     ?_timer1_config:	
   335                           ; 0 bytes @ 0x0
   336                           
   337  0070                     ?_timer1_interrupt_config:	
   338                           ; 0 bytes @ 0x0
   339                           
   340  0070                     ?_adc_start:	
   341                           ; 0 bytes @ 0x0
   342                           
   343  0070                     ?_startTwentyMinuteTimer:	
   344                           ; 0 bytes @ 0x0
   345                           
   346  0070                     ?_process_AD_Converter_Value:	
   347                           ; 0 bytes @ 0x0
   348                           
   349  0070                     ?_clrSampeTime:	
   350                           ; 0 bytes @ 0x0
   351                           
   352  0070                     ?_startTwentySecondsTimer:	
   353                           ; 0 bytes @ 0x0
   354                           
   355  0070                     ?_call_ADC4_STEP_FOURTH_PREFIX2:	
   356                           ; 0 bytes @ 0x0
   357                           
   358  0070                     ?_call_ADC4_STEP_FOURTH_PREFIX3:	
   359                           ; 0 bytes @ 0x0
   360                           
   361  0070                     ?_AD_Sample:	
   362                           ; 0 bytes @ 0x0
   363                           
   364  0070                     ?_clearAllTimer:	
   365                           ; 0 bytes @ 0x0
   366                           
   367  0070                     ?_clearPinPortAndTimer:	
   368                           ; 0 bytes @ 0x0
   369                           
   370  0070                     ?_initPin:	
   371                           ; 0 bytes @ 0x0
   372                           
   373  0070                     ?_setPB0:	
   374                           ; 0 bytes @ 0x0
   375                           
   376  0070                     ?_setPB1:	
   377                           ; 0 bytes @ 0x0
   378                           
   379  0070                     ?_setPB2:	
   380                           ; 0 bytes @ 0x0
   381                           
   382  0070                     ?_setPA0:	
   383                           ; 0 bytes @ 0x0
   384                           
   385  0070                     ?_setPA1:	
   386                           ; 0 bytes @ 0x0
   387                           
   388  0070                     ?_setPA2:	
   389                           ; 0 bytes @ 0x0
   390                           
   391  0070                     ?_setPA3:	
   392                           ; 0 bytes @ 0x0
   393                           
   394  0070                     ?_setPB6:	
   395                           ; 0 bytes @ 0x0
   396                           
   397  0070                     ?_setPB4:	
   398                           ; 0 bytes @ 0x0
   399                           
   400  0070                     ?_setPA6:	
   401                           ; 0 bytes @ 0x0
   402                           
   403  0070                     ?_setPB6AsInput:	
   404                           ; 0 bytes @ 0x0
   405                           
   406  0070                     ?_clearParaFunction1:	
   407                           ; 0 bytes @ 0x0
   408                           
   409  0070                     ?_main:	
   410                           ; 0 bytes @ 0x0
   411                           
   412  0070                     ?_setAD_ConvertFlag:	
   413                           ; 0 bytes @ 0x0
   414                           
   415  0070                     ?_ISR:	
   416                           ; 0 bytes @ 0x0
   417                           
   418  0070                     ?i1_setAD_ConvertFlag:	
   419                           ; 0 bytes @ 0x0
   420                           
   421  0070                     ??i1_setAD_ConvertFlag:	
   422                           ; 0 bytes @ 0x0
   423                           
   424  0070                     ?_isPermitSampleTime:	
   425                           ; 0 bytes @ 0x0
   426                           
   427  0070                     ?_isFinishedTwentyMinuteTimer:	
   428                           ; 1 bytes @ 0x0
   429                           
   430  0070                     ?_isFinishedTwelveHoursTimer:	
   431                           ; 1 bytes @ 0x0
   432                           
   433  0070                     ?_isFinishedTwentySecondsTimer:	
   434                           ; 1 bytes @ 0x0
   435                           
   436  0070                     ?_isFinishedThreeHoursTimer:	
   437                           ; 1 bytes @ 0x0
   438                           
   439  0070                     ?_getAD_ConvertFlag:	
   440                           ; 1 bytes @ 0x0
   441                           
   442  0070                     ?_adc_get:	
   443                           ; 1 bytes @ 0x0
   444                           
   445  0070                     i1setAD_ConvertFlag@flag:	
   446                           ; 2 bytes @ 0x0
   447                           
   448                           
   449                           ; 1 bytes @ 0x0
   450  0070                     	ds	2
   451  0072                     ??_adc_get:	
   452  0072                     adc_get@val:	
   453                           ; 0 bytes @ 0x2
   454                           
   455                           
   456                           ; 2 bytes @ 0x2
   457  0072                     	ds	2
   458  0074                     ?_vPutSampleDataIntoTable:	
   459  0074                     vPutSampleDataIntoTable@uiSampleData:	
   460                           ; 0 bytes @ 0x4
   461                           
   462                           
   463                           ; 2 bytes @ 0x4
   464  0074                     	ds	2
   465  0076                     vPutSampleDataIntoTable@channel:	
   466                           
   467                           ; 1 bytes @ 0x6
   468  0076                     	ds	1
   469  0077                     ??_vPutSampleDataIntoTable:	
   470  0077                     vPutSampleDataIntoTable@i:	
   471                           ; 0 bytes @ 0x7
   472                           
   473                           
   474                           ; 2 bytes @ 0x7
   475  0077                     	ds	2
   476  0079                     ??_ISR:	
   477                           
   478                           ; 0 bytes @ 0x9
   479  0079                     	ds	4
   480                           
   481                           	psect	cstackBANK0
   482  0020                     __pcstackBANK0:	
   483  0020                     ??_clearTwelveHoursTimer:	
   484  0020                     ??_clearThreeHoursTimer:	
   485                           ; 0 bytes @ 0x0
   486                           
   487  0020                     ??_clearTwentySecondsTimer:	
   488                           ; 0 bytes @ 0x0
   489                           
   490  0020                     ??_clearTwentyMinuteTimer:	
   491                           ; 0 bytes @ 0x0
   492                           
   493  0020                     ??_clock_config:	
   494                           ; 0 bytes @ 0x0
   495                           
   496  0020                     ??_timer1_config:	
   497                           ; 0 bytes @ 0x0
   498                           
   499  0020                     ??_timer1_interrupt_config:	
   500                           ; 0 bytes @ 0x0
   501                           
   502  0020                     ?_adc_test_init:	
   503                           ; 0 bytes @ 0x0
   504                           
   505  0020                     ??_adc_start:	
   506                           ; 0 bytes @ 0x0
   507                           
   508  0020                     ??_startTwentyMinuteTimer:	
   509                           ; 0 bytes @ 0x0
   510                           
   511  0020                     ??_isPermitSampleTime:	
   512                           ; 0 bytes @ 0x0
   513                           
   514  0020                     ??_clrSampeTime:	
   515                           ; 0 bytes @ 0x0
   516                           
   517  0020                     ??_isFinishedTwentyMinuteTimer:	
   518                           ; 0 bytes @ 0x0
   519                           
   520  0020                     ?_startTwelveHourTimer:	
   521                           ; 0 bytes @ 0x0
   522                           
   523  0020                     ??_isFinishedTwelveHoursTimer:	
   524                           ; 0 bytes @ 0x0
   525                           
   526  0020                     ??_startTwentySecondsTimer:	
   527                           ; 0 bytes @ 0x0
   528                           
   529  0020                     ??_isFinishedTwentySecondsTimer:	
   530                           ; 0 bytes @ 0x0
   531                           
   532  0020                     ?_startThreeHoursTimer:	
   533                           ; 0 bytes @ 0x0
   534                           
   535  0020                     ??_isFinishedThreeHoursTimer:	
   536                           ; 0 bytes @ 0x0
   537                           
   538  0020                     ??_clearAllTimer:	
   539                           ; 0 bytes @ 0x0
   540                           
   541  0020                     ??_clearPinPortAndTimer:	
   542                           ; 0 bytes @ 0x0
   543                           
   544  0020                     ??_initPin:	
   545                           ; 0 bytes @ 0x0
   546                           
   547  0020                     ??_setPB0:	
   548                           ; 0 bytes @ 0x0
   549                           
   550  0020                     ??_setPB1:	
   551                           ; 0 bytes @ 0x0
   552                           
   553  0020                     ??_setPB2:	
   554                           ; 0 bytes @ 0x0
   555                           
   556  0020                     ??_setPA0:	
   557                           ; 0 bytes @ 0x0
   558                           
   559  0020                     ??_setPA1:	
   560                           ; 0 bytes @ 0x0
   561                           
   562  0020                     ??_setPA2:	
   563                           ; 0 bytes @ 0x0
   564                           
   565  0020                     ??_setPA3:	
   566                           ; 0 bytes @ 0x0
   567                           
   568  0020                     ??_setPB6:	
   569                           ; 0 bytes @ 0x0
   570                           
   571  0020                     ??_setPB4:	
   572                           ; 0 bytes @ 0x0
   573                           
   574  0020                     ??_setPA6:	
   575                           ; 0 bytes @ 0x0
   576                           
   577  0020                     ??_setPB6AsInput:	
   578                           ; 0 bytes @ 0x0
   579                           
   580  0020                     ??_getAD_ConvertFlag:	
   581                           ; 0 bytes @ 0x0
   582                           
   583  0020                     ??_setAD_ConvertFlag:	
   584                           ; 0 bytes @ 0x0
   585                           
   586  0020                     ?_Filter:	
   587                           ; 0 bytes @ 0x0
   588                           
   589  0020                     setPB0@bValue:	
   590                           ; 2 bytes @ 0x0
   591                           
   592  0020                     setPB1@bValue:	
   593                           ; 1 bytes @ 0x0
   594                           
   595  0020                     setPB2@bValue:	
   596                           ; 1 bytes @ 0x0
   597                           
   598  0020                     setPA0@bValue:	
   599                           ; 1 bytes @ 0x0
   600                           
   601  0020                     setPA1@bValue:	
   602                           ; 1 bytes @ 0x0
   603                           
   604  0020                     setPA2@bValue:	
   605                           ; 1 bytes @ 0x0
   606                           
   607  0020                     setPA3@bValue:	
   608                           ; 1 bytes @ 0x0
   609                           
   610  0020                     setPB6@bValue:	
   611                           ; 1 bytes @ 0x0
   612                           
   613  0020                     setPB4@bValue:	
   614                           ; 1 bytes @ 0x0
   615                           
   616  0020                     setPA6@bValue:	
   617                           ; 1 bytes @ 0x0
   618                           
   619  0020                     setAD_ConvertFlag@flag:	
   620                           ; 1 bytes @ 0x0
   621                           
   622  0020                     adc_test_init@ref:	
   623                           ; 1 bytes @ 0x0
   624                           
   625  0020                     Filter@tmpValue:	
   626                           ; 1 bytes @ 0x0
   627                           
   628  0020                     startTwelveHourTimer@uiSetTime:	
   629                           ; 2 bytes @ 0x0
   630                           
   631  0020                     startThreeHoursTimer@uiSetTime:	
   632                           ; 2 bytes @ 0x0
   633                           
   634                           
   635                           ; 2 bytes @ 0x0
   636  0020                     	ds	1
   637  0021                     ??_adc_test_init:	
   638  0021                     ??_call_ADC4_STEP_FOURTH_PREFIX3:	
   639                           ; 0 bytes @ 0x1
   640                           
   641  0021                     ??_clearParaFunction1:	
   642                           ; 0 bytes @ 0x1
   643                           
   644  0021                     call_ADC4_STEP_FOURTH_PREFIX3@bClearStep:	
   645                           ; 0 bytes @ 0x1
   646                           
   647                           
   648                           ; 1 bytes @ 0x1
   649  0021                     	ds	1
   650  0022                     ??_startTwelveHourTimer:	
   651  0022                     ??_startThreeHoursTimer:	
   652                           ; 0 bytes @ 0x2
   653                           
   654  0022                     ??_Filter:	
   655                           ; 0 bytes @ 0x2
   656                           
   657  0022                     adc_test_init@channel:	
   658                           ; 0 bytes @ 0x2
   659                           
   660                           
   661                           ; 1 bytes @ 0x2
   662  0022                     	ds	1
   663  0023                     ??_process_AD_Converter_Value:	
   664  0023                     ??_AD_Sample:	
   665                           ; 0 bytes @ 0x3
   666                           
   667                           
   668                           ; 0 bytes @ 0x3
   669  0023                     	ds	3
   670  0026                     Filter@filter_buf:	
   671                           
   672                           ; 24 bytes @ 0x6
   673  0026                     	ds	24
   674  003E                     Filter@filter_temp:	
   675                           
   676                           ; 2 bytes @ 0x1E
   677  003E                     	ds	2
   678  0040                     Filter@filter_sum:	
   679                           
   680                           ; 2 bytes @ 0x20
   681  0040                     	ds	2
   682  0042                     Filter@cir:	
   683                           
   684                           ; 2 bytes @ 0x22
   685  0042                     	ds	2
   686  0044                     Filter@j:	
   687                           
   688                           ; 1 bytes @ 0x24
   689  0044                     	ds	1
   690  0045                     Filter@i:	
   691                           
   692                           ; 1 bytes @ 0x25
   693  0045                     	ds	1
   694  0046                     ?_getAdOriginalCh0Value:	
   695  0046                     ?_getAdOriginalCh6Value:	
   696                           ; 2 bytes @ 0x26
   697                           
   698  0046                     ?_getAdOriginalCh5Value:	
   699                           ; 2 bytes @ 0x26
   700                           
   701  0046                     ?_getAdOriginalCh2Value:	
   702                           ; 2 bytes @ 0x26
   703                           
   704                           
   705                           ; 2 bytes @ 0x26
   706  0046                     	ds	2
   707  0048                     ??_getAdOriginalCh0Value:	
   708  0048                     ??_getAdOriginalCh6Value:	
   709                           ; 0 bytes @ 0x28
   710                           
   711  0048                     ??_getAdOriginalCh5Value:	
   712                           ; 0 bytes @ 0x28
   713                           
   714  0048                     ??_call_ADC4_STEP_FOURTH_PREFIX2:	
   715                           ; 0 bytes @ 0x28
   716                           
   717  0048                     ??_getAdOriginalCh2Value:	
   718                           ; 0 bytes @ 0x28
   719                           
   720  0048                     ??_main:	
   721                           ; 0 bytes @ 0x28
   722                           
   723  0048                     main@uiCh5Value:	
   724                           ; 0 bytes @ 0x28
   725                           
   726                           
   727                           ; 2 bytes @ 0x28
   728  0048                     	ds	2
   729                           
   730                           	psect	maintext
   731  0013                     __pmaintext:	
   732 ;;Data sizes: Strings 0, constant 0, data 0, bss 182, persistent 0 stack 0
   733 ;;Auto spaces:   Size  Autos    Used
   734 ;; COMMON          14     13      14
   735 ;; BANK0           80     42      79
   736 ;; BANK1           80      0      72
   737 ;; BANK3           96      0      72
   738 ;; BANK2           96      0       0
   739 ;;
   740 ;; Pointer list with targets:
   741 ;; ?_adc_get	unsigned int  size(1) Largest target is 0
   742 ;;
   743 ;; ?_getAdOriginalCh2Value	unsigned int  size(1) Largest target is 0
   744 ;;
   745 ;; ?_getAdOriginalCh6Value	unsigned int  size(1) Largest target is 0
   746 ;;
   747 ;; ?_getAdOriginalCh5Value	unsigned int  size(1) Largest target is 0
   748 ;;
   749 ;; ?_getAdOriginalCh0Value	unsigned int  size(1) Largest target is 0
   750 ;;
   751 ;; ?_Filter	unsigned int  size(1) Largest target is 0
   752 ;;
   753 ;; Filter@tmpValue	PTR int  size(2) Largest target is 24
   754 ;;		 -> uiSampleChannelSixth(BANK3[24]), uiSampleChannelFifth(BANK3[24]), uiSampleChannelSecond(BANK1[24]), uiSampleChan
      +nelZero(BANK3[24]), 
   755 ;;
   756 ;;
   757 ;; Critical Paths under _main in COMMON
   758 ;;
   759 ;;   None.
   760 ;;
   761 ;; Critical Paths under _ISR in COMMON
   762 ;;
   763 ;;   _ISR->_vPutSampleDataIntoTable
   764 ;;   _vPutSampleDataIntoTable->_adc_get
   765 ;;
   766 ;; Critical Paths under _main in BANK0
   767 ;;
   768 ;;   _main->_getAdOriginalCh0Value
   769 ;;   _main->_getAdOriginalCh6Value
   770 ;;   _main->_getAdOriginalCh5Value
   771 ;;   _main->_getAdOriginalCh2Value
   772 ;;   _call_ADC4_STEP_FOURTH_PREFIX2->_getAdOriginalCh2Value
   773 ;;   _call_ADC4_STEP_FOURTH_PREFIX2->_getAdOriginalCh6Value
   774 ;;   _clearParaFunction1->_setPA1
   775 ;;   _clearParaFunction1->_setPA0
   776 ;;   _clearParaFunction1->_setPB0
   777 ;;   _clearParaFunction1->_setPB1
   778 ;;   _clearParaFunction1->_setPB2
   779 ;;   _clearParaFunction1->_setPA3
   780 ;;   _clearParaFunction1->_setPB4
   781 ;;   _AD_Sample->_adc_test_init
   782 ;;   _getAdOriginalCh2Value->_Filter
   783 ;;   _call_ADC4_STEP_FOURTH_PREFIX3->_setPA3
   784 ;;   _call_ADC4_STEP_FOURTH_PREFIX3->_setPB4
   785 ;;   _call_ADC4_STEP_FOURTH_PREFIX3->_setPB6
   786 ;;   _getAdOriginalCh5Value->_Filter
   787 ;;   _getAdOriginalCh6Value->_Filter
   788 ;;   _getAdOriginalCh0Value->_Filter
   789 ;;
   790 ;; Critical Paths under _ISR in BANK0
   791 ;;
   792 ;;   None.
   793 ;;
   794 ;; Critical Paths under _main in BANK1
   795 ;;
   796 ;;   None.
   797 ;;
   798 ;; Critical Paths under _ISR in BANK1
   799 ;;
   800 ;;   None.
   801 ;;
   802 ;; Critical Paths under _main in BANK3
   803 ;;
   804 ;;   None.
   805 ;;
   806 ;; Critical Paths under _ISR in BANK3
   807 ;;
   808 ;;   None.
   809 ;;
   810 ;; Critical Paths under _main in BANK2
   811 ;;
   812 ;;   None.
   813 ;;
   814 ;; Critical Paths under _ISR in BANK2
   815 ;;
   816 ;;   None.
   817 ;;
   818 ;;Main: autosize = 0, tempsize = 0, incstack = 0, save=0
   819 ;;
   820 ;;
   821 ;;Call Graph Tables:
   822 ;;
   823 ;; ---------------------------------------------------------------------------------
   824 ;; (Depth) Function   	        Calls       Base Space   Used Autos Params    Refs
   825 ;; ---------------------------------------------------------------------------------
   826 ;; (0) _main                                                 2     2      0    4471
   827 ;;                                             40 BANK0      2     2      0
   828 ;;                            _initPin
   829 ;;                       _clock_config
   830 ;;                      _timer1_config
   831 ;;            _timer1_interrupt_config
   832 ;;                      _adc_test_init
   833 ;;                          _adc_start
   834 ;;             _startTwentyMinuteTimer
   835 ;;         _process_AD_Converter_Value
   836 ;;                 _isPermitSampleTime
   837 ;;                       _clrSampeTime
   838 ;;              _getAdOriginalCh0Value
   839 ;;        _isFinishedTwentyMinuteTimer
   840 ;;                 _clearParaFunction1
   841 ;;                             _setPA3
   842 ;;                             _setPB4
   843 ;;              _getAdOriginalCh6Value
   844 ;;               _startTwelveHourTimer
   845 ;;         _isFinishedTwelveHoursTimer
   846 ;;              _getAdOriginalCh5Value
   847 ;;                             _setPA1
   848 ;;                             _setPA0
   849 ;;                             _setPB0
   850 ;;                             _setPB1
   851 ;;                             _setPB2
   852 ;;            _startTwentySecondsTimer
   853 ;;       _isFinishedTwentySecondsTimer
   854 ;;      _call_ADC4_STEP_FOURTH_PREFIX2
   855 ;;      _call_ADC4_STEP_FOURTH_PREFIX3
   856 ;;              _getAdOriginalCh2Value
   857 ;;                             _setPB6
   858 ;;                      _setPB6AsInput
   859 ;;            _clearTwentySecondsTimer
   860 ;;                             _setPA6
   861 ;;               _clearPinPortAndTimer
   862 ;;               _startThreeHoursTimer
   863 ;;          _isFinishedThreeHoursTimer
   864 ;;               _clearThreeHoursTimer
   865 ;;                             _setPA2
   866 ;;                      _clearAllTimer
   867 ;; ---------------------------------------------------------------------------------
   868 ;; (1) _call_ADC4_STEP_FOURTH_PREFIX2                        0     0      0    1284
   869 ;;              _getAdOriginalCh2Value
   870 ;;              _getAdOriginalCh6Value
   871 ;;                             _setPA3
   872 ;;                             _setPB6
   873 ;;                      _setPB6AsInput
   874 ;; ---------------------------------------------------------------------------------
   875 ;; (1) _process_AD_Converter_Value                           0     0      0      66
   876 ;;                  _getAD_ConvertFlag
   877 ;;                  _setAD_ConvertFlag
   878 ;;                          _AD_Sample
   879 ;;                          _adc_start
   880 ;; ---------------------------------------------------------------------------------
   881 ;; (1) _clearParaFunction1                                   0     0      0     154
   882 ;;                             _setPA1
   883 ;;                             _setPA0
   884 ;;                             _setPB0
   885 ;;                             _setPB1
   886 ;;                             _setPB2
   887 ;;                      _clearAllTimer
   888 ;;                             _setPA3
   889 ;;                             _setPB4
   890 ;; ---------------------------------------------------------------------------------
   891 ;; (1) _clearPinPortAndTimer                                 0     0      0       0
   892 ;;                      _clearAllTimer
   893 ;; ---------------------------------------------------------------------------------
   894 ;; (2) _AD_Sample                                            0     0      0      44
   895 ;;                      _adc_test_init
   896 ;; ---------------------------------------------------------------------------------
   897 ;; (1) _getAdOriginalCh2Value                                2     0      2     620
   898 ;;                                             38 BANK0      2     0      2
   899 ;;                             _Filter
   900 ;; ---------------------------------------------------------------------------------
   901 ;; (1) _call_ADC4_STEP_FOURTH_PREFIX3                        1     1      0      89
   902 ;;                                              1 BANK0      1     1      0
   903 ;;                             _setPA3
   904 ;;                             _setPB4
   905 ;;                             _setPB6
   906 ;;                      _setPB6AsInput
   907 ;;            _clearTwentySecondsTimer
   908 ;; ---------------------------------------------------------------------------------
   909 ;; (1) _getAdOriginalCh5Value                                2     0      2     620
   910 ;;                                             38 BANK0      2     0      2
   911 ;;                             _Filter
   912 ;; ---------------------------------------------------------------------------------
   913 ;; (2) _getAdOriginalCh6Value                                2     0      2     620
   914 ;;                                             38 BANK0      2     0      2
   915 ;;                             _Filter
   916 ;; ---------------------------------------------------------------------------------
   917 ;; (1) _getAdOriginalCh0Value                                2     0      2     620
   918 ;;                                             38 BANK0      2     0      2
   919 ;;                             _Filter
   920 ;; ---------------------------------------------------------------------------------
   921 ;; (1) _clearAllTimer                                        0     0      0       0
   922 ;;              _clearTwelveHoursTimer
   923 ;;               _clearThreeHoursTimer
   924 ;;            _clearTwentySecondsTimer
   925 ;;             _clearTwentyMinuteTimer
   926 ;; ---------------------------------------------------------------------------------
   927 ;; (2) _setAD_ConvertFlag                                    1     1      0      22
   928 ;;                                              0 BANK0      1     1      0
   929 ;; ---------------------------------------------------------------------------------
   930 ;; (2) _getAD_ConvertFlag                                    0     0      0       0
   931 ;; ---------------------------------------------------------------------------------
   932 ;; (2) _Filter                                              38    36      2     620
   933 ;;                                              0 BANK0     38    36      2
   934 ;; ---------------------------------------------------------------------------------
   935 ;; (1) _isFinishedThreeHoursTimer                            0     0      0       0
   936 ;; ---------------------------------------------------------------------------------
   937 ;; (1) _startThreeHoursTimer                                 2     0      2      22
   938 ;;                                              0 BANK0      2     0      2
   939 ;; ---------------------------------------------------------------------------------
   940 ;; (1) _isFinishedTwentySecondsTimer                         0     0      0       0
   941 ;; ---------------------------------------------------------------------------------
   942 ;; (1) _startTwentySecondsTimer                              0     0      0       0
   943 ;; ---------------------------------------------------------------------------------
   944 ;; (1) _isFinishedTwelveHoursTimer                           0     0      0       0
   945 ;; ---------------------------------------------------------------------------------
   946 ;; (1) _startTwelveHourTimer                                 2     0      2      22
   947 ;;                                              0 BANK0      2     0      2
   948 ;; ---------------------------------------------------------------------------------
   949 ;; (1) _isFinishedTwentyMinuteTimer                          0     0      0       0
   950 ;; ---------------------------------------------------------------------------------
   951 ;; (1) _clrSampeTime                                         0     0      0       0
   952 ;; ---------------------------------------------------------------------------------
   953 ;; (1) _isPermitSampleTime                                   0     0      0       0
   954 ;; ---------------------------------------------------------------------------------
   955 ;; (1) _startTwentyMinuteTimer                               0     0      0       0
   956 ;; ---------------------------------------------------------------------------------
   957 ;; (2) _adc_start                                            0     0      0       0
   958 ;; ---------------------------------------------------------------------------------
   959 ;; (3) _adc_test_init                                        3     2      1      44
   960 ;;                                              0 BANK0      3     2      1
   961 ;; ---------------------------------------------------------------------------------
   962 ;; (1) _timer1_interrupt_config                              0     0      0       0
   963 ;; ---------------------------------------------------------------------------------
   964 ;; (1) _timer1_config                                        0     0      0       0
   965 ;; ---------------------------------------------------------------------------------
   966 ;; (1) _clock_config                                         0     0      0       0
   967 ;; ---------------------------------------------------------------------------------
   968 ;; (1) _setPB6AsInput                                        0     0      0       0
   969 ;; ---------------------------------------------------------------------------------
   970 ;; (1) _setPA6                                               1     1      0      22
   971 ;;                                              0 BANK0      1     1      0
   972 ;; ---------------------------------------------------------------------------------
   973 ;; (2) _setPB4                                               1     1      0      22
   974 ;;                                              0 BANK0      1     1      0
   975 ;; ---------------------------------------------------------------------------------
   976 ;; (1) _setPB6                                               1     1      0      22
   977 ;;                                              0 BANK0      1     1      0
   978 ;; ---------------------------------------------------------------------------------
   979 ;; (2) _setPA3                                               1     1      0      22
   980 ;;                                              0 BANK0      1     1      0
   981 ;; ---------------------------------------------------------------------------------
   982 ;; (1) _setPA2                                               1     1      0      22
   983 ;;                                              0 BANK0      1     1      0
   984 ;; ---------------------------------------------------------------------------------
   985 ;; (1) _setPA1                                               1     1      0      22
   986 ;;                                              0 BANK0      1     1      0
   987 ;; ---------------------------------------------------------------------------------
   988 ;; (1) _setPA0                                               1     1      0      22
   989 ;;                                              0 BANK0      1     1      0
   990 ;; ---------------------------------------------------------------------------------
   991 ;; (1) _setPB2                                               1     1      0      22
   992 ;;                                              0 BANK0      1     1      0
   993 ;; ---------------------------------------------------------------------------------
   994 ;; (1) _setPB1                                               1     1      0      22
   995 ;;                                              0 BANK0      1     1      0
   996 ;; ---------------------------------------------------------------------------------
   997 ;; (1) _setPB0                                               1     1      0      22
   998 ;;                                              0 BANK0      1     1      0
   999 ;; ---------------------------------------------------------------------------------
  1000 ;; (1) _initPin                                              0     0      0       0
  1001 ;; ---------------------------------------------------------------------------------
  1002 ;; (2) _clearTwentyMinuteTimer                               0     0      0       0
  1003 ;; ---------------------------------------------------------------------------------
  1004 ;; (2) _clearTwentySecondsTimer                              0     0      0       0
  1005 ;; ---------------------------------------------------------------------------------
  1006 ;; (2) _clearThreeHoursTimer                                 0     0      0       0
  1007 ;; ---------------------------------------------------------------------------------
  1008 ;; (2) _clearTwelveHoursTimer                                0     0      0       0
  1009 ;; ---------------------------------------------------------------------------------
  1010 ;; Estimated maximum stack depth 3
  1011 ;; ---------------------------------------------------------------------------------
  1012 ;; (Depth) Function   	        Calls       Base Space   Used Autos Params    Refs
  1013 ;; ---------------------------------------------------------------------------------
  1014 ;; (4) _ISR                                                  4     4      0     495
  1015 ;;                                              9 COMMON     4     4      0
  1016 ;;                i1_setAD_ConvertFlag
  1017 ;;                            _adc_get
  1018 ;;            _vPutSampleDataIntoTable
  1019 ;; ---------------------------------------------------------------------------------
  1020 ;; (5) i1_setAD_ConvertFlag                                  1     1      0      73
  1021 ;;                                              0 COMMON     1     1      0
  1022 ;; ---------------------------------------------------------------------------------
  1023 ;; (5) _adc_get                                              4     2      2      24
  1024 ;;                                              0 COMMON     4     2      2
  1025 ;; ---------------------------------------------------------------------------------
  1026 ;; (5) _vPutSampleDataIntoTable                              5     2      3     398
  1027 ;;                                              4 COMMON     5     2      3
  1028 ;;                            _adc_get (ARG)
  1029 ;; ---------------------------------------------------------------------------------
  1030 ;; Estimated maximum stack depth 5
  1031 ;; ---------------------------------------------------------------------------------
  1032 ;; Call Graph Graphs:
  1033 ;; _main (ROOT)
  1034 ;;   _initPin
  1035 ;;   _clock_config
  1036 ;;   _timer1_config
  1037 ;;   _timer1_interrupt_config
  1038 ;;   _adc_test_init
  1039 ;;   _adc_start
  1040 ;;   _startTwentyMinuteTimer
  1041 ;;   _process_AD_Converter_Value
  1042 ;;     _getAD_ConvertFlag
  1043 ;;     _setAD_ConvertFlag
  1044 ;;     _AD_Sample
  1045 ;;       _adc_test_init
  1046 ;;     _adc_start
  1047 ;;   _isPermitSampleTime
  1048 ;;   _clrSampeTime
  1049 ;;   _getAdOriginalCh0Value
  1050 ;;     _Filter
  1051 ;;   _isFinishedTwentyMinuteTimer
  1052 ;;   _clearParaFunction1
  1053 ;;     _setPA1
  1054 ;;     _setPA0
  1055 ;;     _setPB0
  1056 ;;     _setPB1
  1057 ;;     _setPB2
  1058 ;;     _clearAllTimer
  1059 ;;       _clearTwelveHoursTimer
  1060 ;;       _clearThreeHoursTimer
  1061 ;;       _clearTwentySecondsTimer
  1062 ;;       _clearTwentyMinuteTimer
  1063 ;;     _setPA3
  1064 ;;     _setPB4
  1065 ;;   _setPA3
  1066 ;;   _setPB4
  1067 ;;   _getAdOriginalCh6Value
  1068 ;;     _Filter
  1069 ;;   _startTwelveHourTimer
  1070 ;;   _isFinishedTwelveHoursTimer
  1071 ;;   _getAdOriginalCh5Value
  1072 ;;     _Filter
  1073 ;;   _setPA1
  1074 ;;   _setPA0
  1075 ;;   _setPB0
  1076 ;;   _setPB1
  1077 ;;   _setPB2
  1078 ;;   _startTwentySecondsTimer
  1079 ;;   _isFinishedTwentySecondsTimer
  1080 ;;   _call_ADC4_STEP_FOURTH_PREFIX2
  1081 ;;     _getAdOriginalCh2Value
  1082 ;;       _Filter
  1083 ;;     _getAdOriginalCh6Value
  1084 ;;       _Filter
  1085 ;;     _setPA3
  1086 ;;     _setPB6
  1087 ;;     _setPB6AsInput
  1088 ;;   _call_ADC4_STEP_FOURTH_PREFIX3
  1089 ;;     _setPA3
  1090 ;;     _setPB4
  1091 ;;     _setPB6
  1092 ;;     _setPB6AsInput
  1093 ;;     _clearTwentySecondsTimer
  1094 ;;   _getAdOriginalCh2Value
  1095 ;;     _Filter
  1096 ;;   _setPB6
  1097 ;;   _setPB6AsInput
  1098 ;;   _clearTwentySecondsTimer
  1099 ;;   _setPA6
  1100 ;;   _clearPinPortAndTimer
  1101 ;;     _clearAllTimer
  1102 ;;       _clearTwelveHoursTimer
  1103 ;;       _clearThreeHoursTimer
  1104 ;;       _clearTwentySecondsTimer
  1105 ;;       _clearTwentyMinuteTimer
  1106 ;;   _startThreeHoursTimer
  1107 ;;   _isFinishedThreeHoursTimer
  1108 ;;   _clearThreeHoursTimer
  1109 ;;   _setPA2
  1110 ;;   _clearAllTimer
  1111 ;;     _clearTwelveHoursTimer
  1112 ;;     _clearThreeHoursTimer
  1113 ;;     _clearTwentySecondsTimer
  1114 ;;     _clearTwentyMinuteTimer
  1115 ;;
  1116 ;; _ISR (ROOT)
  1117 ;;   i1_setAD_ConvertFlag
  1118 ;;   _adc_get
  1119 ;;   _vPutSampleDataIntoTable
  1120 ;;     _adc_get (ARG)
  1121 ;;
  1122 ;; Address spaces:
  1123 ;;Name               Size   Autos  Total    Cost      Usage
  1124 ;;BITCOMMON            E      0       0       0        0.0%
  1125 ;;NULL                 0      0       0       0        0.0%
  1126 ;;CODE                 0      0       0       0        0.0%
  1127 ;;COMMON               E      D       E       1      100.0%
  1128 ;;BITSFR0              0      0       0       1        0.0%
  1129 ;;SFR0                 0      0       0       1        0.0%
  1130 ;;BITSFR1              0      0       0       2        0.0%
  1131 ;;SFR1                 0      0       0       2        0.0%
  1132 ;;STACK                0      0       7       2        0.0%
  1133 ;;ABS                  0      0      ED       3        0.0%
  1134 ;;BITBANK0            50      0       0       4        0.0%
  1135 ;;BITSFR3              0      0       0       4        0.0%
  1136 ;;SFR3                 0      0       0       4        0.0%
  1137 ;;BANK0               50     2A      4F       5       98.8%
  1138 ;;BITSFR2              0      0       0       5        0.0%
  1139 ;;SFR2                 0      0       0       5        0.0%
  1140 ;;DATA                 0      0      F4       6        0.0%
  1141 ;;BITBANK1            50      0       0       7        0.0%
  1142 ;;BANK1               50      0      48       8       90.0%
  1143 ;;BITBANK3            60      0       0       9        0.0%
  1144 ;;BANK3               60      0      48      10       75.0%
  1145 ;;BITBANK2            60      0       0      11        0.0%
  1146 ;;BANK2               60      0       0      12        0.0%
  1147                           
  1148                           
  1149 ;; *************** function _main *****************
  1150 ;; Defined at:
  1151 ;;		line 669 in file "C:\temp\dev\AK7030-OTP\main.c"
  1152 ;; Parameters:    Size  Location     Type
  1153 ;;		None
  1154 ;; Auto vars:     Size  Location     Type
  1155 ;;  uiCh5Value      2   40[BANK0 ] unsigned int 
  1156 ;; Return value:  Size  Location     Type
  1157 ;;		None               void
  1158 ;; Registers used:
  1159 ;;		wreg, fsr0l, fsr0h, status,2, status,0, btemp+1, pclath, cstack
  1160 ;; Tracked objects:
  1161 ;;		On entry : 17F/0
  1162 ;;		On exit  : 60/0
  1163 ;;		Unchanged: FFE00/0
  1164 ;; Data sizes:     COMMON   BANK0   BANK1   BANK3   BANK2
  1165 ;;      Params:         0       0       0       0       0
  1166 ;;      Locals:         0       2       0       0       0
  1167 ;;      Temps:          0       0       0       0       0
  1168 ;;      Totals:         0       2       0       0       0
  1169 ;;Total ram usage:        2 bytes
  1170 ;; Hardware stack levels required when called:    5
  1171 ;; This function calls:
  1172 ;;		_initPin
  1173 ;;		_clock_config
  1174 ;;		_timer1_config
  1175 ;;		_timer1_interrupt_config
  1176 ;;		_adc_test_init
  1177 ;;		_adc_start
  1178 ;;		_startTwentyMinuteTimer
  1179 ;;		_process_AD_Converter_Value
  1180 ;;		_isPermitSampleTime
  1181 ;;		_clrSampeTime
  1182 ;;		_getAdOriginalCh0Value
  1183 ;;		_isFinishedTwentyMinuteTimer
  1184 ;;		_clearParaFunction1
  1185 ;;		_setPA3
  1186 ;;		_setPB4
  1187 ;;		_getAdOriginalCh6Value
  1188 ;;		_startTwelveHourTimer
  1189 ;;		_isFinishedTwelveHoursTimer
  1190 ;;		_getAdOriginalCh5Value
  1191 ;;		_setPA1
  1192 ;;		_setPA0
  1193 ;;		_setPB0
  1194 ;;		_setPB1
  1195 ;;		_setPB2
  1196 ;;		_startTwentySecondsTimer
  1197 ;;		_isFinishedTwentySecondsTimer
  1198 ;;		_call_ADC4_STEP_FOURTH_PREFIX2
  1199 ;;		_call_ADC4_STEP_FOURTH_PREFIX3
  1200 ;;		_getAdOriginalCh2Value
  1201 ;;		_setPB6
  1202 ;;		_setPB6AsInput
  1203 ;;		_clearTwentySecondsTimer
  1204 ;;		_setPA6
  1205 ;;		_clearPinPortAndTimer
  1206 ;;		_startThreeHoursTimer
  1207 ;;		_isFinishedThreeHoursTimer
  1208 ;;		_clearThreeHoursTimer
  1209 ;;		_setPA2
  1210 ;;		_clearAllTimer
  1211 ;; This function is called by:
  1212 ;;		Startup code after reset
  1213 ;; This function uses a non-reentrant model
  1214 ;;
  1215  0013                     _main:	
  1216                           
  1217                           ;main.c: 679: static unsigned char bCheckTweHour = 0;
  1218                           ;main.c: 685: initPin();
  1219                           
  1220                           ; Regs used in _main: [wreg-fsr0h+status,2+status,0+btemp+1+pclath+cstack]
  1221  0013  158A  26A2  118A   	fcall	_initPin
  1222                           
  1223                           ;main.c: 688: TRISB3 = 1;
  1224  0016  1586               	bsf	6,3
  1225                           
  1226                           ;main.c: 690: TRISB5 = 1;
  1227  0017  1686               	bsf	6,5
  1228                           
  1229                           ;main.c: 692: TRISA7 = 1;
  1230  0018  1785               	bsf	5,7
  1231                           
  1232                           ;main.c: 694: TRISA6 = 1;
  1233  0019  1705               	bsf	5,6
  1234                           
  1235                           ;main.c: 696: clock_config();
  1236  001A  158A  2604  118A   	fcall	_clock_config
  1237                           
  1238                           ;main.c: 697: timer1_config();
  1239  001D  158A  261D  118A   	fcall	_timer1_config
  1240                           
  1241                           ;main.c: 698: timer1_interrupt_config();
  1242  0020  158A  25F3  118A   	fcall	_timer1_interrupt_config
  1243                           
  1244                           ;main.c: 700: adc_test_init(0,3);
  1245  0023  3003               	movlw	3
  1246  0024  1283               	bcf	3,5	;RP0=0, select bank0
  1247  0025  00A0               	movwf	?_adc_test_init
  1248  0026  3000               	movlw	0
  1249  0027  158A  2702  118A   	fcall	_adc_test_init
  1250                           
  1251                           ;main.c: 707: adc_start();
  1252  002A  158A  26DD  118A   	fcall	_adc_start
  1253                           
  1254                           ;main.c: 720: startTwentyMinuteTimer();
  1255  002D  158A  2668  118A   	fcall	_startTwentyMinuteTimer
  1256  0030                     l5259:	
  1257  0030  0064               	clrwdt	;#
  1258                           
  1259                           ;main.c: 727: process_AD_Converter_Value();
  1260  0031  158A  26C9  118A   	fcall	_process_AD_Converter_Value
  1261                           
  1262                           ;main.c: 729: if( isPermitSampleTime() )
  1263  0034  158A  25F6  118A   	fcall	_isPermitSampleTime
  1264  0037  3A00               	xorlw	0
  1265  0038  1903               	skipnz
  1266  0039  2830               	goto	l5259
  1267                           
  1268                           ;main.c: 730: {
  1269                           ;main.c: 733: clrSampeTime();
  1270  003A  118A  27FE  118A   	fcall	_clrSampeTime
  1271                           
  1272                           ;main.c: 748: switch(enumMainLoopStep)
  1273  003D  2D45               	goto	l6001
  1274  003E                     l5265:	
  1275                           
  1276                           ;main.c: 751: {
  1277                           ;main.c: 756: static unsigned char ucTimerZeroPoint5s = 0;
  1278                           ;main.c: 758: if(getAdOriginalCh0Value() <= 1950)
  1279  003E  118A  256C  118A   	fcall	_getAdOriginalCh0Value
  1280  0041  3007               	movlw	7
  1281  0042  0247               	subwf	?_getAdOriginalCh0Value+1,w
  1282  0043  309F               	movlw	159
  1283  0044  1903               	skipnz
  1284  0045  0246               	subwf	?_getAdOriginalCh0Value,w
  1285  0046  1803               	skipnc
  1286  0047  284A               	goto	l5269
  1287                           
  1288                           ;main.c: 759: {
  1289                           ;main.c: 760: ucTimerZeroPoint5s++;
  1290  0048  0AEA               	incf	main@ucTimerZeroPoint5s,f
  1291                           
  1292                           ;main.c: 761: }
  1293  0049  284B               	goto	l5271
  1294  004A                     l5269:	
  1295                           
  1296                           ;main.c: 762: else
  1297                           ;main.c: 763: ucTimerZeroPoint5s = 0;
  1298  004A  01EA               	clrf	main@ucTimerZeroPoint5s
  1299  004B                     l5271:	
  1300                           
  1301                           ;main.c: 765: if(ucTimerZeroPoint5s >= 5)
  1302  004B  3005               	movlw	5
  1303  004C  026A               	subwf	main@ucTimerZeroPoint5s,w
  1304  004D  1C03               	skipc
  1305  004E  2852               	goto	l5277
  1306                           
  1307                           ;main.c: 766: {
  1308                           ;main.c: 767: ucTimerZeroPoint5s = 0;
  1309  004F  01EA               	clrf	main@ucTimerZeroPoint5s
  1310                           
  1311                           ;main.c: 768: enumMainLoopStep = MAIN_LOOP_STEP_FIRST;
  1312  0050  01D0               	clrf	_enumMainLoopStep
  1313  0051  0AD0               	incf	_enumMainLoopStep,f
  1314  0052                     l5277:	
  1315                           
  1316                           ;main.c: 769: }
  1317                           ;main.c: 771: if(isFinishedTwentyMinuteTimer())
  1318  0052  158A  2627  118A   	fcall	_isFinishedTwentyMinuteTimer
  1319  0055  3A00               	xorlw	0
  1320  0056  1903               	skipnz
  1321  0057  2830               	goto	l5259
  1322  0058                     l5279:	
  1323                           
  1324                           ;main.c: 772: enumMainLoopStep = MAIN_LOOP_STEP_10_HOUR_END;
  1325  0058  3009               	movlw	9
  1326  0059  1283               	bcf	3,5	;RP0=0, select bank0
  1327  005A  00D0               	movwf	_enumMainLoopStep
  1328  005B                     l772:	
  1329                           
  1330                           ;main.c: 773: break;
  1331  005B  2830               	goto	l5259
  1332  005C                     l5281:	
  1333                           
  1334                           ;main.c: 777: {
  1335                           ;main.c: 782: static unsigned char ucTimerZeroPoint3s = 0;
  1336                           ;main.c: 784: static unsigned char ucTimerCntP3s = 0;
  1337                           ;main.c: 787: if(getAdOriginalCh0Value() <= 1950)
  1338  005C  118A  256C  118A   	fcall	_getAdOriginalCh0Value
  1339  005F  3007               	movlw	7
  1340  0060  0247               	subwf	?_getAdOriginalCh0Value+1,w
  1341  0061  309F               	movlw	159
  1342  0062  1903               	skipnz
  1343  0063  0246               	subwf	?_getAdOriginalCh0Value,w
  1344  0064  3003               	movlw	3
  1345  0065  1803               	skipnc
  1346  0066  2870               	goto	L19
  1347                           
  1348                           ;main.c: 788: {
  1349                           ;main.c: 789: ucTimerCntP3s++;
  1350  0067  0ADD               	incf	main@ucTimerCntP3s,f
  1351                           
  1352                           ;main.c: 790: if(ucTimerCntP3s >= 3)
  1353  0068  025D               	subwf	main@ucTimerCntP3s,w
  1354  0069  1C03               	skipc
  1355  006A  2830               	goto	l5259
  1356  006B  3002               	movlw	2
  1357                           
  1358                           ;main.c: 791: {
  1359                           ;main.c: 792: ucTimerCntP3s = 0;
  1360  006C  01DD               	clrf	main@ucTimerCntP3s
  1361                           
  1362                           ;main.c: 794: enumMainLoopStep = MAIN_LOOP_STEP_SECOND;
  1363  006D  00D0               	movwf	_enumMainLoopStep
  1364                           
  1365                           ;main.c: 796: ucTimerZeroPoint3s = 0;
  1366  006E  01E9               	clrf	main@ucTimerZeroPoint3s
  1367  006F  2830               	goto	l5259
  1368  0070                     L19:	
  1369                           
  1370                           ;main.c: 800: else
  1371                           ;main.c: 801: {
  1372                           ;main.c: 802: ucTimerZeroPoint3s++;
  1373  0070  0AE9               	incf	main@ucTimerZeroPoint3s,f
  1374                           
  1375                           ;main.c: 804: if(ucTimerZeroPoint3s >= 3)
  1376  0071  0269               	subwf	main@ucTimerZeroPoint3s,w
  1377  0072  1C03               	skipc
  1378  0073  2830               	goto	l5259
  1379                           
  1380                           ;main.c: 805: {
  1381                           ;main.c: 806: ucTimerZeroPoint3s = 0;
  1382  0074  01E9               	clrf	main@ucTimerZeroPoint3s
  1383                           
  1384                           ;main.c: 808: clearParaFunction1();
  1385  0075  118A  2581  118A   	fcall	_clearParaFunction1
  1386  0078  2830               	goto	l5259
  1387  0079                     l5301:	
  1388                           
  1389                           ;main.c: 816: {
  1390                           ;main.c: 821: static unsigned char ucTimerP5s = 0;
  1391                           ;main.c: 823: setPA3(1);
  1392  0079  3001               	movlw	1
  1393  007A  118A  2706  118A   	fcall	_setPA3
  1394                           
  1395                           ;main.c: 824: setPB4(1);
  1396  007D  3001               	movlw	1
  1397  007E  118A  2626  118A   	fcall	_setPB4
  1398                           
  1399                           ;main.c: 826: if(ucTimerP5s < 5)
  1400  0081  3005               	movlw	5
  1401  0082  0267               	subwf	main@ucTimerP5s,w
  1402  0083  1803               	skipnc
  1403  0084  2887               	goto	l5307
  1404                           
  1405                           ;main.c: 827: ucTimerP5s++;
  1406  0085  0AE7               	incf	main@ucTimerP5s,f
  1407  0086  2830               	goto	l5259
  1408  0087                     l5307:	
  1409                           
  1410                           ;main.c: 828: else
  1411                           ;main.c: 829: {
  1412                           ;main.c: 830: ucTimerP5s = 0;
  1413  0087  01E7               	clrf	main@ucTimerP5s
  1414                           
  1415                           ;main.c: 832: startTwentyMinuteTimer();
  1416  0088  158A  2668  118A   	fcall	_startTwentyMinuteTimer
  1417  008B                     l5311:	
  1418                           
  1419                           ;main.c: 834: enumMainLoopStep = MAIN_LOOP_STEP_THIRD;
  1420  008B  3003               	movlw	3
  1421  008C  2CA9               	goto	L1
  1422  008D                     l5313:	
  1423                           
  1424                           ;main.c: 841: {
  1425                           ;main.c: 846: static unsigned char ucTimerLessZeroP5s = 0;
  1426                           ;main.c: 848: static unsigned char ucTimerLargeZeroP5s = 0;
  1427                           ;main.c: 851: static unsigned char ucTimerRightP5s = 0;
  1428                           ;main.c: 853: if(getAdOriginalCh6Value() <= 85)
  1429  008D  118A  270F  118A   	fcall	_getAdOriginalCh6Value
  1430  0090  3000               	movlw	0
  1431  0091  0247               	subwf	?_getAdOriginalCh6Value+1,w
  1432  0092  3056               	movlw	86
  1433  0093  1903               	skipnz
  1434  0094  0246               	subwf	?_getAdOriginalCh6Value,w
  1435  0095  1803               	skipnc
  1436  0096  289A               	goto	l5319
  1437                           
  1438                           ;main.c: 854: {
  1439                           ;main.c: 855: ucTimerLargeZeroP5s = 0;
  1440  0097  01E5               	clrf	main@ucTimerLargeZeroP5s
  1441                           
  1442                           ;main.c: 857: ucTimerLessZeroP5s++;
  1443  0098  0AE6               	incf	main@ucTimerLessZeroP5s,f
  1444                           
  1445                           ;main.c: 858: }
  1446  0099  289D               	goto	l5325
  1447  009A                     l5319:	
  1448                           
  1449                           ;main.c: 859: else
  1450                           ;main.c: 860: {
  1451                           ;main.c: 861: ucTimerLargeZeroP5s++;
  1452  009A  0AE5               	incf	main@ucTimerLargeZeroP5s,f
  1453                           
  1454                           ;main.c: 863: ucTimerLessZeroP5s = 0;
  1455  009B  01E6               	clrf	main@ucTimerLessZeroP5s
  1456                           
  1457                           ;main.c: 865: ucTimerRightP5s = 0;
  1458  009C  01E8               	clrf	main@ucTimerRightP5s
  1459  009D                     l5325:	
  1460                           
  1461                           ;main.c: 866: }
  1462                           ;main.c: 868: if(ucTimerLargeZeroP5s >= 3)
  1463  009D  3003               	movlw	3
  1464  009E  0265               	subwf	main@ucTimerLargeZeroP5s,w
  1465  009F  1C03               	skipc
  1466  00A0  28A4               	goto	l5331
  1467  00A1  3004               	movlw	4
  1468                           
  1469                           ;main.c: 869: {
  1470                           ;main.c: 870: ucTimerLargeZeroP5s = 0;
  1471  00A2  01E5               	clrf	main@ucTimerLargeZeroP5s
  1472                           
  1473                           ;main.c: 871: enumMainLoopStep = MAIN_LOOP_STEP_FOURTH;
  1474  00A3  28BC               	goto	L2
  1475  00A4                     l5331:	
  1476                           ;main.c: 872: }
  1477                           
  1478                           
  1479                           ;main.c: 873: else if( ucTimerLessZeroP5s >= 3)
  1480  00A4  3003               	movlw	3
  1481  00A5  0266               	subwf	main@ucTimerLessZeroP5s,w
  1482  00A6  1C03               	skipc
  1483  00A7  28BD               	goto	l5345
  1484                           
  1485                           ;main.c: 874: {
  1486                           ;main.c: 876: if(getAdOriginalCh6Value() < 65)
  1487  00A8  118A  270F  118A   	fcall	_getAdOriginalCh6Value
  1488  00AB  3000               	movlw	0
  1489  00AC  0247               	subwf	?_getAdOriginalCh6Value+1,w
  1490  00AD  3041               	movlw	65
  1491  00AE  1903               	skipnz
  1492  00AF  0246               	subwf	?_getAdOriginalCh6Value,w
  1493  00B0  1803               	skipnc
  1494  00B1  28B4               	goto	l5337
  1495                           
  1496                           ;main.c: 877: {
  1497                           ;main.c: 878: ucTimerRightP5s++;
  1498  00B2  0AE8               	incf	main@ucTimerRightP5s,f
  1499                           
  1500                           ;main.c: 879: }
  1501  00B3  28B5               	goto	l5339
  1502  00B4                     l5337:	
  1503                           
  1504                           ;main.c: 880: else
  1505                           ;main.c: 881: {
  1506                           ;main.c: 882: ucTimerRightP5s = 0;
  1507  00B4  01E8               	clrf	main@ucTimerRightP5s
  1508  00B5                     l5339:	
  1509                           
  1510                           ;main.c: 883: }
  1511                           ;main.c: 885: if(ucTimerRightP5s >= 3)
  1512  00B5  3003               	movlw	3
  1513  00B6  0268               	subwf	main@ucTimerRightP5s,w
  1514  00B7  1C03               	skipc
  1515  00B8  28BD               	goto	l5345
  1516  00B9  3008               	movlw	8
  1517                           
  1518                           ;main.c: 886: {
  1519                           ;main.c: 887: ucTimerLargeZeroP5s = 0;
  1520  00BA  01E5               	clrf	main@ucTimerLargeZeroP5s
  1521                           
  1522                           ;main.c: 888: ucTimerRightP5s = 0;
  1523  00BB  01E8               	clrf	main@ucTimerRightP5s
  1524  00BC                     L2:	
  1525                           ;main.c: 889: enumMainLoopStep = MAIN_LOOP_STEP_3_HOUR_BRANCH;
  1526                           
  1527  00BC  00D0               	movwf	_enumMainLoopStep
  1528  00BD                     l5345:	
  1529                           ;main.c: 896: else
  1530                           ;main.c: 897: {
  1531                           ;main.c: 898: ;
  1532                           
  1533                           ;main.c: 890: }
  1534                           
  1535                           
  1536                           ;main.c: 899: }
  1537                           ;main.c: 901: if((MAIN_LOOP_STEP_3_HOUR_BRANCH == enumMainLoopStep) || (MAIN_LOOP_STEP_F
      +                          OURTH == enumMainLoopStep))
  1538  00BD  0850               	movf	_enumMainLoopStep,w
  1539  00BE  3A08               	xorlw	8
  1540  00BF  1903               	skipnz
  1541  00C0  28C5               	goto	l5349
  1542  00C1  0850               	movf	_enumMainLoopStep,w
  1543  00C2  3A04               	xorlw	4
  1544  00C3  1D03               	skipz
  1545  00C4  2830               	goto	l5259
  1546  00C5                     l5349:	
  1547                           
  1548                           ;main.c: 902: {
  1549                           ;main.c: 903: ucTimerRightP5s = 0;
  1550  00C5  01E8               	clrf	main@ucTimerRightP5s
  1551                           
  1552                           ;main.c: 904: ucTimerLargeZeroP5s = 0;
  1553  00C6  01E5               	clrf	main@ucTimerLargeZeroP5s
  1554                           
  1555                           ;main.c: 905: ucTimerLessZeroP5s = 0;
  1556  00C7  01E6               	clrf	main@ucTimerLessZeroP5s
  1557  00C8  2830               	goto	l5259
  1558  00C9                     l5351:	
  1559                           
  1560                           ;main.c: 913: {
  1561                           ;main.c: 919: startTwelveHourTimer(36000);
  1562  00C9  30A0               	movlw	160
  1563  00CA  00A0               	movwf	?_startTwelveHourTimer
  1564  00CB  308C               	movlw	140
  1565  00CC  00A1               	movwf	?_startTwelveHourTimer+1
  1566  00CD  158A  267A  118A   	fcall	_startTwelveHourTimer
  1567                           
  1568                           ;main.c: 920: enumMainLoopStep = MAIN_LOOP_STEP_FIFTH;
  1569  00D0  3005               	movlw	5
  1570  00D1  1283               	bcf	3,5	;RP0=0, select bank0
  1571  00D2  00D0               	movwf	_enumMainLoopStep
  1572                           
  1573                           ;main.c: 922: bCheckTweHour = 0;
  1574  00D3  01D5               	clrf	main@bCheckTweHour
  1575                           
  1576                           ;main.c: 924: break;
  1577  00D4  2830               	goto	l5259
  1578  00D5                     l5357:	
  1579                           
  1580                           ;main.c: 928: {
  1581                           ;main.c: 932: if(( isFinishedTwelveHoursTimer() && (! bCheckTweHour)))
  1582  00D5  158A  2633  118A   	fcall	_isFinishedTwelveHoursTimer
  1583  00D8  3A00               	xorlw	0
  1584  00D9  1903               	skipnz
  1585  00DA  2C3E               	goto	l5893
  1586  00DB  1283               	bcf	3,5	;RP0=0, select bank0
  1587  00DC  08D5               	movf	main@bCheckTweHour,f
  1588  00DD  1D03               	skipz
  1589  00DE  2C3E               	goto	l5893
  1590                           
  1591                           ;main.c: 933: {
  1592                           ;main.c: 934: enumMainLoopStep = MAIN_LOOP_STEP_10_HOUR_END;
  1593  00DF  3009               	movlw	9
  1594  00E0  00D0               	movwf	_enumMainLoopStep
  1595                           
  1596                           ;main.c: 935: bCheckTweHour = 1;
  1597  00E1  01D5               	clrf	main@bCheckTweHour
  1598  00E2  0AD5               	incf	main@bCheckTweHour,f
  1599                           
  1600                           ;main.c: 936: }
  1601  00E3  2830               	goto	l5259
  1602  00E4                     l813:	
  1603                           ;main.c: 941: {
  1604                           ;main.c: 942: case ADC4_STEP_INIT:
  1605                           
  1606                           
  1607                           ;main.c: 943: {
  1608                           ;main.c: 948: ucADC4_Step = ADC4_STEP_FIRST;
  1609  00E4  01D3               	clrf	_ucADC4_Step
  1610  00E5  0AD3               	incf	_ucADC4_Step,f
  1611                           
  1612                           ;main.c: 949: break;
  1613  00E6  2830               	goto	l5259
  1614  00E7                     l5365:	
  1615                           
  1616                           ;main.c: 963: uiCh5Value = getAdOriginalCh5Value();
  1617  00E7  118A  2562  118A   	fcall	_getAdOriginalCh5Value
  1618  00EA  0847               	movf	?_getAdOriginalCh5Value+1,w
  1619  00EB  00C9               	movwf	main@uiCh5Value+1
  1620  00EC  0846               	movf	?_getAdOriginalCh5Value,w
  1621  00ED  00C8               	movwf	main@uiCh5Value
  1622                           
  1623                           ;main.c: 965: if( 0 == bInitFlag)
  1624  00EE  08D6               	movf	main@bInitFlag,f
  1625  00EF  1D03               	skipz
  1626  00F0  28F7               	goto	l5375
  1627                           
  1628                           ;main.c: 966: {
  1629                           ;main.c: 967: bInitFlag = 1;
  1630  00F1  01D6               	clrf	main@bInitFlag
  1631  00F2  0AD6               	incf	main@bInitFlag,f
  1632                           
  1633                           ;main.c: 968: uiOldValue = uiCh5Value;
  1634  00F3  0849               	movf	main@uiCh5Value+1,w
  1635  00F4  00CB               	movwf	main@uiOldValue+1
  1636  00F5  0848               	movf	main@uiCh5Value,w
  1637  00F6  00CA               	movwf	main@uiOldValue
  1638  00F7                     l5375:	
  1639                           
  1640                           ;main.c: 969: }
  1641                           ;main.c: 978: if(LESS_THAN_1911 == ucChannel5Type)
  1642  00F7  08D4               	movf	_ucChannel5Type,f
  1643  00F8  1D03               	skipz
  1644  00F9  28FF               	goto	l5381
  1645                           
  1646                           ;main.c: 979: {
  1647                           ;main.c: 980: uiMinValue = 0;
  1648  00FA  1683               	bsf	3,5	;RP0=1, select bank1
  1649  00FB  308B               	movlw	139
  1650  00FC  01AA               	clrf	main@uiMinValue^(0+128)
  1651  00FD  01AB               	clrf	(main@uiMinValue+1)^(0+128)
  1652                           
  1653                           ;main.c: 981: uiMaxValue = 1931;
  1654  00FE  2907               	goto	L13
  1655  00FF                     l5381:	
  1656                           ;main.c: 982: }
  1657                           
  1658                           
  1659                           ;main.c: 983: else if(BETWEEN_1911_AND_2067 == ucChannel5Type)
  1660  00FF  0B54               	decfsz	_ucChannel5Type,w
  1661  0100  290A               	goto	l5385
  1662                           
  1663                           ;main.c: 984: {
  1664                           ;main.c: 985: uiMinValue = 1931 - 40;
  1665  0101  3063               	movlw	99
  1666  0102  1683               	bsf	3,5	;RP0=1, select bank1
  1667  0103  00AA               	movwf	main@uiMinValue^(0+128)
  1668  0104  3007               	movlw	7
  1669  0105  00AB               	movwf	(main@uiMinValue^(0+128)+1)
  1670                           
  1671                           ;main.c: 986: uiMaxValue = 2047;
  1672  0106  30FF               	movlw	255
  1673  0107                     L13:	
  1674  0107  00A8               	movwf	main@uiMaxValue^(0+128)
  1675  0108  3007               	movlw	7
  1676  0109  2923               	goto	L3
  1677  010A                     l5385:	
  1678                           ;main.c: 987: }
  1679                           
  1680                           
  1681                           ;main.c: 988: else if(BETWEEN_2067_AND_2204 == ucChannel5Type)
  1682  010A  0854               	movf	_ucChannel5Type,w
  1683  010B  3A02               	xorlw	2
  1684  010C  1D03               	skipz
  1685  010D  2915               	goto	l5389
  1686                           
  1687                           ;main.c: 989: {
  1688                           ;main.c: 990: uiMinValue = 2047 - 40;
  1689  010E  30D7               	movlw	215
  1690  010F  1683               	bsf	3,5	;RP0=1, select bank1
  1691  0110  00AA               	movwf	main@uiMinValue^(0+128)
  1692  0111  3007               	movlw	7
  1693  0112  00AB               	movwf	(main@uiMinValue^(0+128)+1)
  1694                           
  1695                           ;main.c: 991: uiMaxValue = 2164;
  1696  0113  3074               	movlw	116
  1697  0114  2921               	goto	L14
  1698  0115                     l5389:	
  1699                           ;main.c: 992: }
  1700                           
  1701                           
  1702                           ;main.c: 993: else if(BETWEEN_2204_AND_2340 == ucChannel5Type)
  1703  0115  0854               	movf	_ucChannel5Type,w
  1704  0116  3A03               	xorlw	3
  1705  0117  1D03               	skipz
  1706  0118  291B               	goto	l5393
  1707                           
  1708                           ;main.c: 994: {
  1709                           ;main.c: 995: uiMinValue = 2164 - 40;
  1710  0119  304C               	movlw	76
  1711  011A  291C               	goto	L16
  1712  011B                     l5393:	
  1713                           ;main.c: 997: }
  1714                           
  1715                           ;main.c: 996: uiMaxValue = 2281;
  1716                           
  1717                           
  1718                           ;main.c: 998: else
  1719                           ;main.c: 999: {
  1720                           ;main.c: 1000: uiMinValue = 2281 - 40;
  1721  011B  30C1               	movlw	193
  1722  011C                     L16:	
  1723  011C  1683               	bsf	3,5	;RP0=1, select bank1
  1724  011D  00AA               	movwf	main@uiMinValue^(0+128)
  1725  011E  3008               	movlw	8
  1726  011F  00AB               	movwf	(main@uiMinValue^(0+128)+1)
  1727                           
  1728                           ;main.c: 1001: uiMaxValue = 2281;
  1729  0120  30E9               	movlw	233
  1730  0121                     L14:	
  1731  0121  00A8               	movwf	main@uiMaxValue^(0+128)
  1732  0122  3008               	movlw	8
  1733  0123                     L3:	
  1734  0123  00A9               	movwf	(main@uiMaxValue^(0+128)+1)
  1735                           
  1736                           ;main.c: 1002: }
  1737                           ;main.c: 1005: if(( uiCh5Value < uiMinValue )
  1738                           ;main.c: 1006: || ( uiCh5Value > uiMaxValue ))
  1739  0124  082B               	movf	(main@uiMinValue+1)^(0+128),w
  1740  0125  1283               	bcf	3,5	;RP0=0, select bank0
  1741  0126  0249               	subwf	main@uiCh5Value+1,w
  1742  0127  1D03               	skipz
  1743  0128  292D               	goto	u2565
  1744  0129  1683               	bsf	3,5	;RP0=1, select bank1
  1745  012A  082A               	movf	main@uiMinValue^(0+128),w
  1746  012B  1283               	bcf	3,5	;RP0=0, select bank0
  1747  012C  0248               	subwf	main@uiCh5Value,w
  1748  012D                     u2565:	
  1749  012D  1C03               	skipc
  1750  012E  293A               	goto	l5397
  1751  012F  0849               	movf	main@uiCh5Value+1,w
  1752  0130  1683               	bsf	3,5	;RP0=1, select bank1
  1753  0131  0229               	subwf	(main@uiMaxValue+1)^(0+128),w
  1754  0132  1D03               	skipz
  1755  0133  2938               	goto	u2575
  1756  0134  1283               	bcf	3,5	;RP0=0, select bank0
  1757  0135  0848               	movf	main@uiCh5Value,w
  1758  0136  1683               	bsf	3,5	;RP0=1, select bank1
  1759  0137  0228               	subwf	main@uiMaxValue^(0+128),w
  1760  0138                     u2575:	
  1761  0138  1803               	skipnc
  1762  0139  293F               	goto	l833
  1763  013A                     l5397:	
  1764                           
  1765                           ;main.c: 1007: {
  1766                           ;main.c: 1008: uiOldValue = uiCh5Value;
  1767  013A  1283               	bcf	3,5	;RP0=0, select bank0
  1768  013B  0849               	movf	main@uiCh5Value+1,w
  1769  013C  00CB               	movwf	main@uiOldValue+1
  1770  013D  0848               	movf	main@uiCh5Value,w
  1771  013E  00CA               	movwf	main@uiOldValue
  1772  013F                     l833:	
  1773                           
  1774                           ;main.c: 1009: }
  1775                           ;main.c: 1011: if( uiOldValue < 1931 )
  1776  013F  3007               	movlw	7
  1777  0140  1283               	bcf	3,5	;RP0=0, select bank0
  1778  0141  024B               	subwf	main@uiOldValue+1,w
  1779  0142  308B               	movlw	139
  1780  0143  1903               	skipnz
  1781  0144  024A               	subwf	main@uiOldValue,w
  1782  0145  1803               	skipnc
  1783  0146  2949               	goto	l5401
  1784                           
  1785                           ;main.c: 1012: ucChannel5Type = LESS_THAN_1911;
  1786  0147  01D4               	clrf	_ucChannel5Type
  1787  0148  2967               	goto	l837
  1788  0149                     l5401:	
  1789                           
  1790                           ;main.c: 1013: else if( uiOldValue < 2047 )
  1791  0149  3007               	movlw	7
  1792  014A  024B               	subwf	main@uiOldValue+1,w
  1793  014B  30FF               	movlw	255
  1794  014C  1903               	skipnz
  1795  014D  024A               	subwf	main@uiOldValue,w
  1796  014E  1803               	skipnc
  1797  014F  2953               	goto	l5405
  1798                           
  1799                           ;main.c: 1014: ucChannel5Type = BETWEEN_1911_AND_2067;
  1800  0150  01D4               	clrf	_ucChannel5Type
  1801  0151  0AD4               	incf	_ucChannel5Type,f
  1802  0152  2967               	goto	l837
  1803  0153                     l5405:	
  1804                           
  1805                           ;main.c: 1015: else if( uiOldValue < 2164 )
  1806  0153  3008               	movlw	8
  1807  0154  024B               	subwf	main@uiOldValue+1,w
  1808  0155  3074               	movlw	116
  1809  0156  1903               	skipnz
  1810  0157  024A               	subwf	main@uiOldValue,w
  1811  0158  1803               	skipnc
  1812  0159  295C               	goto	l5409
  1813                           
  1814                           ;main.c: 1016: ucChannel5Type = BETWEEN_2067_AND_2204;
  1815  015A  3002               	movlw	2
  1816  015B  2966               	goto	L4
  1817  015C                     l5409:	
  1818                           
  1819                           ;main.c: 1017: else if( uiOldValue < 2281 )
  1820  015C  3008               	movlw	8
  1821  015D  024B               	subwf	main@uiOldValue+1,w
  1822  015E  30E9               	movlw	233
  1823  015F  1903               	skipnz
  1824  0160  024A               	subwf	main@uiOldValue,w
  1825  0161  1803               	skipnc
  1826  0162  2965               	goto	l5413
  1827                           
  1828                           ;main.c: 1018: ucChannel5Type = BETWEEN_2204_AND_2340;
  1829  0163  3003               	movlw	3
  1830  0164  2966               	goto	L4
  1831  0165                     l5413:	
  1832                           
  1833                           ;main.c: 1019: else
  1834                           ;main.c: 1020: ucChannel5Type = MORE_THAN_2340;
  1835  0165  3004               	movlw	4
  1836  0166                     L4:	
  1837  0166  00D4               	movwf	_ucChannel5Type
  1838  0167                     l837:	
  1839                           
  1840                           ;main.c: 1022: ucADC4_Step = ADC4_STEP_SECOND;
  1841  0167  3002               	movlw	2
  1842  0168  2C31               	goto	L12
  1843  0169                     l5415:	
  1844                           ;main.c: 1023: break;
  1845                           
  1846                           
  1847                           ;main.c: 1042: {
  1848                           ;main.c: 1043: setPA1(1);
  1849  0169  3001               	movlw	1
  1850  016A  118A  25B8  118A   	fcall	_setPA1
  1851  016D                     l5417:	
  1852                           
  1853                           ;main.c: 1044: ucLoaderStep++;
  1854  016D  0AD7               	incf	main@ucLoaderStep,f
  1855                           
  1856                           ;main.c: 1045: break;
  1857  016E  2830               	goto	l5259
  1858  016F                     l5419:	
  1859                           
  1860                           ;main.c: 1049: {
  1861                           ;main.c: 1050: if(ucTimerDelay >= 5)
  1862  016F  3005               	movlw	5
  1863  0170  025E               	subwf	main@ucTimerDelay,w
  1864  0171  1C03               	skipc
  1865  0172  2979               	goto	l5427
  1866                           
  1867                           ;main.c: 1051: {
  1868                           ;main.c: 1052: setPA0(1);
  1869  0173  3001               	movlw	1
  1870  0174  118A  25AF  118A   	fcall	_setPA0
  1871  0177                     l5423:	
  1872                           
  1873                           ;main.c: 1053: ucTimerDelay = 0;
  1874  0177  01DE               	clrf	main@ucTimerDelay
  1875  0178  296D               	goto	l5417
  1876  0179                     l5427:	
  1877                           
  1878                           ;main.c: 1056: else
  1879                           ;main.c: 1057: ucTimerDelay++;
  1880  0179  0ADE               	incf	main@ucTimerDelay,f
  1881  017A  2830               	goto	l5259
  1882  017B                     l5429:	
  1883                           
  1884                           ;main.c: 1062: {
  1885                           ;main.c: 1063: if(ucTimerDelay >= 5)
  1886  017B  3005               	movlw	5
  1887  017C  025E               	subwf	main@ucTimerDelay,w
  1888  017D  1C03               	skipc
  1889  017E  2979               	goto	l5427
  1890                           
  1891                           ;main.c: 1064: {
  1892                           ;main.c: 1065: setPB0(1);
  1893  017F  3001               	movlw	1
  1894  0180  118A  2597  118A   	fcall	_setPB0
  1895  0183  2977               	goto	l5423
  1896  0184                     l5439:	
  1897                           
  1898                           ;main.c: 1076: {
  1899                           ;main.c: 1077: if(ucTimerDelay >= 5)
  1900  0184  3005               	movlw	5
  1901  0185  025E               	subwf	main@ucTimerDelay,w
  1902  0186  1C03               	skipc
  1903  0187  2979               	goto	l5427
  1904                           
  1905                           ;main.c: 1078: {
  1906                           ;main.c: 1079: setPB1(1);
  1907  0188  3001               	movlw	1
  1908  0189  118A  259F  118A   	fcall	_setPB1
  1909  018C  2977               	goto	l5423
  1910  018D                     l5449:	
  1911                           
  1912                           ;main.c: 1089: {
  1913                           ;main.c: 1090: if(ucTimerDelay >= 5)
  1914  018D  3005               	movlw	5
  1915  018E  025E               	subwf	main@ucTimerDelay,w
  1916  018F  1C03               	skipc
  1917  0190  2979               	goto	l5427
  1918                           
  1919                           ;main.c: 1091: {
  1920                           ;main.c: 1092: setPB2(1);
  1921  0191  3001               	movlw	1
  1922  0192  118A  25A7  118A   	fcall	_setPB2
  1923  0195  2977               	goto	l5423
  1924  0196                     l5459:	
  1925                           
  1926                           ;main.c: 1102: {
  1927                           ;main.c: 1103: if(ucTimerDelay >= 5)
  1928  0196  3005               	movlw	5
  1929  0197  025E               	subwf	main@ucTimerDelay,w
  1930  0198  1C03               	skipc
  1931  0199  2979               	goto	l5427
  1932                           
  1933                           ;main.c: 1104: {
  1934                           ;main.c: 1106: setPA0(0);
  1935  019A  3000               	movlw	0
  1936  019B  118A  25AF  118A   	fcall	_setPA0
  1937                           
  1938                           ;main.c: 1107: setPB0(0);
  1939  019E  3000               	movlw	0
  1940  019F  118A  2597  118A   	fcall	_setPB0
  1941                           
  1942                           ;main.c: 1108: setPB1(0);
  1943  01A2  3000               	movlw	0
  1944  01A3  118A  259F  118A   	fcall	_setPB1
  1945                           
  1946                           ;main.c: 1109: setPB2(0);
  1947  01A6  3000               	movlw	0
  1948  01A7  118A  25A7  118A   	fcall	_setPB2
  1949  01AA  2977               	goto	l5423
  1950  01AB                     l5469:	
  1951                           
  1952                           ;main.c: 1119: {
  1953                           ;main.c: 1120: if(ucTimerDelay >= 1)
  1954  01AB  085E               	movf	main@ucTimerDelay,w
  1955  01AC  1903               	btfsc	3,2
  1956  01AD  2979               	goto	l5427
  1957                           
  1958                           ;main.c: 1121: {
  1959                           ;main.c: 1122: ucTimerDelay = 0;
  1960  01AE  01DE               	clrf	main@ucTimerDelay
  1961                           
  1962                           ;main.c: 1124: ucLoaderStep = 0;
  1963  01AF  01D7               	clrf	main@ucLoaderStep
  1964  01B0                     l5473:	
  1965                           
  1966                           ;main.c: 1125: ucADC4_Step = ADC4_STEP_THIRD;
  1967  01B0  3003               	movlw	3
  1968  01B1  2C31               	goto	L12
  1969  01B2                     l5479:	
  1970                           ;main.c: 1126: }
  1971                           
  1972  01B2  0857               	movf	main@ucLoaderStep,w
  1973                           
  1974                           ; Switch size 1, requested type "space"
  1975                           ; Number of cases is 7, Range of values is 0 to 6
  1976                           ; switch strategies available:
  1977                           ; Name         Instructions Cycles
  1978                           ; direct_byte           21     7 (fixed)
  1979                           ; simple_byte           22    12 (average)
  1980                           ; jumptable            260     6 (fixed)
  1981                           ; rangetable            11     6 (fixed)
  1982                           ; spacedrange           20     9 (fixed)
  1983                           ; locatedrange           7     3 (fixed)
  1984                           ;	Chosen strategy is direct_byte
  1985  01B3  0084               	movwf	4
  1986  01B4  3007               	movlw	7
  1987  01B5  0204               	subwf	4,w
  1988  01B6  1803               	skipnc
  1989  01B7  2830               	goto	l5259
  1990  01B8  3008               	movlw	high S6291
  1991  01B9  008A               	movwf	10
  1992  01BA  1003               	clrc
  1993  01BB  0D04               	rlf	4,w
  1994  01BC  3E1A               	addlw	low S6291
  1995  01BD  0082               	movwf	2
  1996  01BE                     l5481:	
  1997                           
  1998                           ;main.c: 1147: {
  1999                           ;main.c: 1148: setPA1(1);
  2000  01BE  3001               	movlw	1
  2001  01BF  118A  25B8  118A   	fcall	_setPA1
  2002  01C2                     l5483:	
  2003                           
  2004                           ;main.c: 1149: ucLoaderStep1++;
  2005  01C2  0AD8               	incf	main@ucLoaderStep1,f
  2006                           
  2007                           ;main.c: 1150: break;
  2008  01C3  2830               	goto	l5259
  2009  01C4                     l5485:	
  2010                           
  2011                           ;main.c: 1154: {
  2012                           ;main.c: 1155: if(ucTimerDelay1 >= 5)
  2013  01C4  3005               	movlw	5
  2014  01C5  025F               	subwf	main@ucTimerDelay1,w
  2015  01C6  1C03               	skipc
  2016  01C7  29CE               	goto	l5493
  2017                           
  2018                           ;main.c: 1156: {
  2019                           ;main.c: 1157: setPA0(1);
  2020  01C8  3001               	movlw	1
  2021  01C9  118A  25AF  118A   	fcall	_setPA0
  2022  01CC                     l5489:	
  2023                           
  2024                           ;main.c: 1158: ucTimerDelay1 = 0;
  2025  01CC  01DF               	clrf	main@ucTimerDelay1
  2026  01CD  29C2               	goto	l5483
  2027  01CE                     l5493:	
  2028                           
  2029                           ;main.c: 1161: else
  2030                           ;main.c: 1162: ucTimerDelay1++;
  2031  01CE  0ADF               	incf	main@ucTimerDelay1,f
  2032  01CF  2830               	goto	l5259
  2033  01D0                     l5495:	
  2034                           
  2035                           ;main.c: 1167: {
  2036                           ;main.c: 1168: if(ucTimerDelay1 >= 5)
  2037  01D0  3005               	movlw	5
  2038  01D1  025F               	subwf	main@ucTimerDelay1,w
  2039  01D2  1C03               	skipc
  2040  01D3  29CE               	goto	l5493
  2041                           
  2042                           ;main.c: 1169: {
  2043                           ;main.c: 1170: setPB0(1);
  2044  01D4  3001               	movlw	1
  2045  01D5  118A  2597  118A   	fcall	_setPB0
  2046  01D8  29CC               	goto	l5489
  2047  01D9                     l5505:	
  2048                           
  2049                           ;main.c: 1180: {
  2050                           ;main.c: 1181: if(ucTimerDelay1 >= 5)
  2051  01D9  3005               	movlw	5
  2052  01DA  025F               	subwf	main@ucTimerDelay1,w
  2053  01DB  1C03               	skipc
  2054  01DC  29CE               	goto	l5493
  2055                           
  2056                           ;main.c: 1182: {
  2057                           ;main.c: 1184: setPB1(1);
  2058  01DD  3001               	movlw	1
  2059  01DE  118A  259F  118A   	fcall	_setPB1
  2060  01E1  29CC               	goto	l5489
  2061  01E2                     l5515:	
  2062                           
  2063                           ;main.c: 1194: {
  2064                           ;main.c: 1195: if(ucTimerDelay1 >= 5)
  2065  01E2  3005               	movlw	5
  2066  01E3  025F               	subwf	main@ucTimerDelay1,w
  2067  01E4  1C03               	skipc
  2068  01E5  29CE               	goto	l5493
  2069                           
  2070                           ;main.c: 1196: {
  2071                           ;main.c: 1198: setPB2(1);
  2072  01E6  3001               	movlw	1
  2073  01E7  118A  25A7  118A   	fcall	_setPB2
  2074  01EA  29CC               	goto	l5489
  2075  01EB                     l5525:	
  2076                           
  2077                           ;main.c: 1208: {
  2078                           ;main.c: 1209: if(ucTimerDelay1 >= 5)
  2079  01EB  3005               	movlw	5
  2080  01EC  025F               	subwf	main@ucTimerDelay1,w
  2081  01ED  1C03               	skipc
  2082  01EE  29CE               	goto	l5493
  2083                           
  2084                           ;main.c: 1210: {
  2085                           ;main.c: 1211: setPA0(0);
  2086  01EF  3000               	movlw	0
  2087  01F0  118A  25AF  118A   	fcall	_setPA0
  2088                           
  2089                           ;main.c: 1213: setPB0(0);
  2090  01F3  3000               	movlw	0
  2091  01F4  118A  2597  118A   	fcall	_setPB0
  2092                           
  2093                           ;main.c: 1215: setPB1(0);
  2094  01F7  3000               	movlw	0
  2095  01F8  118A  259F  118A   	fcall	_setPB1
  2096                           
  2097                           ;main.c: 1217: setPB2(0);
  2098  01FB  3000               	movlw	0
  2099  01FC  118A  25A7  118A   	fcall	_setPB2
  2100  01FF  29CC               	goto	l5489
  2101  0200                     l5535:	
  2102                           
  2103                           ;main.c: 1227: {
  2104                           ;main.c: 1228: if(ucTimerDelay1 >= 1)
  2105  0200  085F               	movf	main@ucTimerDelay1,w
  2106  0201  1903               	btfsc	3,2
  2107  0202  29CE               	goto	l5493
  2108                           
  2109                           ;main.c: 1229: {
  2110                           ;main.c: 1230: ucTimerDelay1 = 0;
  2111  0203  01DF               	clrf	main@ucTimerDelay1
  2112                           
  2113                           ;main.c: 1232: ucLoaderStep1 = 0;
  2114  0204  01D8               	clrf	main@ucLoaderStep1
  2115  0205  29B0               	goto	l5473
  2116  0206                     l5545:	
  2117  0206  0858               	movf	main@ucLoaderStep1,w
  2118                           
  2119                           ; Switch size 1, requested type "space"
  2120                           ; Number of cases is 7, Range of values is 0 to 6
  2121                           ; switch strategies available:
  2122                           ; Name         Instructions Cycles
  2123                           ; direct_byte           21     7 (fixed)
  2124                           ; simple_byte           22    12 (average)
  2125                           ; jumptable            260     6 (fixed)
  2126                           ; rangetable            11     6 (fixed)
  2127                           ; spacedrange           20     9 (fixed)
  2128                           ; locatedrange           7     3 (fixed)
  2129                           ;	Chosen strategy is direct_byte
  2130  0207  0084               	movwf	4
  2131  0208  3007               	movlw	7
  2132  0209  0204               	subwf	4,w
  2133  020A  1803               	skipnc
  2134  020B  2830               	goto	l5259
  2135  020C  3008               	movlw	high S6293
  2136  020D  008A               	movwf	10
  2137  020E  1003               	clrc
  2138  020F  0D04               	rlf	4,w
  2139  0210  3E28               	addlw	low S6293
  2140  0211  0082               	movwf	2
  2141  0212                     l5547:	
  2142                           
  2143                           ;main.c: 1256: {
  2144                           ;main.c: 1258: setPA1(1);
  2145  0212  3001               	movlw	1
  2146  0213  118A  25B8  118A   	fcall	_setPA1
  2147                           
  2148                           ;main.c: 1260: setPA0(1);
  2149  0216  3001               	movlw	1
  2150  0217  118A  25AF  118A   	fcall	_setPA0
  2151  021A                     l5549:	
  2152                           
  2153                           ;main.c: 1261: ucLoaderStep2++;
  2154  021A  0AD9               	incf	main@ucLoaderStep2,f
  2155                           
  2156                           ;main.c: 1262: break;
  2157  021B  2830               	goto	l5259
  2158  021C                     l5551:	
  2159                           
  2160                           ;main.c: 1266: {
  2161                           ;main.c: 1267: if(ucTimerDelay2 >= 5)
  2162  021C  3005               	movlw	5
  2163  021D  0260               	subwf	main@ucTimerDelay2,w
  2164  021E  1C03               	skipc
  2165  021F  2A26               	goto	l5559
  2166                           
  2167                           ;main.c: 1268: {
  2168                           ;main.c: 1270: setPB0(1);
  2169  0220  3001               	movlw	1
  2170  0221  118A  2597  118A   	fcall	_setPB0
  2171  0224                     l5555:	
  2172                           
  2173                           ;main.c: 1271: ucTimerDelay2 = 0;
  2174  0224  01E0               	clrf	main@ucTimerDelay2
  2175  0225  2A1A               	goto	l5549
  2176  0226                     l5559:	
  2177                           
  2178                           ;main.c: 1274: else
  2179                           ;main.c: 1275: ucTimerDelay2++;
  2180  0226  0AE0               	incf	main@ucTimerDelay2,f
  2181  0227  2830               	goto	l5259
  2182  0228                     l5561:	
  2183                           
  2184                           ;main.c: 1280: {
  2185                           ;main.c: 1281: if(ucTimerDelay2 >= 5)
  2186  0228  3005               	movlw	5
  2187  0229  0260               	subwf	main@ucTimerDelay2,w
  2188  022A  1C03               	skipc
  2189  022B  2A26               	goto	l5559
  2190                           
  2191                           ;main.c: 1282: {
  2192                           ;main.c: 1284: setPB1(1);
  2193  022C  3001               	movlw	1
  2194  022D  118A  259F  118A   	fcall	_setPB1
  2195  0230  2A24               	goto	l5555
  2196  0231                     l5571:	
  2197                           
  2198                           ;main.c: 1294: {
  2199                           ;main.c: 1295: if(ucTimerDelay2 >= 5)
  2200  0231  3005               	movlw	5
  2201  0232  0260               	subwf	main@ucTimerDelay2,w
  2202  0233  1C03               	skipc
  2203  0234  2A26               	goto	l5559
  2204                           
  2205                           ;main.c: 1296: {
  2206                           ;main.c: 1298: setPB2(1);
  2207  0235  3001               	movlw	1
  2208  0236  118A  25A7  118A   	fcall	_setPB2
  2209  0239  2A24               	goto	l5555
  2210  023A                     l5581:	
  2211                           
  2212                           ;main.c: 1308: {
  2213                           ;main.c: 1309: if(ucTimerDelay2 >= 5)
  2214  023A  3005               	movlw	5
  2215  023B  0260               	subwf	main@ucTimerDelay2,w
  2216  023C  1C03               	skipc
  2217  023D  2A26               	goto	l5559
  2218                           
  2219                           ;main.c: 1310: {
  2220                           ;main.c: 1313: setPB0(0);
  2221  023E  3000               	movlw	0
  2222  023F  118A  2597  118A   	fcall	_setPB0
  2223                           
  2224                           ;main.c: 1315: setPB1(0);
  2225  0242  3000               	movlw	0
  2226  0243  118A  259F  118A   	fcall	_setPB1
  2227                           
  2228                           ;main.c: 1317: setPB2(0);
  2229  0246  3000               	movlw	0
  2230  0247  118A  25A7  118A   	fcall	_setPB2
  2231  024A  2A24               	goto	l5555
  2232  024B                     l5591:	
  2233                           
  2234                           ;main.c: 1327: {
  2235                           ;main.c: 1328: if(ucTimerDelay2 >= 1)
  2236  024B  0860               	movf	main@ucTimerDelay2,w
  2237  024C  1903               	btfsc	3,2
  2238  024D  2A26               	goto	l5559
  2239                           
  2240                           ;main.c: 1329: {
  2241                           ;main.c: 1330: ucTimerDelay2 = 0;
  2242  024E  01E0               	clrf	main@ucTimerDelay2
  2243                           
  2244                           ;main.c: 1332: ucLoaderStep2 = 0;
  2245  024F  01D9               	clrf	main@ucLoaderStep2
  2246  0250  29B0               	goto	l5473
  2247  0251                     l5601:	
  2248  0251  0859               	movf	main@ucLoaderStep2,w
  2249                           
  2250                           ; Switch size 1, requested type "space"
  2251                           ; Number of cases is 6, Range of values is 0 to 5
  2252                           ; switch strategies available:
  2253                           ; Name         Instructions Cycles
  2254                           ; direct_byte           19     7 (fixed)
  2255                           ; simple_byte           19    10 (average)
  2256                           ; jumptable            260     6 (fixed)
  2257                           ; rangetable            10     6 (fixed)
  2258                           ; spacedrange           18     9 (fixed)
  2259                           ; locatedrange           6     3 (fixed)
  2260                           ;	Chosen strategy is direct_byte
  2261  0252  0084               	movwf	4
  2262  0253  3006               	movlw	6
  2263  0254  0204               	subwf	4,w
  2264  0255  1803               	skipnc
  2265  0256  2830               	goto	l5259
  2266  0257  3008               	movlw	high S6295
  2267  0258  008A               	movwf	10
  2268  0259  1003               	clrc
  2269  025A  0D04               	rlf	4,w
  2270  025B  3E36               	addlw	low S6295
  2271  025C  0082               	movwf	2
  2272  025D                     l5603:	
  2273                           
  2274                           ;main.c: 1356: {
  2275                           ;main.c: 1358: setPB0(1);
  2276  025D  3001               	movlw	1
  2277  025E  118A  2597  118A   	fcall	_setPB0
  2278                           
  2279                           ;main.c: 1360: setPA0(1);
  2280  0261  3001               	movlw	1
  2281  0262  118A  25AF  118A   	fcall	_setPA0
  2282                           
  2283                           ;main.c: 1362: setPA1(1);
  2284  0265  3001               	movlw	1
  2285  0266  118A  25B8  118A   	fcall	_setPA1
  2286  0269                     l5605:	
  2287                           
  2288                           ;main.c: 1363: ucLoaderStep3++;
  2289  0269  0ADA               	incf	main@ucLoaderStep3,f
  2290                           
  2291                           ;main.c: 1364: break;
  2292  026A  2830               	goto	l5259
  2293  026B                     l5607:	
  2294                           
  2295                           ;main.c: 1368: {
  2296                           ;main.c: 1369: if(ucTimerDelay3 >= 5)
  2297  026B  3005               	movlw	5
  2298  026C  0261               	subwf	main@ucTimerDelay3,w
  2299  026D  1C03               	skipc
  2300  026E  2A75               	goto	l5615
  2301                           
  2302                           ;main.c: 1370: {
  2303                           ;main.c: 1372: setPB1(1);
  2304  026F  3001               	movlw	1
  2305  0270  118A  259F  118A   	fcall	_setPB1
  2306  0273                     l5611:	
  2307                           
  2308                           ;main.c: 1373: ucTimerDelay3 = 0;
  2309  0273  01E1               	clrf	main@ucTimerDelay3
  2310  0274  2A69               	goto	l5605
  2311  0275                     l5615:	
  2312                           
  2313                           ;main.c: 1376: else
  2314                           ;main.c: 1377: ucTimerDelay3++;
  2315  0275  0AE1               	incf	main@ucTimerDelay3,f
  2316  0276  2830               	goto	l5259
  2317  0277                     l5617:	
  2318                           
  2319                           ;main.c: 1382: {
  2320                           ;main.c: 1383: if(ucTimerDelay3 >= 5)
  2321  0277  3005               	movlw	5
  2322  0278  0261               	subwf	main@ucTimerDelay3,w
  2323  0279  1C03               	skipc
  2324  027A  2A75               	goto	l5615
  2325                           
  2326                           ;main.c: 1384: {
  2327                           ;main.c: 1386: setPB2(1);
  2328  027B  3001               	movlw	1
  2329  027C  118A  25A7  118A   	fcall	_setPB2
  2330  027F  2A73               	goto	l5611
  2331  0280                     l5627:	
  2332                           
  2333                           ;main.c: 1397: {
  2334                           ;main.c: 1398: if(ucTimerDelay3 >= 5)
  2335  0280  3005               	movlw	5
  2336  0281  0261               	subwf	main@ucTimerDelay3,w
  2337  0282  1C03               	skipc
  2338  0283  2A75               	goto	l5615
  2339                           
  2340                           ;main.c: 1399: {
  2341                           ;main.c: 1402: setPB1(0);
  2342  0284  3000               	movlw	0
  2343  0285  118A  259F  118A   	fcall	_setPB1
  2344                           
  2345                           ;main.c: 1404: setPB2(0);
  2346  0288  3000               	movlw	0
  2347  0289  118A  25A7  118A   	fcall	_setPB2
  2348  028C  2A73               	goto	l5611
  2349  028D                     l5637:	
  2350                           
  2351                           ;main.c: 1414: {
  2352                           ;main.c: 1415: if(ucTimerDelay3 >= 1)
  2353  028D  0861               	movf	main@ucTimerDelay3,w
  2354  028E  1903               	btfsc	3,2
  2355  028F  2A75               	goto	l5615
  2356                           
  2357                           ;main.c: 1416: {
  2358                           ;main.c: 1417: ucTimerDelay3 = 0;
  2359  0290  01E1               	clrf	main@ucTimerDelay3
  2360                           
  2361                           ;main.c: 1419: ucLoaderStep3 = 0;
  2362  0291  01DA               	clrf	main@ucLoaderStep3
  2363  0292  29B0               	goto	l5473
  2364  0293                     l5647:	
  2365  0293  085A               	movf	main@ucLoaderStep3,w
  2366                           
  2367                           ; Switch size 1, requested type "space"
  2368                           ; Number of cases is 5, Range of values is 0 to 4
  2369                           ; switch strategies available:
  2370                           ; Name         Instructions Cycles
  2371                           ; simple_byte           16     9 (average)
  2372                           ; direct_byte           17     7 (fixed)
  2373                           ; jumptable            260     6 (fixed)
  2374                           ; rangetable             9     6 (fixed)
  2375                           ; spacedrange           16     9 (fixed)
  2376                           ; locatedrange           5     3 (fixed)
  2377                           ;	Chosen strategy is simple_byte
  2378  0294  3A00               	xorlw	0	; case 0
  2379  0295  1903               	skipnz
  2380  0296  2A5D               	goto	l5603
  2381  0297  3A01               	xorlw	1	; case 1
  2382  0298  1903               	skipnz
  2383  0299  2A6B               	goto	l5607
  2384  029A  3A03               	xorlw	3	; case 2
  2385  029B  1903               	skipnz
  2386  029C  2A77               	goto	l5617
  2387  029D  3A01               	xorlw	1	; case 3
  2388  029E  1903               	skipnz
  2389  029F  2A80               	goto	l5627
  2390  02A0  3A07               	xorlw	7	; case 4
  2391  02A1  1903               	skipnz
  2392  02A2  2A8D               	goto	l5637
  2393  02A3  285B               	goto	l772
  2394  02A4                     l5649:	
  2395                           
  2396                           ;main.c: 1443: {
  2397                           ;main.c: 1445: setPB0(1);
  2398  02A4  3001               	movlw	1
  2399  02A5  118A  2597  118A   	fcall	_setPB0
  2400                           
  2401                           ;main.c: 1447: setPA0(1);
  2402  02A8  3001               	movlw	1
  2403  02A9  118A  25AF  118A   	fcall	_setPA0
  2404                           
  2405                           ;main.c: 1449: setPA1(1);
  2406  02AC  3001               	movlw	1
  2407  02AD  118A  25B8  118A   	fcall	_setPA1
  2408                           
  2409                           ;main.c: 1451: setPB1(1);
  2410  02B0  3001               	movlw	1
  2411  02B1  118A  259F  118A   	fcall	_setPB1
  2412  02B4                     l5651:	
  2413                           
  2414                           ;main.c: 1452: ucLoaderStep4++;
  2415  02B4  0ADB               	incf	main@ucLoaderStep4,f
  2416                           
  2417                           ;main.c: 1453: break;
  2418  02B5  2830               	goto	l5259
  2419  02B6                     l5653:	
  2420                           
  2421                           ;main.c: 1457: {
  2422                           ;main.c: 1458: if(ucTimerDelay4 >= 5)
  2423  02B6  3005               	movlw	5
  2424  02B7  0262               	subwf	main@ucTimerDelay4,w
  2425  02B8  1C03               	skipc
  2426  02B9  2AC0               	goto	l5661
  2427                           
  2428                           ;main.c: 1459: {
  2429                           ;main.c: 1461: setPB2(1);
  2430  02BA  3001               	movlw	1
  2431  02BB                     L7:	
  2432  02BB  118A  25A7  118A   	fcall	_setPB2
  2433                           
  2434                           ;main.c: 1462: ucTimerDelay4 = 0;
  2435  02BE  01E2               	clrf	main@ucTimerDelay4
  2436  02BF  2AB4               	goto	l5651
  2437  02C0                     l5661:	
  2438                           
  2439                           ;main.c: 1465: else
  2440                           ;main.c: 1466: ucTimerDelay4++;
  2441  02C0  0AE2               	incf	main@ucTimerDelay4,f
  2442  02C1  2830               	goto	l5259
  2443  02C2                     l5663:	
  2444                           
  2445                           ;main.c: 1471: {
  2446                           ;main.c: 1472: if(ucTimerDelay4 >= 5)
  2447  02C2  3005               	movlw	5
  2448  02C3  0262               	subwf	main@ucTimerDelay4,w
  2449  02C4  1C03               	skipc
  2450  02C5  2AC0               	goto	l5661
  2451                           
  2452                           ;main.c: 1473: {
  2453                           ;main.c: 1475: setPB2(0);
  2454  02C6  3000               	movlw	0
  2455  02C7  2ABB               	goto	L7
  2456  02C8                     l5673:	
  2457                           
  2458                           ;main.c: 1485: {
  2459                           ;main.c: 1486: if(ucTimerDelay4 >= 1)
  2460  02C8  0862               	movf	main@ucTimerDelay4,w
  2461  02C9  1903               	btfsc	3,2
  2462  02CA  2AC0               	goto	l5661
  2463                           
  2464                           ;main.c: 1487: {
  2465                           ;main.c: 1488: ucTimerDelay4 = 0;
  2466  02CB  01E2               	clrf	main@ucTimerDelay4
  2467                           
  2468                           ;main.c: 1490: ucLoaderStep4 = 0;
  2469  02CC  01DB               	clrf	main@ucLoaderStep4
  2470  02CD  29B0               	goto	l5473
  2471  02CE                     l5683:	
  2472  02CE  085B               	movf	main@ucLoaderStep4,w
  2473                           
  2474                           ; Switch size 1, requested type "space"
  2475                           ; Number of cases is 4, Range of values is 0 to 3
  2476                           ; switch strategies available:
  2477                           ; Name         Instructions Cycles
  2478                           ; simple_byte           13     7 (average)
  2479                           ; direct_byte           15     7 (fixed)
  2480                           ; jumptable            260     6 (fixed)
  2481                           ; rangetable             8     6 (fixed)
  2482                           ; spacedrange           14     9 (fixed)
  2483                           ; locatedrange           4     3 (fixed)
  2484                           ;	Chosen strategy is simple_byte
  2485  02CF  3A00               	xorlw	0	; case 0
  2486  02D0  1903               	skipnz
  2487  02D1  2AA4               	goto	l5649
  2488  02D2  3A01               	xorlw	1	; case 1
  2489  02D3  1903               	skipnz
  2490  02D4  2AB6               	goto	l5653
  2491  02D5  3A03               	xorlw	3	; case 2
  2492  02D6  1903               	skipnz
  2493  02D7  2AC2               	goto	l5663
  2494  02D8  3A01               	xorlw	1	; case 3
  2495  02D9  1903               	skipnz
  2496  02DA  2AC8               	goto	l5673
  2497  02DB  285B               	goto	l772
  2498  02DC                     l5687:	
  2499  02DC  0854               	movf	_ucChannel5Type,w
  2500                           
  2501                           ; Switch size 1, requested type "space"
  2502                           ; Number of cases is 5, Range of values is 0 to 4
  2503                           ; switch strategies available:
  2504                           ; Name         Instructions Cycles
  2505                           ; simple_byte           16     9 (average)
  2506                           ; direct_byte           17     7 (fixed)
  2507                           ; jumptable            260     6 (fixed)
  2508                           ; rangetable             9     6 (fixed)
  2509                           ; spacedrange           16     9 (fixed)
  2510                           ; locatedrange           5     3 (fixed)
  2511                           ;	Chosen strategy is simple_byte
  2512  02DD  3A00               	xorlw	0	; case 0
  2513  02DE  1903               	skipnz
  2514  02DF  29B2               	goto	l5479
  2515  02E0  3A01               	xorlw	1	; case 1
  2516  02E1  1903               	skipnz
  2517  02E2  2A06               	goto	l5545
  2518  02E3  3A03               	xorlw	3	; case 2
  2519  02E4  1903               	skipnz
  2520  02E5  2A51               	goto	l5601
  2521  02E6  3A01               	xorlw	1	; case 3
  2522  02E7  1903               	skipnz
  2523  02E8  2A93               	goto	l5647
  2524  02E9  3A07               	xorlw	7	; case 4
  2525  02EA  1903               	skipnz
  2526  02EB  2ACE               	goto	l5683
  2527  02EC  285B               	goto	l772
  2528  02ED                     l5689:	
  2529                           
  2530                           ;main.c: 1514: {
  2531                           ;main.c: 1518: static unsigned char ucTimerDelayP2sLess = 0;
  2532                           ;main.c: 1520: static unsigned char ucTimerDelayP2sMore = 0;
  2533                           ;main.c: 1522: if( getAdOriginalCh6Value() <= 150 )
  2534  02ED  118A  270F  118A   	fcall	_getAdOriginalCh6Value
  2535  02F0  3000               	movlw	0
  2536  02F1  0247               	subwf	?_getAdOriginalCh6Value+1,w
  2537  02F2  3097               	movlw	151
  2538  02F3  1903               	skipnz
  2539  02F4  0246               	subwf	?_getAdOriginalCh6Value,w
  2540  02F5  1803               	skipnc
  2541  02F6  2AFA               	goto	l5695
  2542                           
  2543                           ;main.c: 1523: {
  2544                           ;main.c: 1524: ucTimerDelayP2sLess++;
  2545  02F7  0AE3               	incf	main@ucTimerDelayP2sLess,f
  2546                           
  2547                           ;main.c: 1525: ucTimerDelayP2sMore = 0;
  2548  02F8  01E4               	clrf	main@ucTimerDelayP2sMore
  2549                           
  2550                           ;main.c: 1526: }
  2551  02F9  2AFC               	goto	l5699
  2552  02FA                     l5695:	
  2553                           
  2554                           ;main.c: 1527: else
  2555                           ;main.c: 1528: {
  2556                           ;main.c: 1529: ucTimerDelayP2sMore++;
  2557  02FA  0AE4               	incf	main@ucTimerDelayP2sMore,f
  2558                           
  2559                           ;main.c: 1530: ucTimerDelayP2sLess = 0;
  2560  02FB  01E3               	clrf	main@ucTimerDelayP2sLess
  2561  02FC                     l5699:	
  2562                           
  2563                           ;main.c: 1531: }
  2564                           ;main.c: 1533: if(ucTimerDelayP2sLess > 200)
  2565  02FC  30C9               	movlw	201
  2566  02FD  0263               	subwf	main@ucTimerDelayP2sLess,w
  2567  02FE  1C03               	skipc
  2568  02FF  2B02               	goto	l972
  2569                           
  2570                           ;main.c: 1534: ucTimerDelayP2sLess = 2;
  2571  0300  3002               	movlw	2
  2572  0301  00E3               	movwf	main@ucTimerDelayP2sLess
  2573  0302                     l972:	
  2574                           
  2575                           ;main.c: 1537: if(ucTimerDelayP2sMore > 200)
  2576  0302  30C9               	movlw	201
  2577  0303  0264               	subwf	main@ucTimerDelayP2sMore,w
  2578                           
  2579                           ;main.c: 1538: ucTimerDelayP2sMore = 2;
  2580  0304  3002               	movlw	2
  2581  0305  1803               	btfsc	3,0
  2582  0306  00E4               	movwf	main@ucTimerDelayP2sMore
  2583                           
  2584                           ;main.c: 1540: if( ucTimerDelayP2sLess >= 2)
  2585  0307  0263               	subwf	main@ucTimerDelayP2sLess,w
  2586  0308  1C03               	skipc
  2587  0309  2B1E               	goto	l5715
  2588                           
  2589                           ;main.c: 1541: {
  2590                           ;main.c: 1542: ucTimerDelayP2sLess = 0;
  2591  030A  01E3               	clrf	main@ucTimerDelayP2sLess
  2592                           
  2593                           ;main.c: 1543: ucTimerDelayP2sMore = 0;
  2594  030B  01E4               	clrf	main@ucTimerDelayP2sMore
  2595                           
  2596                           ;main.c: 1545: startTwentySecondsTimer();
  2597  030C  158A  2657  118A   	fcall	_startTwentySecondsTimer
  2598                           
  2599                           ;main.c: 1548: if( !isFinishedTwentySecondsTimer() )
  2600  030F  158A  263F  118A   	fcall	_isFinishedTwentySecondsTimer
  2601  0312  3800               	iorlw	0
  2602  0313  1D03               	skipz
  2603  0314  2B19               	goto	l5713
  2604  0315                     l5711:	
  2605                           
  2606                           ;main.c: 1549: {
  2607                           ;main.c: 1554: call_ADC4_STEP_FOURTH_PREFIX2();
  2608  0315  118A  262E  118A   	fcall	_call_ADC4_STEP_FOURTH_PREFIX2
  2609                           
  2610                           ;main.c: 1555: }
  2611  0318  2830               	goto	l5259
  2612  0319                     l5713:	
  2613                           
  2614                           ;main.c: 1556: else
  2615                           ;main.c: 1558: {
  2616                           ;main.c: 1562: call_ADC4_STEP_FOURTH_PREFIX3(0);
  2617  0319  3000               	movlw	0
  2618  031A  118A  25D4  118A   	fcall	_call_ADC4_STEP_FOURTH_PREFIX3
  2619  031D  2830               	goto	l5259
  2620  031E                     l5715:	
  2621                           
  2622                           ;main.c: 1565: else if(ucTimerDelayP2sMore >= 2)
  2623  031E  3002               	movlw	2
  2624  031F  0264               	subwf	main@ucTimerDelayP2sMore,w
  2625  0320  1C03               	skipc
  2626  0321  2830               	goto	l5259
  2627                           
  2628                           ;main.c: 1566: {
  2629                           ;main.c: 1567: ucTimerDelayP2sMore = 0;
  2630  0322  01E4               	clrf	main@ucTimerDelayP2sMore
  2631                           
  2632                           ;main.c: 1568: ucTimerDelayP2sLess = 0;
  2633  0323  01E3               	clrf	main@ucTimerDelayP2sLess
  2634  0324  2B15               	goto	l5711
  2635  0325                     l5721:	
  2636                           
  2637                           ;main.c: 1585: {
  2638                           ;main.c: 1589: if( !isFinishedTwentySecondsTimer() )
  2639  0325  158A  263F  118A   	fcall	_isFinishedTwentySecondsTimer
  2640  0328  3800               	iorlw	0
  2641  0329  1D03               	skipz
  2642  032A  2B2D               	goto	l5725
  2643                           
  2644                           ;main.c: 1590: ucADC4_Step = ADC4_STEP_FOURTH_PREFIX2;
  2645  032B  3005               	movlw	5
  2646  032C  2C30               	goto	L17
  2647  032D                     l5725:	
  2648                           
  2649                           ;main.c: 1592: else
  2650                           ;main.c: 1593: ucADC4_Step = ADC4_STEP_FOURTH_PREFIX3;
  2651  032D  3006               	movlw	6
  2652  032E  2C30               	goto	L17
  2653  032F                     l5727:	
  2654                           
  2655                           ;main.c: 1600: {
  2656                           ;main.c: 1604: static unsigned char ucTimerCntMore = 0, ucTimerCntLess = 0;
  2657                           ;main.c: 1606: static unsigned char ucTimerCntMoreFlag = 0, ucTimerCntLessFlag = 0;
  2658                           ;main.c: 1608: if((getAdOriginalCh2Value() > 1950))
  2659  032F  118A  26FC  118A   	fcall	_getAdOriginalCh2Value
  2660  0332  3007               	movlw	7
  2661  0333  0247               	subwf	?_getAdOriginalCh2Value+1,w
  2662  0334  309F               	movlw	159
  2663  0335  1903               	skipnz
  2664  0336  0246               	subwf	?_getAdOriginalCh2Value,w
  2665  0337  1C03               	skipc
  2666  0338  2B3D               	goto	l5733
  2667                           
  2668                           ;main.c: 1609: {
  2669                           ;main.c: 1610: ucTimerCntMore++;
  2670  0339  0ADC               	incf	main@ucTimerCntMore,f
  2671                           
  2672                           ;main.c: 1611: ucTimerCntLess = 0;
  2673  033A  1683               	bsf	3,5	;RP0=1, select bank1
  2674  033B  01C7               	clrf	main@ucTimerCntLess^(0+128)
  2675                           
  2676                           ;main.c: 1612: }
  2677  033C  2B41               	goto	l5737
  2678  033D                     l5733:	
  2679                           
  2680                           ;main.c: 1613: else
  2681                           ;main.c: 1614: {
  2682                           ;main.c: 1615: ucTimerCntLess++;
  2683  033D  1683               	bsf	3,5	;RP0=1, select bank1
  2684  033E  0AC7               	incf	main@ucTimerCntLess^(0+128),f
  2685                           
  2686                           ;main.c: 1616: ucTimerCntMore = 0;
  2687  033F  1283               	bcf	3,5	;RP0=0, select bank0
  2688  0340  01DC               	clrf	main@ucTimerCntMore
  2689  0341                     l5737:	
  2690                           
  2691                           ;main.c: 1617: }
  2692                           ;main.c: 1619: if(ucTimerCntMore >= 2)
  2693  0341  3002               	movlw	2
  2694  0342  1283               	bcf	3,5	;RP0=0, select bank0
  2695  0343  025C               	subwf	main@ucTimerCntMore,w
  2696  0344  1C03               	skipc
  2697  0345  2B49               	goto	l5741
  2698                           
  2699                           ;main.c: 1620: ucTimerCntMoreFlag = 1;
  2700  0346  1683               	bsf	3,5	;RP0=1, select bank1
  2701  0347  01C9               	clrf	main@ucTimerCntMoreFlag^(0+128)
  2702  0348  0AC9               	incf	main@ucTimerCntMoreFlag^(0+128),f
  2703  0349                     l5741:	
  2704                           
  2705                           ;main.c: 1622: if(ucTimerCntLess >= 2)
  2706  0349  3002               	movlw	2
  2707  034A  1683               	bsf	3,5	;RP0=1, select bank1
  2708  034B  0247               	subwf	main@ucTimerCntLess^(0+128),w
  2709  034C  1C03               	skipc
  2710  034D  2B50               	goto	l5745
  2711                           
  2712                           ;main.c: 1623: ucTimerCntLessFlag = 1;
  2713  034E  01C8               	clrf	main@ucTimerCntLessFlag^(0+128)
  2714  034F  0AC8               	incf	main@ucTimerCntLessFlag^(0+128),f
  2715  0350                     l5745:	
  2716                           
  2717                           ;main.c: 1625: if( ucTimerCntLessFlag )
  2718  0350  0848               	movf	main@ucTimerCntLessFlag^(0+128),w
  2719  0351  1903               	btfsc	3,2
  2720  0352  2BC3               	goto	l5815
  2721  0353  2BB1               	goto	l5813
  2722  0354                     l5749:	
  2723  0354  3000               	movlw	0
  2724                           
  2725                           ;main.c: 1634: {
  2726                           ;main.c: 1635: ucTimeCntP2s = 0;
  2727  0355  01C5               	clrf	main@ucTimeCntP2s^(0+128)
  2728                           
  2729                           ;main.c: 1636: setPA3(0);
  2730  0356  118A  2706  118A   	fcall	_setPA3
  2731                           
  2732                           ;main.c: 1637: setPB6(0);
  2733  0359  3000               	movlw	0
  2734  035A  118A  2718  118A   	fcall	_setPB6
  2735  035D                     l5755:	
  2736                           
  2737                           ;main.c: 1638: ucPrefix2Step++;
  2738  035D  1683               	bsf	3,5	;RP0=1, select bank1
  2739  035E  0AC4               	incf	main@ucPrefix2Step^(0+128),f
  2740                           
  2741                           ;main.c: 1639: break;
  2742  035F  2BED               	goto	l5843
  2743  0360                     l5757:	
  2744                           
  2745                           ;main.c: 1643: {
  2746                           ;main.c: 1644: if((getAdOriginalCh2Value() > 2300))
  2747  0360  118A  26FC  118A   	fcall	_getAdOriginalCh2Value
  2748  0363  3008               	movlw	8
  2749  0364  0247               	subwf	?_getAdOriginalCh2Value+1,w
  2750  0365  30FD               	movlw	253
  2751  0366  1903               	skipnz
  2752  0367  0246               	subwf	?_getAdOriginalCh2Value,w
  2753  0368  1C03               	skipc
  2754  0369  2B6D               	goto	l5761
  2755                           
  2756                           ;main.c: 1645: {
  2757                           ;main.c: 1646: ucTimeCntP2s++;
  2758  036A  1683               	bsf	3,5	;RP0=1, select bank1
  2759  036B  0AC5               	incf	main@ucTimeCntP2s^(0+128),f
  2760                           
  2761                           ;main.c: 1647: }
  2762  036C  2B6F               	goto	l5763
  2763  036D                     l5761:	
  2764                           
  2765                           ;main.c: 1648: else
  2766                           ;main.c: 1649: ucTimeCntP2s = 0;
  2767  036D  1683               	bsf	3,5	;RP0=1, select bank1
  2768  036E  01C5               	clrf	main@ucTimeCntP2s^(0+128)
  2769  036F                     l5763:	
  2770                           
  2771                           ;main.c: 1651: if( ucTimeCntP2s >= 2)
  2772  036F  3002               	movlw	2
  2773  0370  0245               	subwf	main@ucTimeCntP2s^(0+128),w
  2774  0371  1C03               	skipc
  2775  0372  2BED               	goto	l5843
  2776                           
  2777                           ;main.c: 1652: {
  2778                           ;main.c: 1653: ucTimeCntP2s = 0;
  2779  0373  01C5               	clrf	main@ucTimeCntP2s^(0+128)
  2780  0374  2B5D               	goto	l5755
  2781  0375                     l5769:	
  2782                           
  2783                           ;main.c: 1662: {
  2784                           ;main.c: 1663: setPA3(1);
  2785  0375  3001               	movlw	1
  2786  0376  118A  2706  118A   	fcall	_setPA3
  2787                           
  2788                           ;main.c: 1665: setPB6AsInput();
  2789  0379  118A  2726  118A   	fcall	_setPB6AsInput
  2790  037C  2B5D               	goto	l5755
  2791  037D                     l5775:	
  2792                           
  2793                           ;main.c: 1671: {
  2794                           ;main.c: 1672: static unsigned char ucTimerCntP5s = 0;
  2795                           ;main.c: 1673: if( ucTimerCntP5s < 5)
  2796  037D  3005               	movlw	5
  2797  037E  024A               	subwf	main@ucTimerCntP5s^(0+128),w
  2798  037F  1803               	skipnc
  2799  0380  2B83               	goto	l5779
  2800                           
  2801                           ;main.c: 1674: ucTimerCntP5s++;
  2802  0381  0ACA               	incf	main@ucTimerCntP5s^(0+128),f
  2803  0382  2BED               	goto	l5843
  2804  0383                     l5779:	
  2805                           
  2806                           ;main.c: 1675: else
  2807                           ;main.c: 1676: {
  2808                           ;main.c: 1677: ucTimerCntP5s = 0;
  2809  0383  01CA               	clrf	main@ucTimerCntP5s^(0+128)
  2810  0384  2B5D               	goto	l5755
  2811  0385                     l5783:	
  2812                           
  2813                           ;main.c: 1685: {
  2814                           ;main.c: 1686: static unsigned char ucMoreThanP3sCnt = 0;
  2815                           ;main.c: 1688: static unsigned char ucLessThanP3sCnt = 0;
  2816                           ;main.c: 1689: if((getAdOriginalCh6Value() < 50))
  2817  0385  118A  270F  118A   	fcall	_getAdOriginalCh6Value
  2818  0388  3000               	movlw	0
  2819  0389  0247               	subwf	?_getAdOriginalCh6Value+1,w
  2820  038A  3032               	movlw	50
  2821  038B  1903               	skipnz
  2822  038C  0246               	subwf	?_getAdOriginalCh6Value,w
  2823  038D  1803               	skipnc
  2824  038E  2B93               	goto	l5789
  2825                           
  2826                           ;main.c: 1690: {
  2827                           ;main.c: 1691: ucLessThanP3sCnt++;
  2828  038F  1683               	bsf	3,5	;RP0=1, select bank1
  2829  0390  0AC0               	incf	main@ucLessThanP3sCnt^(0+128),f
  2830                           
  2831                           ;main.c: 1692: ucMoreThanP3sCnt = 0;
  2832  0391  01C2               	clrf	main@ucMoreThanP3sCnt^(0+128)
  2833                           
  2834                           ;main.c: 1693: }
  2835  0392  2B96               	goto	l5793
  2836  0393                     l5789:	
  2837                           
  2838                           ;main.c: 1694: else
  2839                           ;main.c: 1695: {
  2840                           ;main.c: 1696: ucMoreThanP3sCnt++;
  2841  0393  1683               	bsf	3,5	;RP0=1, select bank1
  2842  0394  0AC2               	incf	main@ucMoreThanP3sCnt^(0+128),f
  2843                           
  2844                           ;main.c: 1697: ucLessThanP3sCnt = 0;
  2845  0395  01C0               	clrf	main@ucLessThanP3sCnt^(0+128)
  2846  0396                     l5793:	
  2847                           
  2848                           ;main.c: 1698: }
  2849                           ;main.c: 1700: if( ucLessThanP3sCnt >= 3)
  2850  0396  3003               	movlw	3
  2851  0397  0240               	subwf	main@ucLessThanP3sCnt^(0+128),w
  2852  0398  1C03               	skipc
  2853  0399  2BA3               	goto	l5799
  2854                           
  2855                           ;main.c: 1701: {
  2856                           ;main.c: 1702: ucLessThanP3sCnt = 0;
  2857  039A  01C0               	clrf	main@ucLessThanP3sCnt^(0+128)
  2858                           
  2859                           ;main.c: 1703: ucMoreThanP3sCnt = 0;
  2860  039B  01C2               	clrf	main@ucMoreThanP3sCnt^(0+128)
  2861                           
  2862                           ;main.c: 1705: enumMainLoopStep = MAIN_LOOP_STEP_FIRST;
  2863  039C  1283               	bcf	3,5	;RP0=0, select bank0
  2864  039D  01D0               	clrf	_enumMainLoopStep
  2865  039E  0AD0               	incf	_enumMainLoopStep,f
  2866                           
  2867                           ;main.c: 1706: ucADC4_Step = ADC4_STEP_INIT;
  2868  039F  01D3               	clrf	_ucADC4_Step
  2869                           
  2870                           ;main.c: 1707: ucTimerCntMoreFlag = 0;
  2871  03A0  1683               	bsf	3,5	;RP0=1, select bank1
  2872  03A1  01C9               	clrf	main@ucTimerCntMoreFlag^(0+128)
  2873                           
  2874                           ;main.c: 1709: ucPrefix2Step = 0;
  2875  03A2  01C4               	clrf	main@ucPrefix2Step^(0+128)
  2876  03A3                     l5799:	
  2877                           
  2878                           ;main.c: 1711: }
  2879                           ;main.c: 1713: if(ucMoreThanP3sCnt > 3)
  2880  03A3  3004               	movlw	4
  2881  03A4  0242               	subwf	main@ucMoreThanP3sCnt^(0+128),w
  2882  03A5  1C03               	skipc
  2883  03A6  2BED               	goto	l5843
  2884  03A7  3003               	movlw	3
  2885                           
  2886                           ;main.c: 1714: {
  2887                           ;main.c: 1715: ucLessThanP3sCnt = 0;
  2888  03A8  01C0               	clrf	main@ucLessThanP3sCnt^(0+128)
  2889                           
  2890                           ;main.c: 1716: ucMoreThanP3sCnt = 0;
  2891  03A9  01C2               	clrf	main@ucMoreThanP3sCnt^(0+128)
  2892                           
  2893                           ;main.c: 1718: enumMainLoopStep = MAIN_LOOP_STEP_THIRD;
  2894  03AA  1283               	bcf	3,5	;RP0=0, select bank0
  2895  03AB  00D0               	movwf	_enumMainLoopStep
  2896                           
  2897                           ;main.c: 1719: ucADC4_Step = ADC4_STEP_INIT;
  2898  03AC  01D3               	clrf	_ucADC4_Step
  2899                           
  2900                           ;main.c: 1720: ucTimerCntMoreFlag = 0;
  2901  03AD  1683               	bsf	3,5	;RP0=1, select bank1
  2902  03AE  01C9               	clrf	main@ucTimerCntMoreFlag^(0+128)
  2903                           
  2904                           ;main.c: 1722: ucPrefix2Step = 0;
  2905  03AF  01C4               	clrf	main@ucPrefix2Step^(0+128)
  2906  03B0  2BED               	goto	l5843
  2907  03B1                     l5813:	
  2908  03B1  0844               	movf	main@ucPrefix2Step^(0+128),w
  2909                           
  2910                           ; Switch size 1, requested type "space"
  2911                           ; Number of cases is 5, Range of values is 0 to 4
  2912                           ; switch strategies available:
  2913                           ; Name         Instructions Cycles
  2914                           ; simple_byte           16     9 (average)
  2915                           ; direct_byte           17     7 (fixed)
  2916                           ; jumptable            260     6 (fixed)
  2917                           ; rangetable             9     6 (fixed)
  2918                           ; spacedrange           16     9 (fixed)
  2919                           ; locatedrange           5     3 (fixed)
  2920                           ;	Chosen strategy is simple_byte
  2921  03B2  3A00               	xorlw	0	; case 0
  2922  03B3  1903               	skipnz
  2923  03B4  2B54               	goto	l5749
  2924  03B5  3A01               	xorlw	1	; case 1
  2925  03B6  1903               	skipnz
  2926  03B7  2B60               	goto	l5757
  2927  03B8  3A03               	xorlw	3	; case 2
  2928  03B9  1903               	skipnz
  2929  03BA  2B75               	goto	l5769
  2930  03BB  3A01               	xorlw	1	; case 3
  2931  03BC  1903               	skipnz
  2932  03BD  2B7D               	goto	l5775
  2933  03BE  3A07               	xorlw	7	; case 4
  2934  03BF  1903               	skipnz
  2935  03C0  2B85               	goto	l5783
  2936  03C1  2BED               	goto	l5843
  2937                           
  2938                           ;main.c: 1730: }
  2939  03C2  2BED               	goto	l5843
  2940  03C3                     l5815:	
  2941                           
  2942                           ;main.c: 1731: else if( ucTimerCntMoreFlag )
  2943  03C3  0849               	movf	main@ucTimerCntMoreFlag^(0+128),w
  2944  03C4  1903               	btfsc	3,2
  2945  03C5  2BED               	goto	l5843
  2946                           
  2947                           ;main.c: 1732: {
  2948                           ;main.c: 1733: static unsigned char ucMoreThanP8sCnt = 0;
  2949                           ;main.c: 1735: static unsigned char ucLessThanP8sCnt = 0;
  2950                           ;main.c: 1736: if((getAdOriginalCh6Value() < 50))
  2951  03C6  118A  270F  118A   	fcall	_getAdOriginalCh6Value
  2952  03C9  3000               	movlw	0
  2953  03CA  0247               	subwf	?_getAdOriginalCh6Value+1,w
  2954  03CB  3032               	movlw	50
  2955  03CC  1903               	skipnz
  2956  03CD  0246               	subwf	?_getAdOriginalCh6Value,w
  2957  03CE  1803               	skipnc
  2958  03CF  2BD4               	goto	l5823
  2959                           
  2960                           ;main.c: 1737: {
  2961                           ;main.c: 1738: ucLessThanP8sCnt++;
  2962  03D0  1683               	bsf	3,5	;RP0=1, select bank1
  2963  03D1  0AC1               	incf	main@ucLessThanP8sCnt^(0+128),f
  2964                           
  2965                           ;main.c: 1739: ucMoreThanP8sCnt = 0;
  2966  03D2  01C3               	clrf	main@ucMoreThanP8sCnt^(0+128)
  2967                           
  2968                           ;main.c: 1740: }
  2969  03D3  2BD7               	goto	l5827
  2970  03D4                     l5823:	
  2971                           
  2972                           ;main.c: 1741: else
  2973                           ;main.c: 1742: {
  2974                           ;main.c: 1743: ucMoreThanP8sCnt++;
  2975  03D4  1683               	bsf	3,5	;RP0=1, select bank1
  2976  03D5  0AC3               	incf	main@ucMoreThanP8sCnt^(0+128),f
  2977                           
  2978                           ;main.c: 1744: ucLessThanP8sCnt = 0;
  2979  03D6  01C1               	clrf	main@ucLessThanP8sCnt^(0+128)
  2980  03D7                     l5827:	
  2981                           
  2982                           ;main.c: 1745: }
  2983                           ;main.c: 1747: if( ucLessThanP8sCnt >= 8)
  2984  03D7  3008               	movlw	8
  2985  03D8  0241               	subwf	main@ucLessThanP8sCnt^(0+128),w
  2986  03D9  1C03               	skipc
  2987  03DA  2BE1               	goto	l5833
  2988                           
  2989                           ;main.c: 1748: {
  2990                           ;main.c: 1749: ucLessThanP8sCnt = 0;
  2991  03DB  01C1               	clrf	main@ucLessThanP8sCnt^(0+128)
  2992                           
  2993                           ;main.c: 1750: ucMoreThanP8sCnt = 0;
  2994  03DC  01C3               	clrf	main@ucMoreThanP8sCnt^(0+128)
  2995                           
  2996                           ;main.c: 1752: enumMainLoopStep = MAIN_LOOP_STEP_FIRST;
  2997  03DD  1283               	bcf	3,5	;RP0=0, select bank0
  2998  03DE  01D0               	clrf	_enumMainLoopStep
  2999  03DF  0AD0               	incf	_enumMainLoopStep,f
  3000  03E0  2BEA               	goto	L15
  3001  03E1                     l5833:	
  3002                           ;main.c: 1755: ;
  3003                           ;main.c: 1756: }
  3004                           
  3005                           ;main.c: 1754: ucTimerCntMoreFlag = 0;
  3006                           
  3007                           ;main.c: 1753: ucADC4_Step = ADC4_STEP_INIT;
  3008                           
  3009                           
  3010                           ;main.c: 1757: else if( ucMoreThanP8sCnt >= 8 )
  3011  03E1  3008               	movlw	8
  3012  03E2  0243               	subwf	main@ucMoreThanP8sCnt^(0+128),w
  3013  03E3  1C03               	skipc
  3014  03E4  2BED               	goto	l5843
  3015  03E5  3003               	movlw	3
  3016                           
  3017                           ;main.c: 1758: {
  3018                           ;main.c: 1759: ucLessThanP8sCnt = 0;
  3019  03E6  01C1               	clrf	main@ucLessThanP8sCnt^(0+128)
  3020                           
  3021                           ;main.c: 1760: ucMoreThanP8sCnt = 0;
  3022  03E7  01C3               	clrf	main@ucMoreThanP8sCnt^(0+128)
  3023                           
  3024                           ;main.c: 1762: enumMainLoopStep = MAIN_LOOP_STEP_THIRD;
  3025  03E8  1283               	bcf	3,5	;RP0=0, select bank0
  3026  03E9  00D0               	movwf	_enumMainLoopStep
  3027  03EA                     L15:	
  3028                           
  3029                           ;main.c: 1763: ucADC4_Step = ADC4_STEP_INIT;
  3030  03EA  01D3               	clrf	_ucADC4_Step
  3031                           
  3032                           ;main.c: 1764: ucTimerCntMoreFlag = 0;
  3033  03EB  1683               	bsf	3,5	;RP0=1, select bank1
  3034  03EC  01C9               	clrf	main@ucTimerCntMoreFlag^(0+128)
  3035  03ED                     l5843:	
  3036                           ;main.c: 1765: ;
  3037                           ;main.c: 1766: }
  3038                           
  3039                           
  3040                           ;main.c: 1773: }
  3041                           ;main.c: 1775: if(ADC4_STEP_INIT == ucADC4_Step)
  3042  03ED  1283               	bcf	3,5	;RP0=0, select bank0
  3043  03EE  08D3               	movf	_ucADC4_Step,f
  3044  03EF  1D03               	skipz
  3045  03F0  2830               	goto	l5259
  3046                           
  3047                           ;main.c: 1776: {
  3048                           ;main.c: 1777: ucTimerCntMore = 0;
  3049  03F1  01DC               	clrf	main@ucTimerCntMore
  3050                           
  3051                           ;main.c: 1778: ucTimerCntLess = 0;
  3052  03F2  1683               	bsf	3,5	;RP0=1, select bank1
  3053  03F3  01C7               	clrf	main@ucTimerCntLess^(0+128)
  3054                           
  3055                           ;main.c: 1779: ucTimerCntMoreFlag = 0;
  3056  03F4  01C9               	clrf	main@ucTimerCntMoreFlag^(0+128)
  3057                           
  3058                           ;main.c: 1780: ucTimerCntLessFlag = 0;
  3059  03F5  01C8               	clrf	main@ucTimerCntLessFlag^(0+128)
  3060  03F6  2830               	goto	l5259
  3061  03F7                     l5847:	
  3062                           
  3063                           ;main.c: 1788: {
  3064                           ;main.c: 1792: clearTwentySecondsTimer();
  3065  03F7  118A  27C0  118A   	fcall	_clearTwentySecondsTimer
  3066                           
  3067                           ;main.c: 1794: setPA3(0);
  3068  03FA  3000               	movlw	0
  3069  03FB  118A  2706  118A   	fcall	_setPA3
  3070                           
  3071                           ;main.c: 1795: setPB4(0);
  3072  03FE  3000               	movlw	0
  3073  03FF  118A  2626  118A   	fcall	_setPB4
  3074                           
  3075                           ;main.c: 1796: setPB6(1);
  3076  0402  3001               	movlw	1
  3077  0403  118A  2718  118A   	fcall	_setPB6
  3078                           
  3079                           ;main.c: 1798: ucADC4_Step = ADC4_STEP_FOURTH_PREFIX4;
  3080  0406  3007               	movlw	7
  3081  0407  2C31               	goto	L12
  3082  0408                     l5855:	
  3083                           ;main.c: 1799: break;
  3084                           
  3085                           
  3086                           ;main.c: 1805: {
  3087                           ;main.c: 1810: static unsigned char ucDelayPrefix4TimerP5s;
  3088                           ;main.c: 1812: ucDelayPrefix4TimerP5s++;
  3089  0408  1683               	bsf	3,5	;RP0=1, select bank1
  3090  0409  300A               	movlw	10
  3091  040A  0ABD               	incf	main@ucDelayPrefix4TimerP5s^(0+128),f
  3092                           
  3093                           ;main.c: 1814: if( ucDelayPrefix4TimerP5s >= 10)
  3094  040B  023D               	subwf	main@ucDelayPrefix4TimerP5s^(0+128),w
  3095  040C  1C03               	skipc
  3096  040D  2830               	goto	l5259
  3097  040E  3008               	movlw	8
  3098                           
  3099                           ;main.c: 1815: {
  3100                           ;main.c: 1816: ucDelayPrefix4TimerP5s = 0;
  3101  040F  01BD               	clrf	main@ucDelayPrefix4TimerP5s^(0+128)
  3102                           
  3103                           ;main.c: 1818: ucADC4_Step = ADC4_STEP_FOURTH_PREFIX5;
  3104  0410  2C30               	goto	L17
  3105  0411                     l5863:	
  3106                           
  3107                           ;main.c: 1824: {
  3108                           ;main.c: 1825: setPA3(1);
  3109  0411  3001               	movlw	1
  3110  0412  118A  2706  118A   	fcall	_setPA3
  3111                           
  3112                           ;main.c: 1826: setPB4(1);
  3113  0415  3001               	movlw	1
  3114  0416  118A  2626  118A   	fcall	_setPB4
  3115                           
  3116                           ;main.c: 1828: setPB6AsInput();
  3117  0419  118A  2726  118A   	fcall	_setPB6AsInput
  3118                           
  3119                           ;main.c: 1829: ucADC4_Step = ADC4_STEP_FOURTH_PREFIX6;
  3120  041C  3009               	movlw	9
  3121  041D  2C30               	goto	L17
  3122  041E                     l5867:	
  3123                           ;main.c: 1831: break;
  3124                           
  3125                           
  3126                           ;main.c: 1836: {
  3127                           ;main.c: 1837: static unsigned char ucDelayPrefix6TimerP2s;
  3128                           ;main.c: 1839: ucDelayPrefix6TimerP2s++;
  3129  041E  1683               	bsf	3,5	;RP0=1, select bank1
  3130  041F  3002               	movlw	2
  3131  0420  0ABE               	incf	main@ucDelayPrefix6TimerP2s^(0+128),f
  3132                           
  3133                           ;main.c: 1841: if( ucDelayPrefix6TimerP2s >= 2)
  3134  0421  023E               	subwf	main@ucDelayPrefix6TimerP2s^(0+128),w
  3135  0422  1C03               	skipc
  3136  0423  2830               	goto	l5259
  3137                           
  3138                           ;main.c: 1842: {
  3139                           ;main.c: 1843: ucDelayPrefix6TimerP2s = 0;
  3140  0424  01BE               	clrf	main@ucDelayPrefix6TimerP2s^(0+128)
  3141                           
  3142                           ;main.c: 1845: ucADC4_Step = ADC4_STEP_INIT;
  3143  0425  1283               	bcf	3,5	;RP0=0, select bank0
  3144  0426  01D3               	clrf	_ucADC4_Step
  3145  0427  288B               	goto	l5311
  3146  0428                     l5875:	
  3147                           
  3148                           ;main.c: 1897: {
  3149                           ;main.c: 1901: static unsigned char ucFourthSuffix1TimerP3s = 0;
  3150                           ;main.c: 1903: ucFourthSuffix1TimerP3s++;
  3151  0428  1683               	bsf	3,5	;RP0=1, select bank1
  3152  0429  3004               	movlw	4
  3153  042A  0ABF               	incf	main@ucFourthSuffix1TimerP3s^(0+128),f
  3154                           
  3155                           ;main.c: 1905: if( ucFourthSuffix1TimerP3s > 3)
  3156  042B  023F               	subwf	main@ucFourthSuffix1TimerP3s^(0+128),w
  3157  042C  1C03               	skipc
  3158  042D  2830               	goto	l5259
  3159  042E  300C               	movlw	12
  3160                           
  3161                           ;main.c: 1906: {
  3162                           ;main.c: 1907: ucFourthSuffix1TimerP3s = 0;
  3163  042F  01BF               	clrf	main@ucFourthSuffix1TimerP3s^(0+128)
  3164  0430                     L17:	
  3165                           ;main.c: 1908: ucADC4_Step = ADC4_STEP_FOURTH_SUFFIX2;
  3166                           
  3167  0430  1283               	bcf	3,5	;RP0=0, select bank0
  3168  0431                     L12:	
  3169  0431  00D3               	movwf	_ucADC4_Step
  3170  0432  2830               	goto	l5259
  3171  0433                     l5883:	
  3172                           
  3173                           ;main.c: 1915: {
  3174                           ;main.c: 1920: setPA6(0);
  3175  0433  3000               	movlw	0
  3176  0434  158A  25FC  118A   	fcall	_setPA6
  3177                           
  3178                           ;main.c: 1922: clearPinPortAndTimer();
  3179  0437  118A  2575  118A   	fcall	_clearPinPortAndTimer
  3180                           
  3181                           ;main.c: 1923: ucADC4_Step = ADC4_STEP_INIT;
  3182  043A  01D3               	clrf	_ucADC4_Step
  3183                           
  3184                           ;main.c: 1925: enumMainLoopStep = MAIN_LOOP_STEP_FIRST;
  3185  043B  01D0               	clrf	_enumMainLoopStep
  3186  043C  0AD0               	incf	_enumMainLoopStep,f
  3187                           
  3188                           ;main.c: 1926: break;
  3189  043D  2830               	goto	l5259
  3190  043E                     l5893:	
  3191  043E  1283               	bcf	3,5	;RP0=0, select bank0
  3192  043F  0853               	movf	_ucADC4_Step,w
  3193                           
  3194                           ; Switch size 1, requested type "space"
  3195                           ; Number of cases is 13, Range of values is 0 to 12
  3196                           ; switch strategies available:
  3197                           ; Name         Instructions Cycles
  3198                           ; direct_byte           33     7 (fixed)
  3199                           ; simple_byte           40    21 (average)
  3200                           ; jumptable            260     6 (fixed)
  3201                           ; rangetable            17     6 (fixed)
  3202                           ; spacedrange           32     9 (fixed)
  3203                           ; locatedrange          13     3 (fixed)
  3204                           ;	Chosen strategy is direct_byte
  3205  0440  0084               	movwf	4
  3206  0441  300D               	movlw	13
  3207  0442  0204               	subwf	4,w
  3208  0443  1803               	skipnc
  3209  0444  2830               	goto	l5259
  3210  0445  3008               	movlw	high S6297
  3211  0446  008A               	movwf	10
  3212  0447  1003               	clrc
  3213  0448  0D04               	rlf	4,w
  3214  0449  3E00               	addlw	low S6297
  3215  044A  0082               	movwf	2
  3216  044B                     l1059:	
  3217                           ;main.c: 1952: {
  3218                           ;main.c: 1953: case HOUR_3_BRANCH_STEP_FIRST:
  3219                           
  3220                           
  3221                           ;main.c: 1954: {
  3222                           ;main.c: 1956: PB7 = 1;
  3223  044B  1283               	bcf	3,5	;RP0=0, select bank0
  3224  044C  1786               	bsf	6,7
  3225                           
  3226                           ;main.c: 1957: PBOD7 = 1;
  3227  044D  1683               	bsf	3,5	;RP0=1, select bank3
  3228  044E  3030               	movlw	48
  3229  044F  1703               	bsf	3,6	;RP1=1, select bank3
  3230  0450  1788               	bsf	8,7
  3231                           
  3232                           ;main.c: 1962: startThreeHoursTimer(10800);
  3233  0451  1283               	bcf	3,5	;RP0=0, select bank0
  3234  0452  1303               	bcf	3,6	;RP1=0, select bank0
  3235  0453  00A0               	movwf	?_startThreeHoursTimer
  3236  0454  302A               	movlw	42
  3237  0455  00A1               	movwf	?_startThreeHoursTimer+1
  3238  0456  158A  268E  118A   	fcall	_startThreeHoursTimer
  3239                           
  3240                           ;main.c: 1966: setPA0(1);
  3241  0459  3001               	movlw	1
  3242  045A  118A  25AF  118A   	fcall	_setPA0
  3243                           
  3244                           ;main.c: 1968: setPA1(1);
  3245  045D  3001               	movlw	1
  3246  045E  118A  25B8  118A   	fcall	_setPA1
  3247                           
  3248                           ;main.c: 1970: setPB0(1);
  3249  0461  3001               	movlw	1
  3250  0462  118A  2597  118A   	fcall	_setPB0
  3251                           
  3252                           ;main.c: 1972: setPB1(1);
  3253  0465  3001               	movlw	1
  3254  0466  118A  259F  118A   	fcall	_setPB1
  3255                           
  3256                           ;main.c: 1974: setPB2(1);
  3257  0469  3001               	movlw	1
  3258  046A  118A  25A7  118A   	fcall	_setPB2
  3259                           
  3260                           ;main.c: 1976: setPB4(0);
  3261  046D  3000               	movlw	0
  3262  046E  118A  2626  118A   	fcall	_setPB4
  3263                           
  3264                           ;main.c: 1978: enumBranchStep = HOUR_3_BRANCH_STEP_SECOND;
  3265  0471  1683               	bsf	3,5	;RP0=1, select bank1
  3266  0472  01BB               	clrf	main@enumBranchStep^(0+128)
  3267  0473  0ABB               	incf	main@enumBranchStep^(0+128),f
  3268                           
  3269                           ;main.c: 1979: break;
  3270  0474  2830               	goto	l5259
  3271  0475                     l5899:	
  3272                           
  3273                           ;main.c: 1983: {
  3274                           ;main.c: 1988: enumBranchStep = HOUR_3_BRANCH_STEP_THIRD;
  3275  0475  3002               	movlw	2
  3276  0476  00BB               	movwf	main@enumBranchStep^(0+128)
  3277                           
  3278                           ;main.c: 1989: break;
  3279  0477  2830               	goto	l5259
  3280  0478                     l5901:	
  3281                           
  3282                           ;main.c: 1993: {
  3283                           ;main.c: 1997: if( (isFinishedTwelveHoursTimer()) || (isFinishedThreeHoursTimer()))
  3284  0478  158A  2633  118A   	fcall	_isFinishedTwelveHoursTimer
  3285  047B  3800               	iorlw	0
  3286  047C  1D03               	skipz
  3287  047D  2C84               	goto	l5905
  3288  047E  158A  264B  118A   	fcall	_isFinishedThreeHoursTimer
  3289  0481  3A00               	xorlw	0
  3290  0482  1903               	skipnz
  3291  0483  2C87               	goto	l5909
  3292  0484                     l5905:	
  3293                           
  3294                           ;main.c: 1998: {
  3295                           ;main.c: 1999: enumBranchStep = HOUR_3_BRANCH_STEP_FIRST;
  3296  0484  1683               	bsf	3,5	;RP0=1, select bank1
  3297  0485  01BB               	clrf	main@enumBranchStep^(0+128)
  3298  0486  2858               	goto	l5279
  3299  0487                     l5909:	
  3300                           
  3301                           ;main.c: 2002: else
  3302                           ;main.c: 2003: {
  3303                           ;main.c: 2004: static unsigned char ucTimerX1P5s = 0;
  3304                           ;main.c: 2006: static unsigned char ucTimerLessX1P5s = 0;
  3305                           ;main.c: 2008: if(getAdOriginalCh6Value() <= 85)
  3306  0487  118A  270F  118A   	fcall	_getAdOriginalCh6Value
  3307  048A  3000               	movlw	0
  3308  048B  0247               	subwf	?_getAdOriginalCh6Value+1,w
  3309  048C  3056               	movlw	86
  3310  048D  1903               	skipnz
  3311  048E  0246               	subwf	?_getAdOriginalCh6Value,w
  3312  048F  1803               	skipnc
  3313  0490  2C95               	goto	l5915
  3314                           
  3315                           ;main.c: 2009: {
  3316                           ;main.c: 2010: ucTimerX1P5s = 0;
  3317  0491  1683               	bsf	3,5	;RP0=1, select bank1
  3318  0492  01CE               	clrf	main@ucTimerX1P5s^(0+128)
  3319                           
  3320                           ;main.c: 2011: ucTimerLessX1P5s++;
  3321  0493  0ACB               	incf	main@ucTimerLessX1P5s^(0+128),f
  3322                           
  3323                           ;main.c: 2012: }
  3324  0494  2C98               	goto	l5919
  3325  0495                     l5915:	
  3326                           
  3327                           ;main.c: 2013: else
  3328                           ;main.c: 2014: {
  3329                           ;main.c: 2015: ucTimerX1P5s++;
  3330  0495  1683               	bsf	3,5	;RP0=1, select bank1
  3331  0496  0ACE               	incf	main@ucTimerX1P5s^(0+128),f
  3332                           
  3333                           ;main.c: 2016: ucTimerLessX1P5s = 0;
  3334  0497  01CB               	clrf	main@ucTimerLessX1P5s^(0+128)
  3335  0498                     l5919:	
  3336                           
  3337                           ;main.c: 2017: }
  3338                           ;main.c: 2019: if(ucTimerX1P5s >= 5)
  3339  0498  3005               	movlw	5
  3340  0499  024E               	subwf	main@ucTimerX1P5s^(0+128),w
  3341  049A  1C03               	skipc
  3342  049B  2CAC               	goto	l5933
  3343                           
  3344                           ;main.c: 2020: {
  3345                           ;main.c: 2021: ucTimerX1P5s = 0;
  3346  049C  01CE               	clrf	main@ucTimerX1P5s^(0+128)
  3347                           
  3348                           ;main.c: 2023: ucTimerLessX1P5s = 0;
  3349  049D  01CB               	clrf	main@ucTimerLessX1P5s^(0+128)
  3350                           
  3351                           ;main.c: 2027: PBOD7 = 0;
  3352  049E  1703               	bsf	3,6	;RP1=1, select bank3
  3353  049F  1388               	bcf	8,7
  3354                           
  3355                           ;main.c: 2028: PB7 = 0;
  3356  04A0  1283               	bcf	3,5	;RP0=0, select bank0
  3357  04A1  1303               	bcf	3,6	;RP1=0, select bank0
  3358  04A2  1386               	bcf	6,7
  3359                           
  3360                           ;main.c: 2033: clearThreeHoursTimer();
  3361  04A3  118A  25CE  118A   	fcall	_clearThreeHoursTimer
  3362                           
  3363                           ;main.c: 2035: enumBranchStep = HOUR_3_BRANCH_STEP_FIRST;
  3364  04A6  1683               	bsf	3,5	;RP0=1, select bank1
  3365  04A7  3002               	movlw	2
  3366  04A8  01BB               	clrf	main@enumBranchStep^(0+128)
  3367  04A9                     L1:	
  3368                           ;main.c: 2037: enumMainLoopStep = MAIN_LOOP_STEP_SECOND;
  3369                           
  3370  04A9  1283               	bcf	3,5	;RP0=0, select bank0
  3371  04AA  00D0               	movwf	_enumMainLoopStep
  3372                           
  3373                           ;main.c: 2038: }
  3374  04AB  2830               	goto	l5259
  3375  04AC                     l5933:	
  3376                           
  3377                           ;main.c: 2039: else if(ucTimerLessX1P5s >= 5)
  3378  04AC  3005               	movlw	5
  3379  04AD  024B               	subwf	main@ucTimerLessX1P5s^(0+128),w
  3380  04AE  1C03               	skipc
  3381  04AF  2830               	goto	l5259
  3382                           
  3383                           ;main.c: 2040: {
  3384                           ;main.c: 2041: static unsigned char ucTimerX2P5s = 0;
  3385                           ;main.c: 2043: static unsigned char ucTimerLessX2P5s = 0;
  3386                           ;main.c: 2045: if(getAdOriginalCh6Value() > 20)
  3387  04B0  118A  270F  118A   	fcall	_getAdOriginalCh6Value
  3388  04B3  3000               	movlw	0
  3389  04B4  0247               	subwf	?_getAdOriginalCh6Value+1,w
  3390  04B5  3015               	movlw	21
  3391  04B6  1903               	skipnz
  3392  04B7  0246               	subwf	?_getAdOriginalCh6Value,w
  3393  04B8  1C03               	skipc
  3394  04B9  2CBE               	goto	l5941
  3395                           
  3396                           ;main.c: 2046: {
  3397                           ;main.c: 2047: ucTimerX2P5s++;
  3398  04BA  1683               	bsf	3,5	;RP0=1, select bank1
  3399  04BB  0ACF               	incf	main@ucTimerX2P5s^(0+128),f
  3400                           
  3401                           ;main.c: 2048: ucTimerLessX2P5s = 0;
  3402  04BC  01CC               	clrf	main@ucTimerLessX2P5s^(0+128)
  3403                           
  3404                           ;main.c: 2049: }
  3405  04BD  2CC1               	goto	l5945
  3406  04BE                     l5941:	
  3407                           
  3408                           ;main.c: 2050: else
  3409                           ;main.c: 2051: {
  3410                           ;main.c: 2052: ucTimerX2P5s = 0;
  3411  04BE  1683               	bsf	3,5	;RP0=1, select bank1
  3412  04BF  01CF               	clrf	main@ucTimerX2P5s^(0+128)
  3413                           
  3414                           ;main.c: 2053: ucTimerLessX2P5s++;
  3415  04C0  0ACC               	incf	main@ucTimerLessX2P5s^(0+128),f
  3416  04C1                     l5945:	
  3417                           
  3418                           ;main.c: 2054: }
  3419                           ;main.c: 2056: if(ucTimerX2P5s >= 5)
  3420  04C1  3005               	movlw	5
  3421  04C2  024F               	subwf	main@ucTimerX2P5s^(0+128),w
  3422  04C3  1C03               	skipc
  3423  04C4  2CC7               	goto	l5949
  3424  04C5                     l5947:	
  3425                           
  3426                           ;main.c: 2057: {
  3427                           ;main.c: 2058: ucTimerX2P5s = 0;
  3428  04C5  01CF               	clrf	main@ucTimerX2P5s^(0+128)
  3429                           
  3430                           ;main.c: 2059: }
  3431  04C6  2830               	goto	l5259
  3432  04C7                     l5949:	
  3433                           
  3434                           ;main.c: 2060: else if(ucTimerLessX2P5s >= 5)
  3435  04C7  3005               	movlw	5
  3436  04C8  024C               	subwf	main@ucTimerLessX2P5s^(0+128),w
  3437  04C9  1C03               	skipc
  3438  04CA  2830               	goto	l5259
  3439                           
  3440                           ;main.c: 2061: {
  3441                           ;main.c: 2062: clearParaFunction1();
  3442  04CB  118A  2581  118A   	fcall	_clearParaFunction1
  3443                           
  3444                           ;main.c: 2063: enumMainLoopStep = MAIN_LOOP_STEP_FIRST;
  3445  04CE  01D0               	clrf	_enumMainLoopStep
  3446  04CF  0AD0               	incf	_enumMainLoopStep,f
  3447                           
  3448                           ;main.c: 2064: enumBranchStep = HOUR_3_BRANCH_STEP_FIRST;
  3449  04D0  1683               	bsf	3,5	;RP0=1, select bank1
  3450  04D1  01BB               	clrf	main@enumBranchStep^(0+128)
  3451                           
  3452                           ;main.c: 2066: ucTimerLessX2P5s = 0;
  3453  04D2  01CC               	clrf	main@ucTimerLessX2P5s^(0+128)
  3454  04D3  2CC5               	goto	l5947
  3455  04D4                     l5963:	
  3456  04D4  1683               	bsf	3,5	;RP0=1, select bank1
  3457  04D5  083B               	movf	main@enumBranchStep^(0+128),w
  3458                           
  3459                           ; Switch size 1, requested type "space"
  3460                           ; Number of cases is 3, Range of values is 0 to 2
  3461                           ; switch strategies available:
  3462                           ; Name         Instructions Cycles
  3463                           ; simple_byte           10     6 (average)
  3464                           ; direct_byte           13     7 (fixed)
  3465                           ; jumptable            260     6 (fixed)
  3466                           ; rangetable             7     6 (fixed)
  3467                           ; spacedrange           12     9 (fixed)
  3468                           ; locatedrange           3     3 (fixed)
  3469                           ;	Chosen strategy is simple_byte
  3470  04D6  3A00               	xorlw	0	; case 0
  3471  04D7  1903               	skipnz
  3472  04D8  2C4B               	goto	l1059
  3473  04D9  3A01               	xorlw	1	; case 1
  3474  04DA  1903               	skipnz
  3475  04DB  2C75               	goto	l5899
  3476  04DC  3A03               	xorlw	3	; case 2
  3477  04DD  1903               	skipnz
  3478  04DE  2C78               	goto	l5901
  3479  04DF  285B               	goto	l772
  3480  04E0                     l5965:	
  3481                           
  3482                           ;main.c: 2110: {
  3483                           ;main.c: 2115: setPA2(0);
  3484  04E0  3000               	movlw	0
  3485  04E1  158A  2614  118A   	fcall	_setPA2
  3486                           
  3487                           ;main.c: 2116: setPA1(0);
  3488  04E4  3000               	movlw	0
  3489  04E5  118A  25B8  118A   	fcall	_setPA1
  3490                           
  3491                           ;main.c: 2117: setPA0(0);
  3492  04E8  3000               	movlw	0
  3493  04E9  118A  25AF  118A   	fcall	_setPA0
  3494                           
  3495                           ;main.c: 2118: setPB0(0);
  3496  04EC  3000               	movlw	0
  3497  04ED  118A  2597  118A   	fcall	_setPB0
  3498                           
  3499                           ;main.c: 2119: setPB1(0);
  3500  04F0  3000               	movlw	0
  3501  04F1  118A  259F  118A   	fcall	_setPB1
  3502                           
  3503                           ;main.c: 2120: setPB2(0);
  3504  04F4  3000               	movlw	0
  3505  04F5  118A  25A7  118A   	fcall	_setPB2
  3506                           
  3507                           ;main.c: 2121: setPA3(0);
  3508  04F8  3000               	movlw	0
  3509  04F9  118A  2706  118A   	fcall	_setPA3
  3510                           
  3511                           ;main.c: 2122: setPB4(0);
  3512  04FC  3000               	movlw	0
  3513  04FD  118A  2626  118A   	fcall	_setPB4
  3514                           
  3515                           ;main.c: 2124: enumInteralStep = INTERNAL_SECOND_STEP;
  3516  0500  1683               	bsf	3,5	;RP0=1, select bank1
  3517  0501  01BC               	clrf	main@enumInteralStep^(0+128)
  3518  0502  0ABC               	incf	main@enumInteralStep^(0+128),f
  3519                           
  3520                           ;main.c: 2125: break;
  3521  0503  2830               	goto	l5259
  3522  0504                     l5969:	
  3523                           
  3524                           ;main.c: 2129: {
  3525                           ;main.c: 2133: static unsigned char ucTimer1s = 0;
  3526                           ;main.c: 2135: if(getAdOriginalCh0Value() >= 2500)
  3527  0504  118A  256C  118A   	fcall	_getAdOriginalCh0Value
  3528  0507  3009               	movlw	9
  3529  0508  0247               	subwf	?_getAdOriginalCh0Value+1,w
  3530  0509  30C4               	movlw	196
  3531  050A  1903               	skipnz
  3532  050B  0246               	subwf	?_getAdOriginalCh0Value,w
  3533  050C  1C03               	skipc
  3534  050D  2D11               	goto	l5973
  3535                           
  3536                           ;main.c: 2136: {
  3537                           ;main.c: 2137: ucTimer1s++;
  3538  050E  1683               	bsf	3,5	;RP0=1, select bank1
  3539  050F  0AC6               	incf	main@ucTimer1s^(0+128),f
  3540                           
  3541                           ;main.c: 2138: }
  3542  0510  2D13               	goto	l5975
  3543  0511                     l5973:	
  3544                           
  3545                           ;main.c: 2139: else
  3546                           ;main.c: 2140: ucTimer1s = 0;
  3547  0511  1683               	bsf	3,5	;RP0=1, select bank1
  3548  0512  01C6               	clrf	main@ucTimer1s^(0+128)
  3549  0513                     l5975:	
  3550                           
  3551                           ;main.c: 2142: if(ucTimer1s >= 10)
  3552  0513  300A               	movlw	10
  3553  0514  0246               	subwf	main@ucTimer1s^(0+128),w
  3554  0515  1C03               	skipc
  3555  0516  2830               	goto	l5259
  3556                           
  3557                           ;main.c: 2143: {
  3558                           ;main.c: 2144: enumInteralStep = INTERNAL_THIRD_STEP;
  3559  0517  3002               	movlw	2
  3560  0518  00BC               	movwf	main@enumInteralStep^(0+128)
  3561                           
  3562                           ;main.c: 2145: ucTimer1s = 0;
  3563  0519  01C6               	clrf	main@ucTimer1s^(0+128)
  3564  051A  2830               	goto	l5259
  3565  051B                     l5981:	
  3566                           
  3567                           ;main.c: 2151: {
  3568                           ;main.c: 2155: static unsigned char ucTimerP3s = 0;
  3569                           ;main.c: 2157: if(getAdOriginalCh0Value() <= 1950)
  3570  051B  118A  256C  118A   	fcall	_getAdOriginalCh0Value
  3571  051E  3007               	movlw	7
  3572  051F  0247               	subwf	?_getAdOriginalCh0Value+1,w
  3573  0520  309F               	movlw	159
  3574  0521  1903               	skipnz
  3575  0522  0246               	subwf	?_getAdOriginalCh0Value,w
  3576  0523  1803               	skipnc
  3577  0524  2D28               	goto	l5985
  3578                           
  3579                           ;main.c: 2158: {
  3580                           ;main.c: 2159: ucTimerP3s++;
  3581  0525  1683               	bsf	3,5	;RP0=1, select bank1
  3582  0526  0ACD               	incf	main@ucTimerP3s^(0+128),f
  3583                           
  3584                           ;main.c: 2160: }
  3585  0527  2D2A               	goto	l5987
  3586  0528                     l5985:	
  3587                           
  3588                           ;main.c: 2161: else
  3589                           ;main.c: 2162: ucTimerP3s = 0;
  3590  0528  1683               	bsf	3,5	;RP0=1, select bank1
  3591  0529  01CD               	clrf	main@ucTimerP3s^(0+128)
  3592  052A                     l5987:	
  3593                           
  3594                           ;main.c: 2164: if(ucTimerP3s >= 3)
  3595  052A  3003               	movlw	3
  3596  052B  024D               	subwf	main@ucTimerP3s^(0+128),w
  3597  052C  1C03               	skipc
  3598  052D  2830               	goto	l5259
  3599                           
  3600                           ;main.c: 2165: {
  3601                           ;main.c: 2166: enumInteralStep = INTERNAL_FIRST_STEP;
  3602  052E  01BC               	clrf	main@enumInteralStep^(0+128)
  3603                           
  3604                           ;main.c: 2167: ucTimerP3s = 0;
  3605  052F  01CD               	clrf	main@ucTimerP3s^(0+128)
  3606                           
  3607                           ;main.c: 2169: clearAllTimer();
  3608  0530  118A  25C1  118A   	fcall	_clearAllTimer
  3609                           
  3610                           ;main.c: 2171: initPin();
  3611  0533  158A  26A2  118A   	fcall	_initPin
  3612                           
  3613                           ;main.c: 2174: enumMainLoopStep = MAIN_LOOP_STEP_INIT;
  3614  0536  1283               	bcf	3,5	;RP0=0, select bank0
  3615  0537  01D0               	clrf	_enumMainLoopStep
  3616  0538                     l1107:	
  3617  0538  2D38               	goto	l1107
  3618  0539                     l5997:	
  3619  0539  1683               	bsf	3,5	;RP0=1, select bank1
  3620  053A  083C               	movf	main@enumInteralStep^(0+128),w
  3621                           
  3622                           ; Switch size 1, requested type "space"
  3623                           ; Number of cases is 3, Range of values is 0 to 2
  3624                           ; switch strategies available:
  3625                           ; Name         Instructions Cycles
  3626                           ; simple_byte           10     6 (average)
  3627                           ; direct_byte           13     7 (fixed)
  3628                           ; jumptable            260     6 (fixed)
  3629                           ; rangetable             7     6 (fixed)
  3630                           ; spacedrange           12     9 (fixed)
  3631                           ; locatedrange           3     3 (fixed)
  3632                           ;	Chosen strategy is simple_byte
  3633  053B  3A00               	xorlw	0	; case 0
  3634  053C  1903               	skipnz
  3635  053D  2CE0               	goto	l5965
  3636  053E  3A01               	xorlw	1	; case 1
  3637  053F  1903               	skipnz
  3638  0540  2D04               	goto	l5969
  3639  0541  3A03               	xorlw	3	; case 2
  3640  0542  1903               	skipnz
  3641  0543  2D1B               	goto	l5981
  3642  0544  285B               	goto	l772
  3643  0545                     l6001:	
  3644  0545  1283               	bcf	3,5	;RP0=0, select bank0
  3645  0546  0850               	movf	_enumMainLoopStep,w
  3646                           
  3647                           ; Switch size 1, requested type "space"
  3648                           ; Number of cases is 8, Range of values is 0 to 9
  3649                           ; switch strategies available:
  3650                           ; Name         Instructions Cycles
  3651                           ; simple_byte           25    13 (average)
  3652                           ; direct_byte           27     7 (fixed)
  3653                           ; jumptable            260     6 (fixed)
  3654                           ; rangetable            14     6 (fixed)
  3655                           ; spacedrange           26     9 (fixed)
  3656                           ; locatedrange          10     3 (fixed)
  3657                           ;	Chosen strategy is simple_byte
  3658  0547  3A00               	xorlw	0	; case 0
  3659  0548  1903               	skipnz
  3660  0549  283E               	goto	l5265
  3661  054A  3A01               	xorlw	1	; case 1
  3662  054B  1903               	skipnz
  3663  054C  285C               	goto	l5281
  3664  054D  3A03               	xorlw	3	; case 2
  3665  054E  1903               	skipnz
  3666  054F  2879               	goto	l5301
  3667  0550  3A01               	xorlw	1	; case 3
  3668  0551  1903               	skipnz
  3669  0552  288D               	goto	l5313
  3670  0553  3A07               	xorlw	7	; case 4
  3671  0554  1903               	skipnz
  3672  0555  28C9               	goto	l5351
  3673  0556  3A01               	xorlw	1	; case 5
  3674  0557  1903               	skipnz
  3675  0558  28D5               	goto	l5357
  3676  0559  3A0D               	xorlw	13	; case 8
  3677  055A  1903               	skipnz
  3678  055B  2CD4               	goto	l5963
  3679  055C  3A01               	xorlw	1	; case 9
  3680  055D  1903               	skipnz
  3681  055E  2D39               	goto	l5997
  3682  055F  285B               	goto	l772
  3683  0560  118A  2811         	ljmp	start
  3684  0562                     __end_of_main:	
  3685                           
  3686                           	psect	swtext1
  3687  081A                     __pswtext1:	
  3688  081A                     S6291:	
  3689  081A  118A  2969         	ljmp	l5415
  3690  081C  118A  296F         	ljmp	l5419
  3691  081E  118A  297B         	ljmp	l5429
  3692  0820  118A  2984         	ljmp	l5439
  3693  0822  118A  298D         	ljmp	l5449
  3694  0824  118A  2996         	ljmp	l5459
  3695  0826  118A  29AB         	ljmp	l5469
  3696                           
  3697                           	psect	swtext2
  3698  0828                     __pswtext2:	
  3699  0828                     S6293:	
  3700  0828  118A  29BE         	ljmp	l5481
  3701  082A  118A  29C4         	ljmp	l5485
  3702  082C  118A  29D0         	ljmp	l5495
  3703  082E  118A  29D9         	ljmp	l5505
  3704  0830  118A  29E2         	ljmp	l5515
  3705  0832  118A  29EB         	ljmp	l5525
  3706  0834  118A  2A00         	ljmp	l5535
  3707                           
  3708                           	psect	swtext3
  3709  0836                     __pswtext3:	
  3710  0836                     S6295:	
  3711  0836  118A  2A12         	ljmp	l5547
  3712  0838  118A  2A1C         	ljmp	l5551
  3713  083A  118A  2A28         	ljmp	l5561
  3714  083C  118A  2A31         	ljmp	l5571
  3715  083E  118A  2A3A         	ljmp	l5581
  3716  0840  118A  2A4B         	ljmp	l5591
  3717                           
  3718                           	psect	swtext4
  3719  0800                     __pswtext4:	
  3720  0800                     S6297:	
  3721  0800  118A  28E4         	ljmp	l813
  3722  0802  118A  28E7         	ljmp	l5365
  3723  0804  118A  2ADC         	ljmp	l5687
  3724  0806  118A  2AED         	ljmp	l5689
  3725  0808  118A  2B25         	ljmp	l5721
  3726  080A  118A  2B2F         	ljmp	l5727
  3727  080C  118A  2BF7         	ljmp	l5847
  3728  080E  118A  2C08         	ljmp	l5855
  3729  0810  118A  2C11         	ljmp	l5863
  3730  0812  118A  2C1E         	ljmp	l5867
  3731  0814  118A  285B         	ljmp	l772
  3732  0816  118A  2C28         	ljmp	l5875
  3733  0818  118A  2C33         	ljmp	l5883
  3734                           
  3735                           	psect	text988
  3736  0EC9                     __ptext988:	
  3737 ;; =============== function _call_ADC4_STEP_FOURTH_PREFIX2 ends ============
  3738                           
  3739                           
  3740 ;; *************** function _process_AD_Converter_Value *****************
  3741 ;; Defined at:
  3742 ;;		line 298 in file "C:\temp\dev\AK7030-OTP\common.c"
  3743 ;; Parameters:    Size  Location     Type
  3744 ;;		None
  3745 ;; Auto vars:     Size  Location     Type
  3746 ;;		None
  3747 ;; Return value:  Size  Location     Type
  3748 ;;		None               void
  3749 ;; Registers used:
  3750 ;;		wreg, status,2, status,0, pclath, cstack
  3751 ;; Tracked objects:
  3752 ;;		On entry : 0/20
  3753 ;;		On exit  : 40/0
  3754 ;;		Unchanged: FFF9F/0
  3755 ;; Data sizes:     COMMON   BANK0   BANK1   BANK3   BANK2
  3756 ;;      Params:         0       0       0       0       0
  3757 ;;      Locals:         0       0       0       0       0
  3758 ;;      Temps:          0       0       0       0       0
  3759 ;;      Totals:         0       0       0       0       0
  3760 ;;Total ram usage:        0 bytes
  3761 ;; Hardware stack levels used:    1
  3762 ;; Hardware stack levels required when called:    4
  3763 ;; This function calls:
  3764 ;;		_getAD_ConvertFlag
  3765 ;;		_setAD_ConvertFlag
  3766 ;;		_AD_Sample
  3767 ;;		_adc_start
  3768 ;; This function is called by:
  3769 ;;		_main
  3770 ;; This function uses a non-reentrant model
  3771 ;;
  3772  0EC9                     _process_AD_Converter_Value:	
  3773                           
  3774                           ;common.c: 299: if(getAD_ConvertFlag())
  3775                           
  3776                           ; Regs used in _process_AD_Converter_Value: [wreg+status,2+status,0+pclath+cstack]
  3777  0EC9  26D4  158A         	fcall	_getAD_ConvertFlag
  3778  0ECB  3A00               	xorlw	0
  3779  0ECC  1903               	skipnz
  3780  0ECD  0008               	return
  3781                           
  3782                           ;common.c: 300: {
  3783                           ;common.c: 301: setAD_ConvertFlag(0);
  3784  0ECE  3000               	movlw	0
  3785  0ECF  26D8  158A         	fcall	_setAD_ConvertFlag
  3786                           
  3787                           ;common.c: 302: AD_Sample();
  3788  0ED1  26E0  158A         	fcall	_AD_Sample
  3789                           
  3790                           ;common.c: 314: adc_start();
  3791  0ED3  2EDD               	ljmp	l4739
  3792  0ED4                     __end_of_process_AD_Converter_Value:	
  3793  0ED4                     __ptext999:	
  3794 ;; =============== function _setAD_ConvertFlag ends ============
  3795                           
  3796                           
  3797 ;; *************** function _getAD_ConvertFlag *****************
  3798 ;; Defined at:
  3799 ;;		line 229 in file "C:\temp\dev\AK7030-OTP\common.c"
  3800 ;; Parameters:    Size  Location     Type
  3801 ;;		None
  3802 ;; Auto vars:     Size  Location     Type
  3803 ;;		None
  3804 ;; Return value:  Size  Location     Type
  3805 ;;                  1    wreg      unsigned char 
  3806 ;; Registers used:
  3807 ;;		wreg
  3808 ;; Tracked objects:
  3809 ;;		On entry : 0/20
  3810 ;;		On exit  : 60/20
  3811 ;;		Unchanged: FFF9F/0
  3812 ;; Data sizes:     COMMON   BANK0   BANK1   BANK3   BANK2
  3813 ;;      Params:         0       0       0       0       0
  3814 ;;      Locals:         0       0       0       0       0
  3815 ;;      Temps:          0       0       0       0       0
  3816 ;;      Totals:         0       0       0       0       0
  3817 ;;Total ram usage:        0 bytes
  3818 ;; Hardware stack levels used:    1
  3819 ;; Hardware stack levels required when called:    2
  3820 ;; This function calls:
  3821 ;;		Nothing
  3822 ;; This function is called by:
  3823 ;;		_process_AD_Converter_Value
  3824 ;; This function uses a non-reentrant model
  3825 ;;
  3826  0ED4                     _getAD_ConvertFlag:	
  3827                           
  3828                           ;common.c: 230: return adc_convert_flag;
  3829                           
  3830                           ; Regs used in _getAD_ConvertFlag: [wreg]
  3831  0ED4  1683               	bsf	3,5	;RP0=1, select bank1
  3832  0ED5  1303               	bcf	3,6	;RP1=0, select bank1
  3833  0ED6  082D               	movf	_adc_convert_flag^(0+128),w
  3834  0ED7  0008               	return
  3835  0ED8                     __end_of_getAD_ConvertFlag:	
  3836  0ED8                     __ptext998:	
  3837 ;; =============== function _clearAllTimer ends ============
  3838                           
  3839                           
  3840 ;; *************** function _setAD_ConvertFlag *****************
  3841 ;; Defined at:
  3842 ;;		line 235 in file "C:\temp\dev\AK7030-OTP\common.c"
  3843 ;; Parameters:    Size  Location     Type
  3844 ;;  flag            1    wreg     unsigned char 
  3845 ;; Auto vars:     Size  Location     Type
  3846 ;;  flag            1    0[BANK0 ] unsigned char 
  3847 ;; Return value:  Size  Location     Type
  3848 ;;		None               void
  3849 ;; Registers used:
  3850 ;;		wreg
  3851 ;; Tracked objects:
  3852 ;;		On entry : 60/20
  3853 ;;		On exit  : 60/20
  3854 ;;		Unchanged: FFF9F/0
  3855 ;; Data sizes:     COMMON   BANK0   BANK1   BANK3   BANK2
  3856 ;;      Params:         0       0       0       0       0
  3857 ;;      Locals:         0       1       0       0       0
  3858 ;;      Temps:          0       0       0       0       0
  3859 ;;      Totals:         0       1       0       0       0
  3860 ;;Total ram usage:        1 bytes
  3861 ;; Hardware stack levels used:    1
  3862 ;; Hardware stack levels required when called:    2
  3863 ;; This function calls:
  3864 ;;		Nothing
  3865 ;; This function is called by:
  3866 ;;		_process_AD_Converter_Value
  3867 ;; This function uses a non-reentrant model
  3868 ;;
  3869  0ED8                     _setAD_ConvertFlag:	
  3870                           
  3871                           ; Regs used in _setAD_ConvertFlag: [wreg]
  3872                           ;setAD_ConvertFlag@flag stored from wreg
  3873  0ED8  1283               	bcf	3,5	;RP0=0, select bank0
  3874  0ED9  00A0               	movwf	setAD_ConvertFlag@flag
  3875                           
  3876                           ;common.c: 236: adc_convert_flag = flag;
  3877  0EDA  1683               	bsf	3,5	;RP0=1, select bank1
  3878  0EDB  00AD               	movwf	_adc_convert_flag^(0+128)
  3879  0EDC  0008               	return
  3880  0EDD                     __end_of_setAD_ConvertFlag:	
  3881  0EDD                     __ptext1011:	
  3882 ;; =============== function _startTwentyMinuteTimer ends ============
  3883                           
  3884                           
  3885 ;; *************** function _adc_start *****************
  3886 ;; Defined at:
  3887 ;;		line 100 in file "C:\temp\dev\AK7030-OTP\periph.c"
  3888 ;; Parameters:    Size  Location     Type
  3889 ;;		None
  3890 ;; Auto vars:     Size  Location     Type
  3891 ;;		None
  3892 ;; Return value:  Size  Location     Type
  3893 ;;		None               void
  3894 ;; Registers used:
  3895 ;;		None
  3896 ;; Tracked objects:
  3897 ;;		On entry : 40/20
  3898 ;;		On exit  : 60/0
  3899 ;;		Unchanged: FFF9F/0
  3900 ;; Data sizes:     COMMON   BANK0   BANK1   BANK3   BANK2
  3901 ;;      Params:         0       0       0       0       0
  3902 ;;      Locals:         0       0       0       0       0
  3903 ;;      Temps:          0       0       0       0       0
  3904 ;;      Totals:         0       0       0       0       0
  3905 ;;Total ram usage:        0 bytes
  3906 ;; Hardware stack levels used:    1
  3907 ;; Hardware stack levels required when called:    2
  3908 ;; This function calls:
  3909 ;;		Nothing
  3910 ;; This function is called by:
  3911 ;;		_main
  3912 ;;		_process_AD_Converter_Value
  3913 ;; This function uses a non-reentrant model
  3914 ;;
  3915  0EDD                     _adc_start:	
  3916  0EDD                     l4739:	
  3917                           ; Regs used in _adc_start: []
  3918                           
  3919                           
  3920                           ;periph.c: 101: GO=1;
  3921  0EDD  1283               	bcf	3,5	;RP0=0, select bank0
  3922  0EDE  149F               	bsf	31,1
  3923  0EDF  0008               	return
  3924  0EE0                     __end_of_adc_start:	
  3925  0EE0                     __ptext991:	
  3926 ;; =============== function _clearPinPortAndTimer ends ============
  3927                           
  3928                           
  3929 ;; *************** function _AD_Sample *****************
  3930 ;; Defined at:
  3931 ;;		line 328 in file "C:\temp\dev\AK7030-OTP\common.c"
  3932 ;; Parameters:    Size  Location     Type
  3933 ;;		None
  3934 ;; Auto vars:     Size  Location     Type
  3935 ;;		None
  3936 ;; Return value:  Size  Location     Type
  3937 ;;		None               void
  3938 ;; Registers used:
  3939 ;;		wreg, status,2, status,0, pclath, cstack
  3940 ;; Tracked objects:
  3941 ;;		On entry : 60/20
  3942 ;;		On exit  : 40/0
  3943 ;;		Unchanged: FFF9F/0
  3944 ;; Data sizes:     COMMON   BANK0   BANK1   BANK3   BANK2
  3945 ;;      Params:         0       0       0       0       0
  3946 ;;      Locals:         0       0       0       0       0
  3947 ;;      Temps:          0       0       0       0       0
  3948 ;;      Totals:         0       0       0       0       0
  3949 ;;Total ram usage:        0 bytes
  3950 ;; Hardware stack levels used:    1
  3951 ;; Hardware stack levels required when called:    3
  3952 ;; This function calls:
  3953 ;;		_adc_test_init
  3954 ;; This function is called by:
  3955 ;;		_process_AD_Converter_Value
  3956 ;; This function uses a non-reentrant model
  3957 ;;
  3958  0EE0                     _AD_Sample:	
  3959                           
  3960                           ;common.c: 329: if(sampleTimes < 12)
  3961                           
  3962                           ; Regs used in _AD_Sample: [wreg+status,2+status,0+pclath+cstack]
  3963  0EE0  300C               	movlw	12
  3964  0EE1  1283               	bcf	3,5	;RP0=0, select bank0
  3965  0EE2  0252               	subwf	_sampleTimes,w
  3966  0EE3  1803               	skipnc
  3967  0EE4  0008               	return
  3968  0EE5  300C               	movlw	12
  3969                           
  3970                           ;common.c: 330: {
  3971                           ;common.c: 332: sampleTimes++;
  3972  0EE6  0AD2               	incf	_sampleTimes,f
  3973                           
  3974                           ;common.c: 334: if(sampleTimes >= 12)
  3975  0EE7  0252               	subwf	_sampleTimes,w
  3976  0EE8  1C03               	skipc
  3977  0EE9  0008               	return
  3978                           
  3979                           ;common.c: 335: {
  3980                           ;common.c: 336: sampleTimes = 0;
  3981  0EEA  01D2               	clrf	_sampleTimes
  3982                           
  3983                           ;common.c: 338: if(sampleChannelSelect == 0)
  3984  0EEB  08D1               	movf	_sampleChannelSelect,f
  3985  0EEC  1D03               	skipz
  3986  0EED  2EF0               	goto	l5081
  3987                           
  3988                           ;common.c: 339: {
  3989                           ;common.c: 342: sampleChannelSelect = 2;
  3990  0EEE  3002               	movlw	2
  3991  0EEF  2EFB               	goto	L23
  3992  0EF0                     l5081:	
  3993                           ;common.c: 343: }
  3994                           
  3995                           
  3996                           ;common.c: 344: else if(sampleChannelSelect == 2)
  3997  0EF0  0851               	movf	_sampleChannelSelect,w
  3998  0EF1  3A02               	xorlw	2
  3999  0EF2  1D03               	skipz
  4000  0EF3  2EF6               	goto	l5085
  4001                           
  4002                           ;common.c: 345: {
  4003                           ;common.c: 347: sampleChannelSelect = 5;
  4004  0EF4  3005               	movlw	5
  4005  0EF5  2EFB               	goto	L23
  4006  0EF6                     l5085:	
  4007                           ;common.c: 348: }
  4008                           
  4009                           
  4010                           ;common.c: 349: else if(sampleChannelSelect == 5)
  4011  0EF6  0851               	movf	_sampleChannelSelect,w
  4012  0EF7  3A05               	xorlw	5
  4013  0EF8  1D03               	skipz
  4014  0EF9  2EFD               	goto	l5089
  4015                           
  4016                           ;common.c: 350: {
  4017                           ;common.c: 352: sampleChannelSelect = 6;
  4018  0EFA  3006               	movlw	6
  4019  0EFB                     L23:	
  4020  0EFB  00D1               	movwf	_sampleChannelSelect
  4021                           
  4022                           ;common.c: 353: }
  4023  0EFC  2EFE               	goto	l5091
  4024  0EFD                     l5089:	
  4025                           
  4026                           ;common.c: 354: else
  4027                           ;common.c: 355: {
  4028                           ;common.c: 357: sampleChannelSelect = 0;
  4029  0EFD  01D1               	clrf	_sampleChannelSelect
  4030  0EFE                     l5091:	
  4031                           
  4032                           ;common.c: 358: }
  4033                           ;common.c: 363: adc_test_init(sampleChannelSelect,3);
  4034  0EFE  3003               	movlw	3
  4035  0EFF  00A0               	movwf	?_adc_test_init
  4036  0F00  0851               	movf	_sampleChannelSelect,w
  4037  0F01  2F02               	ljmp	_adc_test_init
  4038  0F02                     __end_of_AD_Sample:	
  4039  0F02                     __ptext1012:	
  4040 ;; =============== function _adc_start ends ============
  4041                           
  4042                           
  4043 ;; *************** function _adc_test_init *****************
  4044 ;; Defined at:
  4045 ;;		line 85 in file "C:\temp\dev\AK7030-OTP\periph.c"
  4046 ;; Parameters:    Size  Location     Type
  4047 ;;  channel         1    wreg     unsigned char 
  4048 ;;  ref             1    0[BANK0 ] unsigned char 
  4049 ;; Auto vars:     Size  Location     Type
  4050 ;;  channel         1    2[BANK0 ] unsigned char 
  4051 ;; Return value:  Size  Location     Type
  4052 ;;		None               void
  4053 ;; Registers used:
  4054 ;;		wreg, status,2, status,0
  4055 ;; Tracked objects:
  4056 ;;		On entry : 60/0
  4057 ;;		On exit  : 60/20
  4058 ;;		Unchanged: FFF9F/0
  4059 ;; Data sizes:     COMMON   BANK0   BANK1   BANK3   BANK2
  4060 ;;      Params:         0       1       0       0       0
  4061 ;;      Locals:         0       1       0       0       0
  4062 ;;      Temps:          0       1       0       0       0
  4063 ;;      Totals:         0       3       0       0       0
  4064 ;;Total ram usage:        3 bytes
  4065 ;; Hardware stack levels used:    1
  4066 ;; Hardware stack levels required when called:    2
  4067 ;; This function calls:
  4068 ;;		Nothing
  4069 ;; This function is called by:
  4070 ;;		_main
  4071 ;;		_AD_Sample
  4072 ;; This function uses a non-reentrant model
  4073 ;;
  4074  0F02                     _adc_test_init:	
  4075                           
  4076                           ; Regs used in _adc_test_init: [wreg+status,2+status,0]
  4077                           ;adc_test_init@channel stored from wreg
  4078  0F02  00A2               	movwf	adc_test_init@channel
  4079                           
  4080                           ;periph.c: 86: ADCON0 = 0x00;
  4081  0F03  019F               	clrf	31	;volatile
  4082                           
  4083                           ;periph.c: 87: ADCON0|=channel<<2;
  4084  0F04  00A1               	movwf	??_adc_test_init
  4085  0F05  1003               	clrc
  4086  0F06  0DA1               	rlf	??_adc_test_init,f
  4087  0F07  1003               	clrc
  4088  0F08  0D21               	rlf	??_adc_test_init,w
  4089  0F09  049F               	iorwf	31,f	;volatile
  4090                           
  4091                           ;periph.c: 88: ADCON1|=ref<<6;
  4092  0F0A  0820               	movf	adc_test_init@ref,w
  4093  0F0B  00A1               	movwf	??_adc_test_init
  4094  0F0C  0CA1               	rrf	??_adc_test_init,f
  4095  0F0D  0CA1               	rrf	??_adc_test_init,f
  4096  0F0E  0C21               	rrf	??_adc_test_init,w
  4097  0F0F  39C0               	andlw	192
  4098  0F10  1683               	bsf	3,5	;RP0=1, select bank1
  4099  0F11  049F               	iorwf	31,f	;volatile
  4100                           
  4101                           ;periph.c: 89: ADON=1;
  4102  0F12  1283               	bcf	3,5	;RP0=0, select bank0
  4103  0F13  141F               	bsf	31,0
  4104                           
  4105                           ;periph.c: 90: ADIE=1;
  4106  0F14  1683               	bsf	3,5	;RP0=1, select bank1
  4107  0F15  150D               	bsf	13,2
  4108  0F16  0008               	return
  4109  0F17                     __end_of_adc_test_init:	
  4110                           
  4111                           	psect	text994
  4112  0562                     __ptext994:	
  4113 ;; =============== function _call_ADC4_STEP_FOURTH_PREFIX3 ends ============
  4114                           
  4115                           
  4116 ;; *************** function _getAdOriginalCh5Value *****************
  4117 ;; Defined at:
  4118 ;;		line 268 in file "C:\temp\dev\AK7030-OTP\common.c"
  4119 ;; Parameters:    Size  Location     Type
  4120 ;;		None
  4121 ;; Auto vars:     Size  Location     Type
  4122 ;;		None
  4123 ;; Return value:  Size  Location     Type
  4124 ;;                  2   38[BANK0 ] unsigned int 
  4125 ;; Registers used:
  4126 ;;		wreg, fsr0l, fsr0h, status,2, status,0, btemp+1, pclath, cstack
  4127 ;; Tracked objects:
  4128 ;;		On entry : 60/0
  4129 ;;		On exit  : 160/0
  4130 ;;		Unchanged: FFE00/0
  4131 ;; Data sizes:     COMMON   BANK0   BANK1   BANK3   BANK2
  4132 ;;      Params:         0       2       0       0       0
  4133 ;;      Locals:         0       0       0       0       0
  4134 ;;      Temps:          0       0       0       0       0
  4135 ;;      Totals:         0       2       0       0       0
  4136 ;;Total ram usage:        2 bytes
  4137 ;; Hardware stack levels used:    1
  4138 ;; Hardware stack levels required when called:    3
  4139 ;; This function calls:
  4140 ;;		_Filter
  4141 ;; This function is called by:
  4142 ;;		_main
  4143 ;; This function uses a non-reentrant model
  4144 ;;
  4145  0562                     _getAdOriginalCh5Value:	
  4146                           
  4147                           ;common.c: 270: return Filter(uiSampleChannelFifth);
  4148                           
  4149                           ; Regs used in _getAdOriginalCh5Value: [wreg-fsr0h+status,2+status,0+btemp+1+pclath+csta
      +                          ck]
  4150  0562  3090               	movlw	_uiSampleChannelFifth& (0+255)
  4151  0563  00A0               	movwf	?_Filter
  4152  0564  3001               	movlw	1
  4153  0565  00A1               	movwf	?_Filter+1
  4154  0566  2729               	fcall	_Filter
  4155  0567  0821               	movf	?_Filter+1,w
  4156  0568  00C7               	movwf	?_getAdOriginalCh5Value+1
  4157  0569  0820               	movf	?_Filter,w
  4158  056A  00C6               	movwf	?_getAdOriginalCh5Value
  4159  056B  0008               	return
  4160  056C                     __end_of_getAdOriginalCh5Value:	
  4161  056C                     __ptext996:	
  4162 ;; =============== function _getAdOriginalCh6Value ends ============
  4163                           
  4164                           
  4165 ;; *************** function _getAdOriginalCh0Value *****************
  4166 ;; Defined at:
  4167 ;;		line 259 in file "C:\temp\dev\AK7030-OTP\common.c"
  4168 ;; Parameters:    Size  Location     Type
  4169 ;;		None
  4170 ;; Auto vars:     Size  Location     Type
  4171 ;;		None
  4172 ;; Return value:  Size  Location     Type
  4173 ;;                  2   38[BANK0 ] unsigned int 
  4174 ;; Registers used:
  4175 ;;		wreg, fsr0l, fsr0h, status,2, status,0, btemp+1, pclath, cstack
  4176 ;; Tracked objects:
  4177 ;;		On entry : 40/0
  4178 ;;		On exit  : 160/0
  4179 ;;		Unchanged: FFE00/0
  4180 ;; Data sizes:     COMMON   BANK0   BANK1   BANK3   BANK2
  4181 ;;      Params:         0       2       0       0       0
  4182 ;;      Locals:         0       0       0       0       0
  4183 ;;      Temps:          0       0       0       0       0
  4184 ;;      Totals:         0       2       0       0       0
  4185 ;;Total ram usage:        2 bytes
  4186 ;; Hardware stack levels used:    1
  4187 ;; Hardware stack levels required when called:    3
  4188 ;; This function calls:
  4189 ;;		_Filter
  4190 ;; This function is called by:
  4191 ;;		_main
  4192 ;; This function uses a non-reentrant model
  4193 ;;
  4194  056C                     _getAdOriginalCh0Value:	
  4195                           
  4196                           ;common.c: 261: return Filter(uiSampleChannelZero);
  4197                           
  4198                           ; Regs used in _getAdOriginalCh0Value: [wreg-fsr0h+status,2+status,0+btemp+1+pclath+csta
      +                          ck]
  4199  056C  30C0               	movlw	_uiSampleChannelZero& (0+255)
  4200  056D  27E2  118A         	fcall	PL8	;call to abstracted procedure
  4201  056F  2729               	fcall	_Filter
  4202  0570  0821               	movf	?_Filter+1,w
  4203  0571  00C7               	movwf	?_getAdOriginalCh0Value+1
  4204  0572  0820               	movf	?_Filter,w
  4205  0573  00C6               	movwf	?_getAdOriginalCh0Value
  4206  0574  0008               	return
  4207  0575                     __end_of_getAdOriginalCh0Value:	
  4208  0575                     __ptext990:	
  4209 ;; =============== function _clearParaFunction1 ends ============
  4210                           
  4211                           
  4212 ;; *************** function _clearPinPortAndTimer *****************
  4213 ;; Defined at:
  4214 ;;		line 108 in file "C:\temp\dev\AK7030-OTP\main.c"
  4215 ;; Parameters:    Size  Location     Type
  4216 ;;		None
  4217 ;; Auto vars:     Size  Location     Type
  4218 ;;		None
  4219 ;; Return value:  Size  Location     Type
  4220 ;;		None               void
  4221 ;; Registers used:
  4222 ;;		status,2, status,0, pclath, cstack
  4223 ;; Tracked objects:
  4224 ;;		On entry : 60/0
  4225 ;;		On exit  : 60/0
  4226 ;;		Unchanged: FFF9F/0
  4227 ;; Data sizes:     COMMON   BANK0   BANK1   BANK3   BANK2
  4228 ;;      Params:         0       0       0       0       0
  4229 ;;      Locals:         0       0       0       0       0
  4230 ;;      Temps:          0       0       0       0       0
  4231 ;;      Totals:         0       0       0       0       0
  4232 ;;Total ram usage:        0 bytes
  4233 ;; Hardware stack levels used:    1
  4234 ;; Hardware stack levels required when called:    4
  4235 ;; This function calls:
  4236 ;;		_clearAllTimer
  4237 ;; This function is called by:
  4238 ;;		_main
  4239 ;; This function uses a non-reentrant model
  4240 ;;
  4241  0575                     _clearPinPortAndTimer:	
  4242                           
  4243                           ;main.c: 110: PB0 = 0;
  4244                           
  4245                           ; Regs used in _clearPinPortAndTimer: [status,2+status,0+pclath+cstack]
  4246  0575  1006               	bcf	6,0
  4247                           
  4248                           ;main.c: 111: PA0 = 0;
  4249  0576  1005               	bcf	5,0
  4250                           
  4251                           ;main.c: 112: PA1 = 0;
  4252  0577  1085               	bcf	5,1
  4253                           
  4254                           ;main.c: 113: PA2 = 0;
  4255  0578  1105               	bcf	5,2
  4256                           
  4257                           ;main.c: 114: PA3 = 0;
  4258  0579  1185               	bcf	5,3
  4259                           
  4260                           ;main.c: 117: PBOD7 = 0;
  4261  057A  1683               	bsf	3,5	;RP0=1, select bank3
  4262  057B  1703               	bsf	3,6	;RP1=1, select bank3
  4263  057C  1388               	bcf	8,7
  4264                           
  4265                           ;main.c: 118: PB7 = 0;
  4266  057D  1283               	bcf	3,5	;RP0=0, select bank0
  4267  057E  1303               	bcf	3,6	;RP1=0, select bank0
  4268  057F  1386               	bcf	6,7
  4269                           
  4270                           ;main.c: 119: clearAllTimer();
  4271  0580  2DC1               	ljmp	l4999
  4272  0581                     __end_of_clearPinPortAndTimer:	
  4273  0581                     __ptext989:	
  4274 ;; =============== function _process_AD_Converter_Value ends ============
  4275                           
  4276                           
  4277 ;; *************** function _clearParaFunction1 *****************
  4278 ;; Defined at:
  4279 ;;		line 578 in file "C:\temp\dev\AK7030-OTP\main.c"
  4280 ;; Parameters:    Size  Location     Type
  4281 ;;		None
  4282 ;; Auto vars:     Size  Location     Type
  4283 ;;		None
  4284 ;; Return value:  Size  Location     Type
  4285 ;;		None               void
  4286 ;; Registers used:
  4287 ;;		wreg, status,2, status,0, pclath, cstack
  4288 ;; Tracked objects:
  4289 ;;		On entry : 140/0
  4290 ;;		On exit  : 160/0
  4291 ;;		Unchanged: FFE9F/0
  4292 ;; Data sizes:     COMMON   BANK0   BANK1   BANK3   BANK2
  4293 ;;      Params:         0       0       0       0       0
  4294 ;;      Locals:         0       0       0       0       0
  4295 ;;      Temps:          0       0       0       0       0
  4296 ;;      Totals:         0       0       0       0       0
  4297 ;;Total ram usage:        0 bytes
  4298 ;; Hardware stack levels used:    1
  4299 ;; Hardware stack levels required when called:    4
  4300 ;; This function calls:
  4301 ;;		_setPA1
  4302 ;;		_setPA0
  4303 ;;		_setPB0
  4304 ;;		_setPB1
  4305 ;;		_setPB2
  4306 ;;		_clearAllTimer
  4307 ;;		_setPA3
  4308 ;;		_setPB4
  4309 ;; This function is called by:
  4310 ;;		_main
  4311 ;; This function uses a non-reentrant model
  4312 ;;
  4313  0581                     _clearParaFunction1:	
  4314                           
  4315                           ;main.c: 579: setPA1(0);
  4316                           
  4317                           ; Regs used in _clearParaFunction1: [wreg+status,2+status,0+pclath+cstack]
  4318  0581  3000               	movlw	0
  4319  0582  25B8  118A         	fcall	_setPA1
  4320                           
  4321                           ;main.c: 580: setPA0(0);
  4322  0584  3000               	movlw	0
  4323  0585  25AF  118A         	fcall	_setPA0
  4324                           
  4325                           ;main.c: 582: setPB0(0);
  4326  0587  3000               	movlw	0
  4327  0588  2597  118A         	fcall	_setPB0
  4328                           
  4329                           ;main.c: 583: setPB1(0);
  4330  058A  3000               	movlw	0
  4331  058B  259F  118A         	fcall	_setPB1
  4332                           
  4333                           ;main.c: 584: setPB2(0);
  4334  058D  3000               	movlw	0
  4335  058E  25A7  118A         	fcall	_setPB2
  4336                           
  4337                           ;main.c: 586: clearAllTimer();
  4338  0590  25C1  118A         	fcall	_clearAllTimer
  4339                           
  4340                           ;main.c: 588: setPA3(0);
  4341  0592  3000               	movlw	0
  4342  0593  2706  118A         	fcall	_setPA3
  4343                           
  4344                           ;main.c: 589: setPB4(0);
  4345  0595  3000               	movlw	0
  4346  0596  2E26               	ljmp	_setPB4
  4347  0597                     __end_of_clearParaFunction1:	
  4348  0597                     __ptext1026:	
  4349 ;; =============== function _setPB1 ends ============
  4350                           
  4351                           
  4352 ;; *************** function _setPB0 *****************
  4353 ;; Defined at:
  4354 ;;		line 164 in file "C:\temp\dev\AK7030-OTP\main.c"
  4355 ;; Parameters:    Size  Location     Type
  4356 ;;  bValue          1    wreg     unsigned char 
  4357 ;; Auto vars:     Size  Location     Type
  4358 ;;  bValue          1    0[BANK0 ] unsigned char 
  4359 ;; Return value:  Size  Location     Type
  4360 ;;		None               void
  4361 ;; Registers used:
  4362 ;;		wreg
  4363 ;; Tracked objects:
  4364 ;;		On entry : 60/0
  4365 ;;		On exit  : 60/0
  4366 ;;		Unchanged: FFF9F/0
  4367 ;; Data sizes:     COMMON   BANK0   BANK1   BANK3   BANK2
  4368 ;;      Params:         0       0       0       0       0
  4369 ;;      Locals:         0       1       0       0       0
  4370 ;;      Temps:          0       0       0       0       0
  4371 ;;      Totals:         0       1       0       0       0
  4372 ;;Total ram usage:        1 bytes
  4373 ;; Hardware stack levels used:    1
  4374 ;; Hardware stack levels required when called:    2
  4375 ;; This function calls:
  4376 ;;		Nothing
  4377 ;; This function is called by:
  4378 ;;		_clearParaFunction1
  4379 ;;		_main
  4380 ;; This function uses a non-reentrant model
  4381 ;;
  4382  0597                     _setPB0:	
  4383                           
  4384                           ; Regs used in _setPB0: [wreg]
  4385                           ;setPB0@bValue stored from wreg
  4386  0597  00A0               	movwf	setPB0@bValue
  4387                           
  4388                           ;main.c: 165: if( bValue )
  4389  0598  0820               	movf	setPB0@bValue,w
  4390  0599  1903               	btfsc	3,2
  4391  059A  2D9D               	goto	l700
  4392                           
  4393                           ;main.c: 167: PB0 = 1;
  4394  059B  1406               	bsf	6,0
  4395  059C  0008               	return
  4396  059D                     l700:	
  4397                           
  4398                           ;main.c: 171: else
  4399                           ;main.c: 173: PB0 = 0;
  4400  059D  1006               	bcf	6,0
  4401  059E  0008               	return
  4402  059F                     __end_of_setPB0:	
  4403  059F                     __ptext1025:	
  4404 ;; =============== function _setPB2 ends ============
  4405                           
  4406                           
  4407 ;; *************** function _setPB1 *****************
  4408 ;; Defined at:
  4409 ;;		line 181 in file "C:\temp\dev\AK7030-OTP\main.c"
  4410 ;; Parameters:    Size  Location     Type
  4411 ;;  bValue          1    wreg     unsigned char 
  4412 ;; Auto vars:     Size  Location     Type
  4413 ;;  bValue          1    0[BANK0 ] unsigned char 
  4414 ;; Return value:  Size  Location     Type
  4415 ;;		None               void
  4416 ;; Registers used:
  4417 ;;		wreg
  4418 ;; Tracked objects:
  4419 ;;		On entry : 60/0
  4420 ;;		On exit  : 60/0
  4421 ;;		Unchanged: FFF9F/0
  4422 ;; Data sizes:     COMMON   BANK0   BANK1   BANK3   BANK2
  4423 ;;      Params:         0       0       0       0       0
  4424 ;;      Locals:         0       1       0       0       0
  4425 ;;      Temps:          0       0       0       0       0
  4426 ;;      Totals:         0       1       0       0       0
  4427 ;;Total ram usage:        1 bytes
  4428 ;; Hardware stack levels used:    1
  4429 ;; Hardware stack levels required when called:    2
  4430 ;; This function calls:
  4431 ;;		Nothing
  4432 ;; This function is called by:
  4433 ;;		_clearParaFunction1
  4434 ;;		_main
  4435 ;; This function uses a non-reentrant model
  4436 ;;
  4437  059F                     _setPB1:	
  4438                           
  4439                           ; Regs used in _setPB1: [wreg]
  4440                           ;setPB1@bValue stored from wreg
  4441  059F  00A0               	movwf	setPB1@bValue
  4442                           
  4443                           ;main.c: 182: if( bValue )
  4444  05A0  0820               	movf	setPB1@bValue,w
  4445  05A1  1903               	btfsc	3,2
  4446  05A2  2DA5               	goto	l705
  4447                           
  4448                           ;main.c: 184: PB1 = 1;
  4449  05A3  1486               	bsf	6,1
  4450  05A4  0008               	return
  4451  05A5                     l705:	
  4452                           
  4453                           ;main.c: 188: else
  4454                           ;main.c: 190: PB1 = 0;
  4455  05A5  1086               	bcf	6,1
  4456  05A6  0008               	return
  4457  05A7                     __end_of_setPB1:	
  4458  05A7                     __ptext1024:	
  4459 ;; =============== function _setPA0 ends ============
  4460                           
  4461                           
  4462 ;; *************** function _setPB2 *****************
  4463 ;; Defined at:
  4464 ;;		line 198 in file "C:\temp\dev\AK7030-OTP\main.c"
  4465 ;; Parameters:    Size  Location     Type
  4466 ;;  bValue          1    wreg     unsigned char 
  4467 ;; Auto vars:     Size  Location     Type
  4468 ;;  bValue          1    0[BANK0 ] unsigned char 
  4469 ;; Return value:  Size  Location     Type
  4470 ;;		None               void
  4471 ;; Registers used:
  4472 ;;		wreg
  4473 ;; Tracked objects:
  4474 ;;		On entry : 60/0
  4475 ;;		On exit  : 60/0
  4476 ;;		Unchanged: FFF9F/0
  4477 ;; Data sizes:     COMMON   BANK0   BANK1   BANK3   BANK2
  4478 ;;      Params:         0       0       0       0       0
  4479 ;;      Locals:         0       1       0       0       0
  4480 ;;      Temps:          0       0       0       0       0
  4481 ;;      Totals:         0       1       0       0       0
  4482 ;;Total ram usage:        1 bytes
  4483 ;; Hardware stack levels used:    1
  4484 ;; Hardware stack levels required when called:    2
  4485 ;; This function calls:
  4486 ;;		Nothing
  4487 ;; This function is called by:
  4488 ;;		_clearParaFunction1
  4489 ;;		_main
  4490 ;; This function uses a non-reentrant model
  4491 ;;
  4492  05A7                     _setPB2:	
  4493                           
  4494                           ; Regs used in _setPB2: [wreg]
  4495                           ;setPB2@bValue stored from wreg
  4496  05A7  00A0               	movwf	setPB2@bValue
  4497                           
  4498                           ;main.c: 199: if( bValue )
  4499  05A8  0820               	movf	setPB2@bValue,w
  4500  05A9  1903               	btfsc	3,2
  4501  05AA  2DAD               	goto	l710
  4502                           
  4503                           ;main.c: 201: PB2 = 1;
  4504  05AB  1506               	bsf	6,2
  4505  05AC  0008               	return
  4506  05AD                     l710:	
  4507                           
  4508                           ;main.c: 205: else
  4509                           ;main.c: 207: PB2 = 0;
  4510  05AD  1106               	bcf	6,2
  4511  05AE  0008               	return
  4512  05AF                     __end_of_setPB2:	
  4513  05AF                     __ptext1023:	
  4514 ;; =============== function _setPA1 ends ============
  4515                           
  4516                           
  4517 ;; *************** function _setPA0 *****************
  4518 ;; Defined at:
  4519 ;;		line 215 in file "C:\temp\dev\AK7030-OTP\main.c"
  4520 ;; Parameters:    Size  Location     Type
  4521 ;;  bValue          1    wreg     unsigned char 
  4522 ;; Auto vars:     Size  Location     Type
  4523 ;;  bValue          1    0[BANK0 ] unsigned char 
  4524 ;; Return value:  Size  Location     Type
  4525 ;;		None               void
  4526 ;; Registers used:
  4527 ;;		wreg
  4528 ;; Tracked objects:
  4529 ;;		On entry : 40/0
  4530 ;;		On exit  : 60/0
  4531 ;;		Unchanged: FFF9F/0
  4532 ;; Data sizes:     COMMON   BANK0   BANK1   BANK3   BANK2
  4533 ;;      Params:         0       0       0       0       0
  4534 ;;      Locals:         0       1       0       0       0
  4535 ;;      Temps:          0       0       0       0       0
  4536 ;;      Totals:         0       1       0       0       0
  4537 ;;Total ram usage:        1 bytes
  4538 ;; Hardware stack levels used:    1
  4539 ;; Hardware stack levels required when called:    2
  4540 ;; This function calls:
  4541 ;;		Nothing
  4542 ;; This function is called by:
  4543 ;;		_clearParaFunction1
  4544 ;;		_main
  4545 ;; This function uses a non-reentrant model
  4546 ;;
  4547  05AF                     _setPA0:	
  4548                           
  4549                           ; Regs used in _setPA0: [wreg]
  4550                           ;setPA0@bValue stored from wreg
  4551  05AF  1283               	bcf	3,5	;RP0=0, select bank0
  4552  05B0  00A0               	movwf	setPA0@bValue
  4553                           
  4554                           ;main.c: 216: if( bValue )
  4555  05B1  0820               	movf	setPA0@bValue,w
  4556  05B2  1903               	btfsc	3,2
  4557  05B3  2DB6               	goto	l715
  4558                           
  4559                           ;main.c: 218: PA0 = 1;
  4560  05B4  1405               	bsf	5,0
  4561  05B5  0008               	return
  4562  05B6                     l715:	
  4563                           
  4564                           ;main.c: 222: else
  4565                           ;main.c: 224: PA0 = 0;
  4566  05B6  1005               	bcf	5,0
  4567  05B7  0008               	return
  4568  05B8                     __end_of_setPA0:	
  4569  05B8                     __ptext1022:	
  4570 ;; =============== function _setPA2 ends ============
  4571                           
  4572                           
  4573 ;; *************** function _setPA1 *****************
  4574 ;; Defined at:
  4575 ;;		line 232 in file "C:\temp\dev\AK7030-OTP\main.c"
  4576 ;; Parameters:    Size  Location     Type
  4577 ;;  bValue          1    wreg     unsigned char 
  4578 ;; Auto vars:     Size  Location     Type
  4579 ;;  bValue          1    0[BANK0 ] unsigned char 
  4580 ;; Return value:  Size  Location     Type
  4581 ;;		None               void
  4582 ;; Registers used:
  4583 ;;		wreg
  4584 ;; Tracked objects:
  4585 ;;		On entry : 40/0
  4586 ;;		On exit  : 60/0
  4587 ;;		Unchanged: FFF9F/0
  4588 ;; Data sizes:     COMMON   BANK0   BANK1   BANK3   BANK2
  4589 ;;      Params:         0       0       0       0       0
  4590 ;;      Locals:         0       1       0       0       0
  4591 ;;      Temps:          0       0       0       0       0
  4592 ;;      Totals:         0       1       0       0       0
  4593 ;;Total ram usage:        1 bytes
  4594 ;; Hardware stack levels used:    1
  4595 ;; Hardware stack levels required when called:    2
  4596 ;; This function calls:
  4597 ;;		Nothing
  4598 ;; This function is called by:
  4599 ;;		_clearParaFunction1
  4600 ;;		_main
  4601 ;; This function uses a non-reentrant model
  4602 ;;
  4603  05B8                     _setPA1:	
  4604                           
  4605                           ; Regs used in _setPA1: [wreg]
  4606                           ;setPA1@bValue stored from wreg
  4607  05B8  1283               	bcf	3,5	;RP0=0, select bank0
  4608  05B9  00A0               	movwf	setPA1@bValue
  4609                           
  4610                           ;main.c: 233: if( bValue )
  4611  05BA  0820               	movf	setPA1@bValue,w
  4612  05BB  1903               	btfsc	3,2
  4613  05BC  2DBF               	goto	l720
  4614                           
  4615                           ;main.c: 235: PA1 = 1;
  4616  05BD  1485               	bsf	5,1
  4617  05BE  0008               	return
  4618  05BF                     l720:	
  4619                           
  4620                           ;main.c: 239: else
  4621                           ;main.c: 241: PA1 = 0;
  4622  05BF  1085               	bcf	5,1
  4623  05C0  0008               	return
  4624  05C1                     __end_of_setPA1:	
  4625  05C1                     __ptext997:	
  4626 ;; =============== function _getAdOriginalCh0Value ends ============
  4627                           
  4628                           
  4629 ;; *************** function _clearAllTimer *****************
  4630 ;; Defined at:
  4631 ;;		line 98 in file "C:\temp\dev\AK7030-OTP\main.c"
  4632 ;; Parameters:    Size  Location     Type
  4633 ;;		None
  4634 ;; Auto vars:     Size  Location     Type
  4635 ;;		None
  4636 ;; Return value:  Size  Location     Type
  4637 ;;		None               void
  4638 ;; Registers used:
  4639 ;;		status,2, status,0, pclath, cstack
  4640 ;; Tracked objects:
  4641 ;;		On entry : 40/20
  4642 ;;		On exit  : 60/0
  4643 ;;		Unchanged: FFF9F/0
  4644 ;; Data sizes:     COMMON   BANK0   BANK1   BANK3   BANK2
  4645 ;;      Params:         0       0       0       0       0
  4646 ;;      Locals:         0       0       0       0       0
  4647 ;;      Temps:          0       0       0       0       0
  4648 ;;      Totals:         0       0       0       0       0
  4649 ;;Total ram usage:        0 bytes
  4650 ;; Hardware stack levels used:    1
  4651 ;; Hardware stack levels required when called:    3
  4652 ;; This function calls:
  4653 ;;		_clearTwelveHoursTimer
  4654 ;;		_clearThreeHoursTimer
  4655 ;;		_clearTwentySecondsTimer
  4656 ;;		_clearTwentyMinuteTimer
  4657 ;; This function is called by:
  4658 ;;		_clearPinPortAndTimer
  4659 ;;		_clearParaFunction1
  4660 ;;		_main
  4661 ;; This function uses a non-reentrant model
  4662 ;;
  4663  05C1                     _clearAllTimer:	
  4664  05C1                     l4999:	
  4665                           ; Regs used in _clearAllTimer: [status,2+status,0+pclath+cstack]
  4666                           
  4667                           
  4668                           ;main.c: 99: clearTwelveHoursTimer();
  4669  05C1  25C8  118A         	fcall	_clearTwelveHoursTimer
  4670                           
  4671                           ;main.c: 100: clearThreeHoursTimer();
  4672  05C3  25CE  118A         	fcall	_clearThreeHoursTimer
  4673                           
  4674                           ;main.c: 101: clearTwentySecondsTimer();
  4675  05C5  27C0  118A         	fcall	_clearTwentySecondsTimer
  4676                           
  4677                           ;main.c: 102: clearTwentyMinuteTimer();
  4678  05C7  2FC6               	ljmp	l4673
  4679  05C8                     __end_of_clearAllTimer:	
  4680  05C8                     __ptext1031:	
  4681 ;; =============== function _clearThreeHoursTimer ends ============
  4682                           
  4683                           
  4684 ;; *************** function _clearTwelveHoursTimer *****************
  4685 ;; Defined at:
  4686 ;;		line 402 in file "C:\temp\dev\AK7030-OTP\common.c"
  4687 ;; Parameters:    Size  Location     Type
  4688 ;;		None
  4689 ;; Auto vars:     Size  Location     Type
  4690 ;;		None
  4691 ;; Return value:  Size  Location     Type
  4692 ;;		None               void
  4693 ;; Registers used:
  4694 ;;		status,2
  4695 ;; Tracked objects:
  4696 ;;		On entry : 40/20
  4697 ;;		On exit  : 60/0
  4698 ;;		Unchanged: FFF9F/0
  4699 ;; Data sizes:     COMMON   BANK0   BANK1   BANK3   BANK2
  4700 ;;      Params:         0       0       0       0       0
  4701 ;;      Locals:         0       0       0       0       0
  4702 ;;      Temps:          0       0       0       0       0
  4703 ;;      Totals:         0       0       0       0       0
  4704 ;;Total ram usage:        0 bytes
  4705 ;; Hardware stack levels used:    1
  4706 ;; Hardware stack levels required when called:    2
  4707 ;; This function calls:
  4708 ;;		Nothing
  4709 ;; This function is called by:
  4710 ;;		_clearAllTimer
  4711 ;; This function uses a non-reentrant model
  4712 ;;
  4713  05C8                     _clearTwelveHoursTimer:	
  4714                           
  4715                           ;common.c: 403: uiBigTimer = 0;
  4716                           
  4717                           ; Regs used in _clearTwelveHoursTimer: [status,2]
  4718  05C8  1683               	bsf	3,5	;RP0=1, select bank1
  4719  05C9  01A0               	clrf	_uiBigTimer^(0+128)
  4720  05CA  01A1               	clrf	(_uiBigTimer+1)^(0+128)
  4721                           
  4722                           ;common.c: 404: bBigTimerStartFlag = 0;
  4723  05CB  1283               	bcf	3,5	;RP0=0, select bank0
  4724  05CC  01CC               	clrf	_bBigTimerStartFlag
  4725  05CD  0008               	return
  4726  05CE                     __end_of_clearTwelveHoursTimer:	
  4727  05CE                     __ptext1030:	
  4728 ;; =============== function _clearTwentySecondsTimer ends ============
  4729                           
  4730                           
  4731 ;; *************** function _clearThreeHoursTimer *****************
  4732 ;; Defined at:
  4733 ;;		line 409 in file "C:\temp\dev\AK7030-OTP\common.c"
  4734 ;; Parameters:    Size  Location     Type
  4735 ;;		None
  4736 ;; Auto vars:     Size  Location     Type
  4737 ;;		None
  4738 ;; Return value:  Size  Location     Type
  4739 ;;		None               void
  4740 ;; Registers used:
  4741 ;;		status,2
  4742 ;; Tracked objects:
  4743 ;;		On entry : 60/0
  4744 ;;		On exit  : 60/0
  4745 ;;		Unchanged: FFF9F/0
  4746 ;; Data sizes:     COMMON   BANK0   BANK1   BANK3   BANK2
  4747 ;;      Params:         0       0       0       0       0
  4748 ;;      Locals:         0       0       0       0       0
  4749 ;;      Temps:          0       0       0       0       0
  4750 ;;      Totals:         0       0       0       0       0
  4751 ;;Total ram usage:        0 bytes
  4752 ;; Hardware stack levels used:    1
  4753 ;; Hardware stack levels required when called:    2
  4754 ;; This function calls:
  4755 ;;		Nothing
  4756 ;; This function is called by:
  4757 ;;		_clearAllTimer
  4758 ;;		_main
  4759 ;; This function uses a non-reentrant model
  4760 ;;
  4761  05CE                     _clearThreeHoursTimer:	
  4762                           
  4763                           ;common.c: 410: uiSmallTimer = 0;
  4764                           
  4765                           ; Regs used in _clearThreeHoursTimer: [status,2]
  4766  05CE  1683               	bsf	3,5	;RP0=1, select bank1
  4767  05CF  01A2               	clrf	_uiSmallTimer^(0+128)
  4768  05D0  01A3               	clrf	(_uiSmallTimer+1)^(0+128)
  4769                           
  4770                           ;common.c: 411: bSmallTimerStartFlag = 0;
  4771  05D1  1283               	bcf	3,5	;RP0=0, select bank0
  4772  05D2  01CD               	clrf	_bSmallTimerStartFlag
  4773  05D3  0008               	return
  4774  05D4                     __end_of_clearThreeHoursTimer:	
  4775  05D4                     __ptext993:	
  4776 ;; =============== function _getAdOriginalCh2Value ends ============
  4777                           
  4778                           
  4779 ;; *************** function _call_ADC4_STEP_FOURTH_PREFIX3 *****************
  4780 ;; Defined at:
  4781 ;;		line 2642 in file "C:\temp\dev\AK7030-OTP\main.c"
  4782 ;; Parameters:    Size  Location     Type
  4783 ;;  bClearStep      1    wreg     unsigned char 
  4784 ;; Auto vars:     Size  Location     Type
  4785 ;;  bClearStep      1    1[BANK0 ] unsigned char 
  4786 ;; Return value:  Size  Location     Type
  4787 ;;		None               void
  4788 ;; Registers used:
  4789 ;;		wreg, fsr0l, fsr0h, status,2, status,0, pclath, cstack
  4790 ;; Tracked objects:
  4791 ;;		On entry : 140/0
  4792 ;;		On exit  : 160/20
  4793 ;;		Unchanged: FFE9F/0
  4794 ;; Data sizes:     COMMON   BANK0   BANK1   BANK3   BANK2
  4795 ;;      Params:         0       0       0       0       0
  4796 ;;      Locals:         0       1       0       0       0
  4797 ;;      Temps:          0       0       0       0       0
  4798 ;;      Totals:         0       1       0       0       0
  4799 ;;Total ram usage:        1 bytes
  4800 ;; Hardware stack levels used:    1
  4801 ;; Hardware stack levels required when called:    3
  4802 ;; This function calls:
  4803 ;;		_setPA3
  4804 ;;		_setPB4
  4805 ;;		_setPB6
  4806 ;;		_setPB6AsInput
  4807 ;;		_clearTwentySecondsTimer
  4808 ;; This function is called by:
  4809 ;;		_main
  4810 ;; This function uses a non-reentrant model
  4811 ;;
  4812  05D4                     _call_ADC4_STEP_FOURTH_PREFIX3:	
  4813                           
  4814                           ; Regs used in _call_ADC4_STEP_FOURTH_PREFIX3: [wreg-fsr0h+status,2+status,0+pclath+csta
      +                          ck]
  4815                           ;call_ADC4_STEP_FOURTH_PREFIX3@bClearStep stored from wreg
  4816  05D4  1283               	bcf	3,5	;RP0=0, select bank0
  4817  05D5  00A1               	movwf	call_ADC4_STEP_FOURTH_PREFIX3@bClearStep
  4818                           
  4819                           ;main.c: 2643: static unsigned char ucPreFix3Step = 0;
  4820                           ;main.c: 2645: static unsigned char ucPrefix3Cnt = 0;
  4821                           ;main.c: 2647: if( 1 == bClearStep)
  4822  05D6  0B21               	decfsz	call_ADC4_STEP_FOURTH_PREFIX3@bClearStep,w
  4823  05D7  2E13               	goto	l5063
  4824                           
  4825                           ;main.c: 2650: ucPreFix3Step = 0;
  4826  05D8  1683               	bsf	3,5	;RP0=1, select bank1
  4827  05D9  01BA               	clrf	call_ADC4_STEP_FOURTH_PREFIX3@ucPreFix3Step^(0+128)
  4828                           
  4829                           ;main.c: 2651: ucPrefix3Cnt = 0;
  4830  05DA  01FD               	clrf	call_ADC4_STEP_FOURTH_PREFIX3@ucPrefix3Cnt
  4831  05DB  2E13               	goto	l5063
  4832  05DC                     l5017:	
  4833                           
  4834                           ;main.c: 2657: {
  4835                           ;main.c: 2662: setPA3(0);
  4836  05DC  3000               	movlw	0
  4837  05DD  2706  118A         	fcall	_setPA3
  4838                           
  4839                           ;main.c: 2663: setPB4(0);
  4840  05DF  3000               	movlw	0
  4841  05E0  2626  118A         	fcall	_setPB4
  4842                           
  4843                           ;main.c: 2664: setPB6(1);
  4844  05E2  3001               	movlw	1
  4845  05E3  2718               	fcall	_setPB6
  4846                           
  4847                           ;main.c: 2665: ucPrefix3Cnt = 0;
  4848  05E4  01FD               	clrf	call_ADC4_STEP_FOURTH_PREFIX3@ucPrefix3Cnt
  4849                           
  4850                           ;main.c: 2666: ucPreFix3Step = 1;
  4851  05E5  1683               	bsf	3,5	;RP0=1, select bank1
  4852  05E6  01BA               	clrf	call_ADC4_STEP_FOURTH_PREFIX3@ucPreFix3Step^(0+128)
  4853  05E7  0ABA               	incf	call_ADC4_STEP_FOURTH_PREFIX3@ucPreFix3Step^(0+128),f
  4854                           
  4855                           ;main.c: 2667: break;
  4856  05E8  0008               	return
  4857  05E9                     l5023:	
  4858  05E9  300A               	movlw	10
  4859                           
  4860                           ;main.c: 2671: {
  4861                           ;main.c: 2675: ucPrefix3Cnt++;
  4862  05EA  0AFD               	incf	call_ADC4_STEP_FOURTH_PREFIX3@ucPrefix3Cnt,f
  4863                           
  4864                           ;main.c: 2677: if( ucPrefix3Cnt >= 10)
  4865  05EB  027D               	subwf	call_ADC4_STEP_FOURTH_PREFIX3@ucPrefix3Cnt,w
  4866  05EC  1C03               	skipc
  4867  05ED  0008               	return
  4868  05EE  3002               	movlw	2
  4869                           
  4870                           ;main.c: 2678: {
  4871                           ;main.c: 2679: ucPrefix3Cnt = 0;
  4872  05EF  01FD               	clrf	call_ADC4_STEP_FOURTH_PREFIX3@ucPrefix3Cnt
  4873                           
  4874                           ;main.c: 2680: ucPreFix3Step = 2;
  4875  05F0  00BA               	movwf	call_ADC4_STEP_FOURTH_PREFIX3@ucPreFix3Step^(0+128)
  4876  05F1  0008               	return
  4877  05F2                     l5031:	
  4878  05F2  300A               	movlw	10
  4879                           
  4880                           ;main.c: 2686: {
  4881                           ;main.c: 2690: ucPrefix3Cnt++;
  4882  05F3  0AFD               	incf	call_ADC4_STEP_FOURTH_PREFIX3@ucPrefix3Cnt,f
  4883                           
  4884                           ;main.c: 2692: if( ucPrefix3Cnt >= 10)
  4885  05F4  027D               	subwf	call_ADC4_STEP_FOURTH_PREFIX3@ucPrefix3Cnt,w
  4886  05F5  1C03               	skipc
  4887  05F6  0008               	return
  4888  05F7  3003               	movlw	3
  4889                           
  4890                           ;main.c: 2693: {
  4891                           ;main.c: 2694: ucPrefix3Cnt = 0;
  4892  05F8  01FD               	clrf	call_ADC4_STEP_FOURTH_PREFIX3@ucPrefix3Cnt
  4893                           
  4894                           ;main.c: 2696: ucPreFix3Step = 3;
  4895  05F9  00BA               	movwf	call_ADC4_STEP_FOURTH_PREFIX3@ucPreFix3Step^(0+128)
  4896  05FA  0008               	return
  4897  05FB                     l5039:	
  4898                           
  4899                           ;main.c: 2702: {
  4900                           ;main.c: 2706: setPA3(1);
  4901  05FB  3001               	movlw	1
  4902  05FC  2706  118A         	fcall	_setPA3
  4903                           
  4904                           ;main.c: 2707: setPB4(1);
  4905  05FE  3001               	movlw	1
  4906  05FF  2626  118A         	fcall	_setPB4
  4907                           
  4908                           ;main.c: 2709: setPB6AsInput();
  4909  0601  2726               	fcall	_setPB6AsInput
  4910  0602  3004               	movlw	4
  4911                           
  4912                           ;main.c: 2710: ucPrefix3Cnt = 0;
  4913  0603  01FD               	clrf	call_ADC4_STEP_FOURTH_PREFIX3@ucPrefix3Cnt
  4914                           
  4915                           ;main.c: 2712: ucPreFix3Step = 4;
  4916  0604  00BA               	movwf	call_ADC4_STEP_FOURTH_PREFIX3@ucPreFix3Step^(0+128)
  4917                           
  4918                           ;main.c: 2713: break;
  4919  0605  0008               	return
  4920  0606                     l5047:	
  4921  0606  3002               	movlw	2
  4922                           
  4923                           ;main.c: 2716: {
  4924                           ;main.c: 2720: ucPrefix3Cnt++;
  4925  0607  0AFD               	incf	call_ADC4_STEP_FOURTH_PREFIX3@ucPrefix3Cnt,f
  4926                           
  4927                           ;main.c: 2722: if( ucPrefix3Cnt >= 2)
  4928  0608  027D               	subwf	call_ADC4_STEP_FOURTH_PREFIX3@ucPrefix3Cnt,w
  4929  0609  1C03               	skipc
  4930  060A  0008               	return
  4931                           
  4932                           ;main.c: 2723: {
  4933                           ;main.c: 2724: clearTwentySecondsTimer();
  4934  060B  27C0               	fcall	_clearTwentySecondsTimer
  4935  060C  3003               	movlw	3
  4936                           
  4937                           ;main.c: 2726: ucPrefix3Cnt = 0;
  4938  060D  01FD               	clrf	call_ADC4_STEP_FOURTH_PREFIX3@ucPrefix3Cnt
  4939                           
  4940                           ;main.c: 2728: ucADC4_Step = ADC4_STEP_INIT;
  4941  060E  01D3               	clrf	_ucADC4_Step
  4942                           
  4943                           ;main.c: 2730: enumMainLoopStep = MAIN_LOOP_STEP_THIRD;
  4944  060F  00D0               	movwf	_enumMainLoopStep
  4945                           
  4946                           ;main.c: 2732: ucPreFix3Step = 0;
  4947  0610  1683               	bsf	3,5	;RP0=1, select bank1
  4948  0611  01BA               	clrf	call_ADC4_STEP_FOURTH_PREFIX3@ucPreFix3Step^(0+128)
  4949  0612  0008               	return
  4950  0613                     l5063:	
  4951  0613  1683               	bsf	3,5	;RP0=1, select bank1
  4952  0614  083A               	movf	call_ADC4_STEP_FOURTH_PREFIX3@ucPreFix3Step^(0+128),w
  4953                           
  4954                           ; Switch size 1, requested type "space"
  4955                           ; Number of cases is 5, Range of values is 0 to 4
  4956                           ; switch strategies available:
  4957                           ; Name         Instructions Cycles
  4958                           ; simple_byte           16     9 (average)
  4959                           ; direct_byte           17     7 (fixed)
  4960                           ; jumptable            260     6 (fixed)
  4961                           ; rangetable             9     6 (fixed)
  4962                           ; spacedrange           16     9 (fixed)
  4963                           ; locatedrange           5     3 (fixed)
  4964                           ;	Chosen strategy is simple_byte
  4965  0615  3A00               	xorlw	0	; case 0
  4966  0616  1903               	skipnz
  4967  0617  2DDC               	goto	l5017
  4968  0618  3A01               	xorlw	1	; case 1
  4969  0619  1903               	skipnz
  4970  061A  2DE9               	goto	l5023
  4971  061B  3A03               	xorlw	3	; case 2
  4972  061C  1903               	skipnz
  4973  061D  2DF2               	goto	l5031
  4974  061E  3A01               	xorlw	1	; case 3
  4975  061F  1903               	skipnz
  4976  0620  2DFB               	goto	l5039
  4977  0621  3A07               	xorlw	7	; case 4
  4978  0622  1903               	skipnz
  4979  0623  2E06               	goto	l5047
  4980  0624  2E25               	goto	l1198
  4981  0625                     l1198:	
  4982  0625  0008               	return
  4983  0626                     __end_of_call_ADC4_STEP_FOURTH_PREFIX3:	
  4984  0626                     __ptext1018:	
  4985 ;; =============== function _setPA6 ends ============
  4986                           
  4987                           
  4988 ;; *************** function _setPB4 *****************
  4989 ;; Defined at:
  4990 ;;		line 308 in file "C:\temp\dev\AK7030-OTP\main.c"
  4991 ;; Parameters:    Size  Location     Type
  4992 ;;  bValue          1    wreg     unsigned char 
  4993 ;; Auto vars:     Size  Location     Type
  4994 ;;  bValue          1    0[BANK0 ] unsigned char 
  4995 ;; Return value:  Size  Location     Type
  4996 ;;		None               void
  4997 ;; Registers used:
  4998 ;;		wreg
  4999 ;; Tracked objects:
  5000 ;;		On entry : 60/0
  5001 ;;		On exit  : 60/0
  5002 ;;		Unchanged: FFF9F/0
  5003 ;; Data sizes:     COMMON   BANK0   BANK1   BANK3   BANK2
  5004 ;;      Params:         0       0       0       0       0
  5005 ;;      Locals:         0       1       0       0       0
  5006 ;;      Temps:          0       0       0       0       0
  5007 ;;      Totals:         0       1       0       0       0
  5008 ;;Total ram usage:        1 bytes
  5009 ;; Hardware stack levels used:    1
  5010 ;; Hardware stack levels required when called:    2
  5011 ;; This function calls:
  5012 ;;		Nothing
  5013 ;; This function is called by:
  5014 ;;		_clearParaFunction1
  5015 ;;		_main
  5016 ;;		_call_ADC4_STEP_FOURTH_PREFIX3
  5017 ;; This function uses a non-reentrant model
  5018 ;;
  5019  0626                     _setPB4:	
  5020                           
  5021                           ; Regs used in _setPB4: [wreg]
  5022                           ;setPB4@bValue stored from wreg
  5023  0626  00A0               	movwf	setPB4@bValue
  5024                           
  5025                           ;main.c: 309: if( bValue )
  5026  0627  0820               	movf	setPB4@bValue,w
  5027  0628  1903               	btfsc	3,2
  5028  0629  2E2C               	goto	l740
  5029                           
  5030                           ;main.c: 311: PB4 = 1;
  5031  062A  1606               	bsf	6,4
  5032  062B  0008               	return
  5033  062C                     l740:	
  5034                           
  5035                           ;main.c: 315: else
  5036                           ;main.c: 317: PB4 = 0;
  5037  062C  1206               	bcf	6,4
  5038  062D  0008               	return
  5039  062E                     __end_of_setPB4:	
  5040  062E                     __ptext987:	
  5041 ;; =============== function _main ends ============
  5042                           
  5043                           
  5044 ;; *************** function _call_ADC4_STEP_FOURTH_PREFIX2 *****************
  5045 ;; Defined at:
  5046 ;;		line 2205 in file "C:\temp\dev\AK7030-OTP\main.c"
  5047 ;; Parameters:    Size  Location     Type
  5048 ;;		None
  5049 ;; Auto vars:     Size  Location     Type
  5050 ;;		None
  5051 ;; Return value:  Size  Location     Type
  5052 ;;		None               void
  5053 ;; Registers used:
  5054 ;;		wreg, fsr0l, fsr0h, status,2, status,0, btemp+1, pclath, cstack
  5055 ;; Tracked objects:
  5056 ;;		On entry : 140/0
  5057 ;;		On exit  : 140/0
  5058 ;;		Unchanged: FFE00/0
  5059 ;; Data sizes:     COMMON   BANK0   BANK1   BANK3   BANK2
  5060 ;;      Params:         0       0       0       0       0
  5061 ;;      Locals:         0       0       0       0       0
  5062 ;;      Temps:          0       0       0       0       0
  5063 ;;      Totals:         0       0       0       0       0
  5064 ;;Total ram usage:        0 bytes
  5065 ;; Hardware stack levels used:    1
  5066 ;; Hardware stack levels required when called:    4
  5067 ;; This function calls:
  5068 ;;		_getAdOriginalCh2Value
  5069 ;;		_getAdOriginalCh6Value
  5070 ;;		_setPA3
  5071 ;;		_setPB6
  5072 ;;		_setPB6AsInput
  5073 ;; This function is called by:
  5074 ;;		_main
  5075 ;; This function uses a non-reentrant model
  5076 ;;
  5077  062E                     _call_ADC4_STEP_FOURTH_PREFIX2:	
  5078                           
  5079                           ;main.c: 2206: enum enum_prefix2_step
  5080                           ;main.c: 2207: {
  5081                           ;main.c: 2208: prefix2_step1 = 0,
  5082                           ;main.c: 2209: prefix2_step2,
  5083                           ;main.c: 2210: prefix2_step3,
  5084                           ;main.c: 2211: prefix2_step4,
  5085                           ;main.c: 2212: prefix2_step5,
  5086                           ;main.c: 2213: prefix2_step6,
  5087                           ;main.c: 2214: prefix2_step7,
  5088                           ;main.c: 2215: prefix2_step8,
  5089                           ;main.c: 2216: prefix2_step9,
  5090                           ;main.c: 2217: };
  5091                           ;main.c: 2223: static unsigned char ucTimerCntMore = 0, ucTimerCntLess = 0;
  5092                           ;main.c: 2225: static unsigned char ucTimerCntMoreFlag = 0, ucTimerCntLessFlag = 0;
  5093                           ;main.c: 2227: static unsigned char ucCompareStep = 0;
  5094                           
  5095                           ; Regs used in _call_ADC4_STEP_FOURTH_PREFIX2: [wreg-fsr0h+status,2+status,0+btemp+1+pcl
      +                          ath+cstack]
  5096  062E  2EE8               	goto	l5235
  5097  062F                     l5113:	
  5098                           
  5099                           ;main.c: 2232: {
  5100                           ;main.c: 2233: if((getAdOriginalCh2Value() > 1950))
  5101  062F  26FC  118A         	fcall	_getAdOriginalCh2Value
  5102  0631  3007               	movlw	7
  5103  0632  0247               	subwf	?_getAdOriginalCh2Value+1,w
  5104  0633  309F               	movlw	159
  5105  0634  1903               	skipnz
  5106  0635  0246               	subwf	?_getAdOriginalCh2Value,w
  5107  0636  1C03               	skipc
  5108  0637  2E3C               	goto	l5119
  5109                           
  5110                           ;main.c: 2234: {
  5111                           ;main.c: 2235: ucTimerCntMore++;
  5112  0638  1683               	bsf	3,5	;RP0=1, select bank1
  5113  0639  0AB7               	incf	call_ADC4_STEP_FOURTH_PREFIX2@ucTimerCntMore^(0+128),f
  5114                           
  5115                           ;main.c: 2236: ucTimerCntLess = 0;
  5116  063A  01B6               	clrf	call_ADC4_STEP_FOURTH_PREFIX2@ucTimerCntLess^(0+128)
  5117                           
  5118                           ;main.c: 2237: }
  5119  063B  2E3F               	goto	l5123
  5120  063C                     l5119:	
  5121                           
  5122                           ;main.c: 2238: else
  5123                           ;main.c: 2239: {
  5124                           ;main.c: 2240: ucTimerCntLess++;
  5125  063C  1683               	bsf	3,5	;RP0=1, select bank1
  5126  063D  0AB6               	incf	call_ADC4_STEP_FOURTH_PREFIX2@ucTimerCntLess^(0+128),f
  5127                           
  5128                           ;main.c: 2241: ucTimerCntMore = 0;
  5129  063E  01B7               	clrf	call_ADC4_STEP_FOURTH_PREFIX2@ucTimerCntMore^(0+128)
  5130  063F                     l5123:	
  5131                           
  5132                           ;main.c: 2245: {
  5133                           ;main.c: 2246: ucTimerCntMoreFlag = 1;
  5134  063F  3002               	movlw	2
  5135  0640  0237               	subwf	call_ADC4_STEP_FOURTH_PREFIX2@ucTimerCntMore^(0+128),w
  5136  0641  1C03               	skipc
  5137  0642  2E45               	goto	l5127
  5138                           
  5139                           ;main.c: 2247: ucCompareStep = 1;
  5140  0643  01AF               	clrf	call_ADC4_STEP_FOURTH_PREFIX2@ucCompareStep^(0+128)
  5141  0644  0AAF               	incf	call_ADC4_STEP_FOURTH_PREFIX2@ucCompareStep^(0+128),f
  5142  0645                     l5127:	
  5143                           
  5144                           ;main.c: 2250: {
  5145                           ;main.c: 2251: ucTimerCntLessFlag = 1;
  5146  0645  3002               	movlw	2
  5147  0646  0236               	subwf	call_ADC4_STEP_FOURTH_PREFIX2@ucTimerCntLess^(0+128),w
  5148  0647  1C03               	skipc
  5149  0648  2EF4               	goto	l5237
  5150                           
  5151                           ;main.c: 2252: ucCompareStep = 2;
  5152  0649  3002               	movlw	2
  5153  064A  00AF               	movwf	call_ADC4_STEP_FOURTH_PREFIX2@ucCompareStep^(0+128)
  5154  064B  2EF4               	goto	l5237
  5155  064C                     l5131:	
  5156                           
  5157                           ;main.c: 2257: {
  5158                           ;main.c: 2258: static unsigned char ucMoreThanP8sCnt = 0;
  5159                           ;main.c: 2260: static unsigned char ucLessThanP8sCnt = 0;
  5160                           ;main.c: 2262: static unsigned char ucTimerCntN1 = 0;
  5161                           ;main.c: 2264: if((getAdOriginalCh2Value() < 1950))
  5162  064C  26FC  118A         	fcall	_getAdOriginalCh2Value
  5163  064E  3007               	movlw	7
  5164  064F  0247               	subwf	?_getAdOriginalCh2Value+1,w
  5165  0650  309E               	movlw	158
  5166  0651  1903               	skipnz
  5167  0652  0246               	subwf	?_getAdOriginalCh2Value,w
  5168  0653  1803               	skipnc
  5169  0654  2E5F               	goto	l5141
  5170                           
  5171                           ;main.c: 2265: {
  5172                           ;main.c: 2266: ucTimerCntN1++;
  5173  0655  1683               	bsf	3,5	;RP0=1, select bank1
  5174  0656  3002               	movlw	2
  5175  0657  0AB8               	incf	call_ADC4_STEP_FOURTH_PREFIX2@ucTimerCntN1^(0+128),f
  5176                           
  5177                           ;main.c: 2267: if(ucTimerCntN1 >= 2)
  5178  0658  0238               	subwf	call_ADC4_STEP_FOURTH_PREFIX2@ucTimerCntN1^(0+128),w
  5179  0659  1C03               	skipc
  5180  065A  2E61               	goto	l5143
  5181  065B  3002               	movlw	2
  5182                           
  5183                           ;main.c: 2268: {
  5184                           ;main.c: 2269: ucTimerCntN1 = 0;
  5185  065C  01B8               	clrf	call_ADC4_STEP_FOURTH_PREFIX2@ucTimerCntN1^(0+128)
  5186                           
  5187                           ;main.c: 2270: ucCompareStep = 2;
  5188  065D  00AF               	movwf	call_ADC4_STEP_FOURTH_PREFIX2@ucCompareStep^(0+128)
  5189  065E  2E61               	goto	l5143
  5190  065F                     l5141:	
  5191                           
  5192                           ;main.c: 2273: else
  5193                           ;main.c: 2274: ucTimerCntN1 = 0;
  5194  065F  1683               	bsf	3,5	;RP0=1, select bank1
  5195  0660  01B8               	clrf	call_ADC4_STEP_FOURTH_PREFIX2@ucTimerCntN1^(0+128)
  5196  0661                     l5143:	
  5197                           
  5198                           ;main.c: 2280: if((getAdOriginalCh6Value() < 50))
  5199  0661  270F  118A         	fcall	_getAdOriginalCh6Value
  5200  0663  3000               	movlw	0
  5201  0664  0247               	subwf	?_getAdOriginalCh6Value+1,w
  5202  0665  3032               	movlw	50
  5203  0666  1903               	skipnz
  5204  0667  0246               	subwf	?_getAdOriginalCh6Value,w
  5205  0668  1803               	skipnc
  5206  0669  2E6F               	goto	l5153
  5207                           
  5208                           ;main.c: 2281: {
  5209                           ;main.c: 2282: ucLessThanP8sCnt++;
  5210  066A  1683               	bsf	3,5	;RP0=1, select bank1
  5211  066B  0AB1               	incf	call_ADC4_STEP_FOURTH_PREFIX2@ucLessThanP8sCnt^(0+128),f
  5212                           
  5213                           ;main.c: 2283: ucMoreThanP8sCnt = 0;
  5214  066C  01B3               	clrf	call_ADC4_STEP_FOURTH_PREFIX2@ucMoreThanP8sCnt^(0+128)
  5215                           
  5216                           ;main.c: 2285: ucLessThanP8sCnt = 0;
  5217  066D  01B1               	clrf	call_ADC4_STEP_FOURTH_PREFIX2@ucLessThanP8sCnt^(0+128)
  5218                           
  5219                           ;main.c: 2286: break;
  5220  066E  2EF4               	goto	l5237
  5221  066F                     l5153:	
  5222                           
  5223                           ;main.c: 2288: else
  5224                           ;main.c: 2289: {
  5225                           ;main.c: 2290: ucMoreThanP8sCnt++;
  5226  066F  1683               	bsf	3,5	;RP0=1, select bank1
  5227  0670  3008               	movlw	8
  5228  0671  0AB3               	incf	call_ADC4_STEP_FOURTH_PREFIX2@ucMoreThanP8sCnt^(0+128),f
  5229                           
  5230                           ;main.c: 2291: ucLessThanP8sCnt = 0;
  5231  0672  01B1               	clrf	call_ADC4_STEP_FOURTH_PREFIX2@ucLessThanP8sCnt^(0+128)
  5232                           
  5233                           ;main.c: 2304: else if( ucMoreThanP8sCnt >= 8 )
  5234  0673  0233               	subwf	call_ADC4_STEP_FOURTH_PREFIX2@ucMoreThanP8sCnt^(0+128),w
  5235  0674  1C03               	skipc
  5236  0675  2EF4               	goto	l5237
  5237  0676  3003               	movlw	3
  5238                           
  5239                           ;main.c: 2305: {
  5240                           ;main.c: 2306: ucLessThanP8sCnt = 0;
  5241  0677  01B1               	clrf	call_ADC4_STEP_FOURTH_PREFIX2@ucLessThanP8sCnt^(0+128)
  5242                           
  5243                           ;main.c: 2307: ucMoreThanP8sCnt = 0;
  5244  0678  01B3               	clrf	call_ADC4_STEP_FOURTH_PREFIX2@ucMoreThanP8sCnt^(0+128)
  5245                           
  5246                           ;main.c: 2309: enumMainLoopStep = MAIN_LOOP_STEP_THIRD;
  5247  0679  1283               	bcf	3,5	;RP0=0, select bank0
  5248  067A  00D0               	movwf	_enumMainLoopStep
  5249                           
  5250                           ;main.c: 2311: ucTimerCntMoreFlag = 0;
  5251  067B  01D3               	clrf	_ucADC4_Step
  5252                           
  5253                           ;main.c: 2312: ;
  5254                           ;main.c: 2313: }
  5255  067C  2EF4               	goto	l5237
  5256  067D                     l5171:	
  5257  067D  3000               	movlw	0
  5258                           
  5259                           ;main.c: 2329: {
  5260                           ;main.c: 2333: ucTimeCntP2s = 0;
  5261  067E  01B5               	clrf	call_ADC4_STEP_FOURTH_PREFIX2@ucTimeCntP2s^(0+128)
  5262                           
  5263                           ;main.c: 2334: setPA3(0);
  5264  067F  2706  118A         	fcall	_setPA3
  5265                           
  5266                           ;main.c: 2335: setPB6(0);
  5267  0681  3000               	movlw	0
  5268  0682  2718  118A         	fcall	_setPB6
  5269                           
  5270                           ;main.c: 2336: ucPrefix2Step = prefix2_step2;
  5271  0684  1683               	bsf	3,5	;RP0=1, select bank1
  5272  0685  01B4               	clrf	call_ADC4_STEP_FOURTH_PREFIX2@ucPrefix2Step^(0+128)
  5273  0686  0AB4               	incf	call_ADC4_STEP_FOURTH_PREFIX2@ucPrefix2Step^(0+128),f
  5274                           
  5275                           ;main.c: 2337: break;
  5276  0687  2EF4               	goto	l5237
  5277  0688                     l5179:	
  5278                           
  5279                           ;main.c: 2341: {
  5280                           ;main.c: 2345: if((getAdOriginalCh2Value() > 2300))
  5281  0688  26FC  118A         	fcall	_getAdOriginalCh2Value
  5282  068A  3008               	movlw	8
  5283  068B  0247               	subwf	?_getAdOriginalCh2Value+1,w
  5284  068C  30FD               	movlw	253
  5285  068D  1903               	skipnz
  5286  068E  0246               	subwf	?_getAdOriginalCh2Value,w
  5287  068F  1C03               	skipc
  5288  0690  2E94               	goto	l5183
  5289                           
  5290                           ;main.c: 2346: {
  5291                           ;main.c: 2347: ucTimeCntP2s++;
  5292  0691  1683               	bsf	3,5	;RP0=1, select bank1
  5293  0692  0AB5               	incf	call_ADC4_STEP_FOURTH_PREFIX2@ucTimeCntP2s^(0+128),f
  5294                           
  5295                           ;main.c: 2348: }
  5296  0693  2E96               	goto	l5185
  5297  0694                     l5183:	
  5298                           
  5299                           ;main.c: 2349: else
  5300                           ;main.c: 2350: ucTimeCntP2s = 0;
  5301  0694  1683               	bsf	3,5	;RP0=1, select bank1
  5302  0695  01B5               	clrf	call_ADC4_STEP_FOURTH_PREFIX2@ucTimeCntP2s^(0+128)
  5303  0696                     l5185:	
  5304                           
  5305                           ;main.c: 2352: if( ucTimeCntP2s >= 2)
  5306  0696  3002               	movlw	2
  5307  0697  0235               	subwf	call_ADC4_STEP_FOURTH_PREFIX2@ucTimeCntP2s^(0+128),w
  5308  0698  1C03               	skipc
  5309  0699  2EF4               	goto	l5237
  5310  069A  3002               	movlw	2
  5311                           
  5312                           ;main.c: 2353: {
  5313                           ;main.c: 2354: ucTimeCntP2s = 0;
  5314  069B  01B5               	clrf	call_ADC4_STEP_FOURTH_PREFIX2@ucTimeCntP2s^(0+128)
  5315                           
  5316                           ;main.c: 2355: ucPrefix2Step = prefix2_step3;
  5317  069C  2EAC               	goto	L21
  5318  069D                     l5191:	
  5319                           
  5320                           ;main.c: 2363: {
  5321                           ;main.c: 2367: setPA3(1);
  5322  069D  3001               	movlw	1
  5323  069E  2706  118A         	fcall	_setPA3
  5324                           
  5325                           ;main.c: 2369: setPB6AsInput();
  5326  06A0  2726  118A         	fcall	_setPB6AsInput
  5327                           
  5328                           ;main.c: 2370: ucPrefix2Step = prefix2_step4;
  5329  06A2  3003               	movlw	3
  5330  06A3  2EAC               	goto	L21
  5331  06A4                     l5195:	
  5332                           ;main.c: 2371: break;
  5333                           
  5334                           
  5335                           ;main.c: 2375: {
  5336                           ;main.c: 2379: static unsigned char ucTimerCntP5s = 0;
  5337                           ;main.c: 2380: if( ucTimerCntP5s < 5)
  5338  06A4  3005               	movlw	5
  5339  06A5  0239               	subwf	call_ADC4_STEP_FOURTH_PREFIX2@ucTimerCntP5s^(0+128),w
  5340  06A6  1803               	skipnc
  5341  06A7  2EAA               	goto	l5199
  5342                           
  5343                           ;main.c: 2381: ucTimerCntP5s++;
  5344  06A8  0AB9               	incf	call_ADC4_STEP_FOURTH_PREFIX2@ucTimerCntP5s^(0+128),f
  5345  06A9  2EF4               	goto	l5237
  5346  06AA                     l5199:	
  5347  06AA  3004               	movlw	4
  5348                           
  5349                           ;main.c: 2382: else
  5350                           ;main.c: 2383: {
  5351                           ;main.c: 2384: ucTimerCntP5s = 0;
  5352  06AB  01B9               	clrf	call_ADC4_STEP_FOURTH_PREFIX2@ucTimerCntP5s^(0+128)
  5353  06AC                     L21:	
  5354                           ;main.c: 2385: ucPrefix2Step = prefix2_step5;
  5355                           
  5356  06AC  00B4               	movwf	call_ADC4_STEP_FOURTH_PREFIX2@ucPrefix2Step^(0+128)
  5357  06AD  2EF4               	goto	l5237
  5358  06AE                     l5203:	
  5359                           
  5360                           ;main.c: 2392: {
  5361                           ;main.c: 2396: static unsigned char ucMoreThanP3sCnt = 0;
  5362                           ;main.c: 2398: static unsigned char ucLessThanP3sCnt = 0;
  5363                           ;main.c: 2399: if((getAdOriginalCh6Value() < 50))
  5364  06AE  270F  118A         	fcall	_getAdOriginalCh6Value
  5365  06B0  3000               	movlw	0
  5366  06B1  0247               	subwf	?_getAdOriginalCh6Value+1,w
  5367  06B2  3032               	movlw	50
  5368  06B3  1903               	skipnz
  5369  06B4  0246               	subwf	?_getAdOriginalCh6Value,w
  5370  06B5  1803               	skipnc
  5371  06B6  2EBB               	goto	l5209
  5372                           
  5373                           ;main.c: 2400: {
  5374                           ;main.c: 2401: ucLessThanP3sCnt++;
  5375  06B7  1683               	bsf	3,5	;RP0=1, select bank1
  5376  06B8  0AB0               	incf	call_ADC4_STEP_FOURTH_PREFIX2@ucLessThanP3sCnt^(0+128),f
  5377                           
  5378                           ;main.c: 2402: ucMoreThanP3sCnt = 0;
  5379  06B9  01B2               	clrf	call_ADC4_STEP_FOURTH_PREFIX2@ucMoreThanP3sCnt^(0+128)
  5380                           
  5381                           ;main.c: 2403: }
  5382  06BA  2EBE               	goto	l5213
  5383  06BB                     l5209:	
  5384                           
  5385                           ;main.c: 2404: else
  5386                           ;main.c: 2405: {
  5387                           ;main.c: 2406: ucMoreThanP3sCnt++;
  5388  06BB  1683               	bsf	3,5	;RP0=1, select bank1
  5389  06BC  0AB2               	incf	call_ADC4_STEP_FOURTH_PREFIX2@ucMoreThanP3sCnt^(0+128),f
  5390                           
  5391                           ;main.c: 2407: ucLessThanP3sCnt = 0;
  5392  06BD  01B0               	clrf	call_ADC4_STEP_FOURTH_PREFIX2@ucLessThanP3sCnt^(0+128)
  5393  06BE                     l5213:	
  5394                           
  5395                           ;main.c: 2408: }
  5396                           ;main.c: 2410: if( ucLessThanP3sCnt >= 3)
  5397  06BE  3003               	movlw	3
  5398  06BF  0230               	subwf	call_ADC4_STEP_FOURTH_PREFIX2@ucLessThanP3sCnt^(0+128),w
  5399  06C0  1C03               	skipc
  5400  06C1  2ECA               	goto	l5219
  5401                           
  5402                           ;main.c: 2411: {
  5403                           ;main.c: 2412: ucLessThanP3sCnt = 0;
  5404  06C2  01B0               	clrf	call_ADC4_STEP_FOURTH_PREFIX2@ucLessThanP3sCnt^(0+128)
  5405                           
  5406                           ;main.c: 2413: ucMoreThanP3sCnt = 0;
  5407  06C3  01B2               	clrf	call_ADC4_STEP_FOURTH_PREFIX2@ucMoreThanP3sCnt^(0+128)
  5408                           
  5409                           ;main.c: 2415: enumMainLoopStep = MAIN_LOOP_STEP_FIRST;
  5410  06C4  1283               	bcf	3,5	;RP0=0, select bank0
  5411  06C5  01D0               	clrf	_enumMainLoopStep
  5412  06C6  0AD0               	incf	_enumMainLoopStep,f
  5413                           
  5414                           ;main.c: 2417: ucTimerCntMoreFlag = 0;
  5415  06C7  01D3               	clrf	_ucADC4_Step
  5416                           
  5417                           ;main.c: 2419: ucPrefix2Step = prefix2_step1;
  5418  06C8  1683               	bsf	3,5	;RP0=1, select bank1
  5419  06C9  01B4               	clrf	call_ADC4_STEP_FOURTH_PREFIX2@ucPrefix2Step^(0+128)
  5420  06CA                     l5219:	
  5421                           
  5422                           ;main.c: 2420: }
  5423                           ;main.c: 2422: if(ucMoreThanP3sCnt >= 3)
  5424  06CA  3003               	movlw	3
  5425  06CB  0232               	subwf	call_ADC4_STEP_FOURTH_PREFIX2@ucMoreThanP3sCnt^(0+128),w
  5426  06CC  1C03               	skipc
  5427  06CD  2EF4               	goto	l5237
  5428  06CE  3003               	movlw	3
  5429                           
  5430                           ;main.c: 2423: {
  5431                           ;main.c: 2424: ucLessThanP3sCnt = 0;
  5432  06CF  01B0               	clrf	call_ADC4_STEP_FOURTH_PREFIX2@ucLessThanP3sCnt^(0+128)
  5433                           
  5434                           ;main.c: 2425: ucMoreThanP3sCnt = 0;
  5435  06D0  01B2               	clrf	call_ADC4_STEP_FOURTH_PREFIX2@ucMoreThanP3sCnt^(0+128)
  5436                           
  5437                           ;main.c: 2427: enumMainLoopStep = MAIN_LOOP_STEP_THIRD;
  5438  06D1  1283               	bcf	3,5	;RP0=0, select bank0
  5439  06D2  00D0               	movwf	_enumMainLoopStep
  5440                           
  5441                           ;main.c: 2429: ucTimerCntMoreFlag = 0;
  5442  06D3  01D3               	clrf	_ucADC4_Step
  5443                           
  5444                           ;main.c: 2431: ucPrefix2Step = prefix2_step1;
  5445  06D4  1683               	bsf	3,5	;RP0=1, select bank1
  5446  06D5  01B4               	clrf	call_ADC4_STEP_FOURTH_PREFIX2@ucPrefix2Step^(0+128)
  5447  06D6  2EF4               	goto	l5237
  5448  06D7                     l5231:	
  5449  06D7  0834               	movf	call_ADC4_STEP_FOURTH_PREFIX2@ucPrefix2Step^(0+128),w
  5450                           
  5451                           ; Switch size 1, requested type "space"
  5452                           ; Number of cases is 5, Range of values is 0 to 4
  5453                           ; switch strategies available:
  5454                           ; Name         Instructions Cycles
  5455                           ; simple_byte           16     9 (average)
  5456                           ; direct_byte           17     7 (fixed)
  5457                           ; jumptable            260     6 (fixed)
  5458                           ; rangetable             9     6 (fixed)
  5459                           ; spacedrange           16     9 (fixed)
  5460                           ; locatedrange           5     3 (fixed)
  5461                           ;	Chosen strategy is simple_byte
  5462  06D8  3A00               	xorlw	0	; case 0
  5463  06D9  1903               	skipnz
  5464  06DA  2E7D               	goto	l5171
  5465  06DB  3A01               	xorlw	1	; case 1
  5466  06DC  1903               	skipnz
  5467  06DD  2E88               	goto	l5179
  5468  06DE  3A03               	xorlw	3	; case 2
  5469  06DF  1903               	skipnz
  5470  06E0  2E9D               	goto	l5191
  5471  06E1  3A01               	xorlw	1	; case 3
  5472  06E2  1903               	skipnz
  5473  06E3  2EA4               	goto	l5195
  5474  06E4  3A07               	xorlw	7	; case 4
  5475  06E5  1903               	skipnz
  5476  06E6  2EAE               	goto	l5203
  5477  06E7  2EF4               	goto	l5237
  5478  06E8                     l5235:	
  5479  06E8  1683               	bsf	3,5	;RP0=1, select bank1
  5480  06E9  082F               	movf	call_ADC4_STEP_FOURTH_PREFIX2@ucCompareStep^(0+128),w
  5481                           
  5482                           ; Switch size 1, requested type "space"
  5483                           ; Number of cases is 3, Range of values is 0 to 2
  5484                           ; switch strategies available:
  5485                           ; Name         Instructions Cycles
  5486                           ; simple_byte           10     6 (average)
  5487                           ; direct_byte           13     7 (fixed)
  5488                           ; jumptable            260     6 (fixed)
  5489                           ; rangetable             7     6 (fixed)
  5490                           ; spacedrange           12     9 (fixed)
  5491                           ; locatedrange           3     3 (fixed)
  5492                           ;	Chosen strategy is simple_byte
  5493  06EA  3A00               	xorlw	0	; case 0
  5494  06EB  1903               	skipnz
  5495  06EC  2E2F               	goto	l5113
  5496  06ED  3A01               	xorlw	1	; case 1
  5497  06EE  1903               	skipnz
  5498  06EF  2E4C               	goto	l5131
  5499  06F0  3A03               	xorlw	3	; case 2
  5500  06F1  1903               	skipnz
  5501  06F2  2ED7               	goto	l5231
  5502  06F3  2EF4               	goto	l5237
  5503  06F4                     l5237:	
  5504                           
  5505                           ;main.c: 2631: if(ADC4_STEP_INIT == ucADC4_Step)
  5506  06F4  1283               	bcf	3,5	;RP0=0, select bank0
  5507  06F5  08D3               	movf	_ucADC4_Step,f
  5508  06F6  1D03               	skipz
  5509  06F7  0008               	return
  5510                           
  5511                           ;main.c: 2632: {
  5512                           ;main.c: 2633: ucTimerCntMore = 0;
  5513  06F8  1683               	bsf	3,5	;RP0=1, select bank1
  5514  06F9  01B7               	clrf	call_ADC4_STEP_FOURTH_PREFIX2@ucTimerCntMore^(0+128)
  5515                           
  5516                           ;main.c: 2636: ucTimerCntLessFlag = 0;
  5517  06FA  01B6               	clrf	call_ADC4_STEP_FOURTH_PREFIX2@ucTimerCntLess^(0+128)
  5518  06FB  0008               	return
  5519  06FC                     __end_of_call_ADC4_STEP_FOURTH_PREFIX2:	
  5520  06FC                     __ptext992:	
  5521 ;; =============== function _AD_Sample ends ============
  5522                           
  5523                           
  5524 ;; *************** function _getAdOriginalCh2Value *****************
  5525 ;; Defined at:
  5526 ;;		line 287 in file "C:\temp\dev\AK7030-OTP\common.c"
  5527 ;; Parameters:    Size  Location     Type
  5528 ;;		None
  5529 ;; Auto vars:     Size  Location     Type
  5530 ;;		None
  5531 ;; Return value:  Size  Location     Type
  5532 ;;                  2   38[BANK0 ] unsigned int 
  5533 ;; Registers used:
  5534 ;;		wreg, fsr0l, fsr0h, status,2, status,0, btemp+1, pclath, cstack
  5535 ;; Tracked objects:
  5536 ;;		On entry : 40/0
  5537 ;;		On exit  : 160/0
  5538 ;;		Unchanged: FFE00/0
  5539 ;; Data sizes:     COMMON   BANK0   BANK1   BANK3   BANK2
  5540 ;;      Params:         0       2       0       0       0
  5541 ;;      Locals:         0       0       0       0       0
  5542 ;;      Temps:          0       0       0       0       0
  5543 ;;      Totals:         0       2       0       0       0
  5544 ;;Total ram usage:        2 bytes
  5545 ;; Hardware stack levels used:    1
  5546 ;; Hardware stack levels required when called:    3
  5547 ;; This function calls:
  5548 ;;		_Filter
  5549 ;; This function is called by:
  5550 ;;		_main
  5551 ;;		_call_ADC4_STEP_FOURTH_PREFIX2
  5552 ;; This function uses a non-reentrant model
  5553 ;;
  5554  06FC                     _getAdOriginalCh2Value:	
  5555                           
  5556                           ;common.c: 289: return Filter(uiSampleChannelSecond);
  5557                           
  5558                           ; Regs used in _getAdOriginalCh2Value: [wreg-fsr0h+status,2+status,0+btemp+1+pclath+csta
      +                          ck]
  5559  06FC  30D0               	movlw	_uiSampleChannelSecond& (0+255)
  5560  06FD  1283               	bcf	3,5	;RP0=0, select bank0
  5561  06FE  00A0               	movwf	?_Filter
  5562  06FF  01A1               	clrf	?_Filter+1
  5563  0700  2729               	fcall	_Filter
  5564  0701  0821               	movf	?_Filter+1,w
  5565  0702  00C7               	movwf	?_getAdOriginalCh2Value+1
  5566  0703  0820               	movf	?_Filter,w
  5567  0704  00C6               	movwf	?_getAdOriginalCh2Value
  5568  0705  0008               	return
  5569  0706                     __end_of_getAdOriginalCh2Value:	
  5570  0706                     __ptext1020:	
  5571 ;; =============== function _setPB6 ends ============
  5572                           
  5573                           
  5574 ;; *************** function _setPA3 *****************
  5575 ;; Defined at:
  5576 ;;		line 267 in file "C:\temp\dev\AK7030-OTP\main.c"
  5577 ;; Parameters:    Size  Location     Type
  5578 ;;  bValue          1    wreg     unsigned char 
  5579 ;; Auto vars:     Size  Location     Type
  5580 ;;  bValue          1    0[BANK0 ] unsigned char 
  5581 ;; Return value:  Size  Location     Type
  5582 ;;		None               void
  5583 ;; Registers used:
  5584 ;;		wreg
  5585 ;; Tracked objects:
  5586 ;;		On entry : 40/0
  5587 ;;		On exit  : 60/0
  5588 ;;		Unchanged: FFF9F/0
  5589 ;; Data sizes:     COMMON   BANK0   BANK1   BANK3   BANK2
  5590 ;;      Params:         0       0       0       0       0
  5591 ;;      Locals:         0       1       0       0       0
  5592 ;;      Temps:          0       0       0       0       0
  5593 ;;      Totals:         0       1       0       0       0
  5594 ;;Total ram usage:        1 bytes
  5595 ;; Hardware stack levels used:    1
  5596 ;; Hardware stack levels required when called:    2
  5597 ;; This function calls:
  5598 ;;		Nothing
  5599 ;; This function is called by:
  5600 ;;		_clearParaFunction1
  5601 ;;		_main
  5602 ;;		_call_ADC4_STEP_FOURTH_PREFIX2
  5603 ;;		_call_ADC4_STEP_FOURTH_PREFIX3
  5604 ;; This function uses a non-reentrant model
  5605 ;;
  5606  0706                     _setPA3:	
  5607                           
  5608                           ; Regs used in _setPA3: [wreg]
  5609                           ;setPA3@bValue stored from wreg
  5610  0706  1283               	bcf	3,5	;RP0=0, select bank0
  5611  0707  00A0               	movwf	setPA3@bValue
  5612                           
  5613                           ;main.c: 268: if( bValue )
  5614  0708  0820               	movf	setPA3@bValue,w
  5615  0709  1903               	btfsc	3,2
  5616  070A  2F0D               	goto	l730
  5617                           
  5618                           ;main.c: 270: PA3 = 1;
  5619  070B  1585               	bsf	5,3
  5620  070C  0008               	return
  5621  070D                     l730:	
  5622                           
  5623                           ;main.c: 274: else
  5624                           ;main.c: 276: PA3 = 0;
  5625  070D  1185               	bcf	5,3
  5626  070E  0008               	return
  5627  070F                     __end_of_setPA3:	
  5628  070F                     __ptext995:	
  5629 ;; =============== function _getAdOriginalCh5Value ends ============
  5630                           
  5631                           
  5632 ;; *************** function _getAdOriginalCh6Value *****************
  5633 ;; Defined at:
  5634 ;;		line 278 in file "C:\temp\dev\AK7030-OTP\common.c"
  5635 ;; Parameters:    Size  Location     Type
  5636 ;;		None
  5637 ;; Auto vars:     Size  Location     Type
  5638 ;;		None
  5639 ;; Return value:  Size  Location     Type
  5640 ;;                  2   38[BANK0 ] unsigned int 
  5641 ;; Registers used:
  5642 ;;		wreg, fsr0l, fsr0h, status,2, status,0, btemp+1, pclath, cstack
  5643 ;; Tracked objects:
  5644 ;;		On entry : 40/0
  5645 ;;		On exit  : 160/0
  5646 ;;		Unchanged: FFE00/0
  5647 ;; Data sizes:     COMMON   BANK0   BANK1   BANK3   BANK2
  5648 ;;      Params:         0       2       0       0       0
  5649 ;;      Locals:         0       0       0       0       0
  5650 ;;      Temps:          0       0       0       0       0
  5651 ;;      Totals:         0       2       0       0       0
  5652 ;;Total ram usage:        2 bytes
  5653 ;; Hardware stack levels used:    1
  5654 ;; Hardware stack levels required when called:    3
  5655 ;; This function calls:
  5656 ;;		_Filter
  5657 ;; This function is called by:
  5658 ;;		_main
  5659 ;;		_call_ADC4_STEP_FOURTH_PREFIX2
  5660 ;; This function uses a non-reentrant model
  5661 ;;
  5662  070F                     _getAdOriginalCh6Value:	
  5663                           
  5664                           ;common.c: 280: return Filter(uiSampleChannelSixth);
  5665                           
  5666                           ; Regs used in _getAdOriginalCh6Value: [wreg-fsr0h+status,2+status,0+btemp+1+pclath+csta
      +                          ck]
  5667  070F  30A8               	movlw	_uiSampleChannelSixth& (0+255)
  5668  0710  27E2  118A         	fcall	PL8	;call to abstracted procedure
  5669  0712  2729               	fcall	_Filter
  5670  0713  0821               	movf	?_Filter+1,w
  5671  0714  00C7               	movwf	?_getAdOriginalCh6Value+1
  5672  0715  0820               	movf	?_Filter,w
  5673  0716  00C6               	movwf	?_getAdOriginalCh6Value
  5674  0717  0008               	return
  5675  0718                     __end_of_getAdOriginalCh6Value:	
  5676  0718                     __ptext1019:	
  5677 ;; =============== function _setPB4 ends ============
  5678                           
  5679                           
  5680 ;; *************** function _setPB6 *****************
  5681 ;; Defined at:
  5682 ;;		line 284 in file "C:\temp\dev\AK7030-OTP\main.c"
  5683 ;; Parameters:    Size  Location     Type
  5684 ;;  bValue          1    wreg     unsigned char 
  5685 ;; Auto vars:     Size  Location     Type
  5686 ;;  bValue          1    0[BANK0 ] unsigned char 
  5687 ;; Return value:  Size  Location     Type
  5688 ;;		None               void
  5689 ;; Registers used:
  5690 ;;		wreg
  5691 ;; Tracked objects:
  5692 ;;		On entry : 60/0
  5693 ;;		On exit  : 60/0
  5694 ;;		Unchanged: FFF9F/0
  5695 ;; Data sizes:     COMMON   BANK0   BANK1   BANK3   BANK2
  5696 ;;      Params:         0       0       0       0       0
  5697 ;;      Locals:         0       1       0       0       0
  5698 ;;      Temps:          0       0       0       0       0
  5699 ;;      Totals:         0       1       0       0       0
  5700 ;;Total ram usage:        1 bytes
  5701 ;; Hardware stack levels used:    1
  5702 ;; Hardware stack levels required when called:    2
  5703 ;; This function calls:
  5704 ;;		Nothing
  5705 ;; This function is called by:
  5706 ;;		_main
  5707 ;;		_call_ADC4_STEP_FOURTH_PREFIX2
  5708 ;;		_call_ADC4_STEP_FOURTH_PREFIX3
  5709 ;; This function uses a non-reentrant model
  5710 ;;
  5711  0718                     _setPB6:	
  5712                           
  5713                           ; Regs used in _setPB6: [wreg]
  5714                           ;setPB6@bValue stored from wreg
  5715  0718  00A0               	movwf	setPB6@bValue
  5716                           
  5717                           ;main.c: 285: if( bValue )
  5718  0719  0820               	movf	setPB6@bValue,w
  5719  071A  1903               	btfsc	3,2
  5720  071B  2F21               	goto	l735
  5721                           
  5722                           ;main.c: 287: {
  5723                           ;main.c: 288: TRISB6 = 0;
  5724  071C  1683               	bsf	3,5	;RP0=1, select bank1
  5725  071D  1306               	bcf	6,6
  5726                           
  5727                           ;main.c: 289: PB6 = 1;
  5728  071E  1283               	bcf	3,5	;RP0=0, select bank0
  5729  071F  1706               	bsf	6,6
  5730                           
  5731                           ;main.c: 290: }
  5732  0720  0008               	return
  5733  0721                     l735:	
  5734                           
  5735                           ;main.c: 294: else
  5736                           ;main.c: 296: {
  5737                           ;main.c: 297: TRISB6 = 0;
  5738  0721  1683               	bsf	3,5	;RP0=1, select bank1
  5739  0722  1306               	bcf	6,6
  5740                           
  5741                           ;main.c: 298: PB6 = 0;
  5742  0723  1283               	bcf	3,5	;RP0=0, select bank0
  5743  0724  1306               	bcf	6,6
  5744  0725  0008               	return
  5745  0726                     __end_of_setPB6:	
  5746  0726                     __ptext1016:	
  5747 ;; =============== function _clock_config ends ============
  5748                           
  5749                           
  5750 ;; *************** function _setPB6AsInput *****************
  5751 ;; Defined at:
  5752 ;;		line 370 in file "C:\temp\dev\AK7030-OTP\main.c"
  5753 ;; Parameters:    Size  Location     Type
  5754 ;;		None
  5755 ;; Auto vars:     Size  Location     Type
  5756 ;;		None
  5757 ;; Return value:  Size  Location     Type
  5758 ;;		None               void
  5759 ;; Registers used:
  5760 ;;		None
  5761 ;; Tracked objects:
  5762 ;;		On entry : 60/0
  5763 ;;		On exit  : 60/20
  5764 ;;		Unchanged: FFF9F/0
  5765 ;; Data sizes:     COMMON   BANK0   BANK1   BANK3   BANK2
  5766 ;;      Params:         0       0       0       0       0
  5767 ;;      Locals:         0       0       0       0       0
  5768 ;;      Temps:          0       0       0       0       0
  5769 ;;      Totals:         0       0       0       0       0
  5770 ;;Total ram usage:        0 bytes
  5771 ;; Hardware stack levels used:    1
  5772 ;; Hardware stack levels required when called:    2
  5773 ;; This function calls:
  5774 ;;		Nothing
  5775 ;; This function is called by:
  5776 ;;		_main
  5777 ;;		_call_ADC4_STEP_FOURTH_PREFIX2
  5778 ;;		_call_ADC4_STEP_FOURTH_PREFIX3
  5779 ;; This function uses a non-reentrant model
  5780 ;;
  5781  0726                     _setPB6AsInput:	
  5782                           
  5783                           ;main.c: 372: TRISB6 = 1;
  5784                           
  5785                           ; Regs used in _setPB6AsInput: []
  5786  0726  1683               	bsf	3,5	;RP0=1, select bank1
  5787  0727  1706               	bsf	6,6
  5788  0728  0008               	return
  5789  0729                     __end_of_setPB6AsInput:	
  5790  0729                     __ptext1000:	
  5791 ;; =============== function _getAD_ConvertFlag ends ============
  5792                           
  5793                           
  5794 ;; *************** function _Filter *****************
  5795 ;; Defined at:
  5796 ;;		line 63 in file "C:\temp\dev\AK7030-OTP\common.c"
  5797 ;; Parameters:    Size  Location     Type
  5798 ;;  tmpValue        2    0[BANK0 ] PTR int 
  5799 ;;		 -> uiSampleChannelSixth(24), uiSampleChannelFifth(24), uiSampleChannelSecond(24), uiSampleChannelZero(24), 
  5800 ;; Auto vars:     Size  Location     Type
  5801 ;;  cir             2   34[BANK0 ] int 
  5802 ;;  filter_buf     24    6[BANK0 ] unsigned int [12]
  5803 ;;  filter_sum      2   32[BANK0 ] unsigned int 
  5804 ;;  filter_temp     2   30[BANK0 ] unsigned int 
  5805 ;;  i               1   37[BANK0 ] unsigned char 
  5806 ;;  j               1   36[BANK0 ] unsigned char 
  5807 ;; Return value:  Size  Location     Type
  5808 ;;                  2    0[BANK0 ] unsigned int 
  5809 ;; Registers used:
  5810 ;;		wreg, fsr0l, fsr0h, status,2, status,0, btemp+1
  5811 ;; Tracked objects:
  5812 ;;		On entry : 60/0
  5813 ;;		On exit  : 160/0
  5814 ;;		Unchanged: FFE00/0
  5815 ;; Data sizes:     COMMON   BANK0   BANK1   BANK3   BANK2
  5816 ;;      Params:         0       2       0       0       0
  5817 ;;      Locals:         0      32       0       0       0
  5818 ;;      Temps:          0       4       0       0       0
  5819 ;;      Totals:         0      38       0       0       0
  5820 ;;Total ram usage:       38 bytes
  5821 ;; Hardware stack levels used:    1
  5822 ;; Hardware stack levels required when called:    2
  5823 ;; This function calls:
  5824 ;;		Nothing
  5825 ;; This function is called by:
  5826 ;;		_getAdOriginalCh0Value
  5827 ;;		_getAdOriginalCh5Value
  5828 ;;		_getAdOriginalCh6Value
  5829 ;;		_getAdOriginalCh2Value
  5830 ;; This function uses a non-reentrant model
  5831 ;;
  5832  0729                     _Filter:	
  5833                           
  5834                           ; Regs used in _Filter: [wreg-fsr0h+status,2+status,0+btemp+1]
  5835  0729  01C4               	clrf	Filter@j
  5836                           
  5837                           ;common.c: 67: unsigned int filter_temp = 0, filter_sum = 0;
  5838  072A  01BE               	clrf	Filter@filter_temp
  5839  072B  01BF               	clrf	Filter@filter_temp+1
  5840  072C  01C0               	clrf	Filter@filter_sum
  5841  072D  01C1               	clrf	Filter@filter_sum+1
  5842                           
  5843                           ;common.c: 69: unsigned int filter_buf[12];
  5844                           ;common.c: 71: for(int cir = 0;cir < 12; cir++)
  5845  072E  01C2               	clrf	Filter@cir
  5846  072F  01C3               	clrf	Filter@cir+1
  5847  0730                     l4857:	
  5848                           
  5849                           ;common.c: 72: filter_buf[cir] = *tmpValue++;
  5850  0730  1283               	bcf	3,5	;RP0=0, select bank0
  5851  0731  1303               	bcf	3,6	;RP1=0, select bank0
  5852  0732  0820               	movf	Filter@tmpValue,w
  5853  0733  0084               	movwf	4
  5854  0734  1783               	bsf	3,7
  5855  0735  1C21               	btfss	Filter@tmpValue+1,0
  5856  0736  1383               	bcf	3,7
  5857  0737  0800               	movf	0,w
  5858  0738  27D6  118A         	fcall	PL6	;call to abstracted procedure
  5859  073A  0D42               	rlf	Filter@cir,w
  5860  073B  3E26               	addlw	Filter@filter_buf& (0+255)
  5861  073C  0084               	movwf	4
  5862  073D  0822               	movf	??_Filter,w
  5863  073E  1383               	bcf	3,7	;select IRP bank0
  5864  073F  0080               	movwf	0
  5865  0740  0A84               	incf	4,f
  5866  0741  0823               	movf	??_Filter+1,w
  5867  0742  0080               	movwf	0
  5868  0743  3002               	movlw	2
  5869  0744  07A0               	addwf	Filter@tmpValue,f
  5870  0745  1803               	skipnc
  5871  0746  0AA1               	incf	Filter@tmpValue+1,f
  5872  0747  0AC2               	incf	Filter@cir,f
  5873  0748  1903               	skipnz
  5874  0749  0AC3               	incf	Filter@cir+1,f
  5875  074A  0843               	movf	Filter@cir+1,w
  5876  074B  3A80               	xorlw	128
  5877  074C  00FF               	movwf	127
  5878  074D  3080               	movlw	128
  5879  074E  027F               	subwf	127,w
  5880  074F  1D03               	skipz
  5881  0750  2F53               	goto	u1905
  5882  0751  300C               	movlw	12
  5883  0752  0242               	subwf	Filter@cir,w
  5884  0753                     u1905:	
  5885  0753  1C03               	skipc
  5886  0754  2F30               	goto	l4857
  5887                           
  5888                           ;common.c: 75: for(j = 0; j < 12 - 1; j++)
  5889  0755  1283               	bcf	3,5	;RP0=0, select bank0
  5890  0756  1303               	bcf	3,6	;RP1=0, select bank0
  5891  0757  01C4               	clrf	Filter@j
  5892  0758                     l4871:	
  5893                           
  5894                           ;common.c: 76: {
  5895                           ;common.c: 77: for(i = 0; i < 12 - 1 - j; i++)
  5896  0758  01C5               	clrf	Filter@i
  5897  0759                     l4879:	
  5898  0759  01A3               	clrf	??_Filter+1
  5899  075A  0844               	movf	Filter@j,w
  5900  075B  3C0B               	sublw	11
  5901  075C  00A2               	movwf	??_Filter
  5902  075D  1C03               	skipc
  5903  075E  03A3               	decf	??_Filter+1,f
  5904  075F  0823               	movf	??_Filter+1,w
  5905  0760  3A80               	xorlw	128
  5906  0761  3C80               	sublw	128
  5907  0762  1D03               	skipz
  5908  0763  2F66               	goto	u1925
  5909  0764  0822               	movf	??_Filter,w
  5910  0765  0245               	subwf	Filter@i,w
  5911  0766                     u1925:	
  5912  0766  1803               	btfsc	3,0
  5913  0767  2F9B               	goto	l4881
  5914                           
  5915                           ;common.c: 78: {
  5916                           ;common.c: 79: if(filter_buf[i] > filter_buf[i + 1])
  5917  0768  1283               	bcf	3,5	;RP0=0, select bank0
  5918  0769  1303               	bcf	3,6	;RP1=0, select bank0
  5919  076A  1003               	clrc
  5920  076B  27CC  118A         	fcall	PL4	;call to abstracted procedure
  5921  076D  27DC  118A         	fcall	PL7	;call to abstracted procedure
  5922  076F  0800               	movf	0,w
  5923  0770  00A4               	movwf	??_Filter+2
  5924  0771  0A84               	incf	4,f
  5925  0772  0800               	movf	0,w
  5926  0773  00A5               	movwf	??_Filter+3
  5927  0774  0823               	movf	??_Filter+1,w
  5928  0775  0225               	subwf	??_Filter+3,w
  5929  0776  1D03               	skipz
  5930  0777  2F7A               	goto	u1915
  5931  0778  0822               	movf	??_Filter,w
  5932  0779  0224               	subwf	??_Filter+2,w
  5933  077A                     u1915:	
  5934  077A  1803               	skipnc
  5935  077B  2F99               	goto	l4877
  5936                           
  5937                           ;common.c: 80: {
  5938                           ;common.c: 82: filter_temp = filter_buf[i];
  5939  077C  1003               	clrc
  5940  077D  0D45               	rlf	Filter@i,w
  5941  077E  3E26               	addlw	Filter@filter_buf& (0+255)
  5942  077F  0084               	movwf	4
  5943  0780  0800               	movf	0,w
  5944  0781  00BE               	movwf	Filter@filter_temp
  5945  0782  0A84               	incf	4,f
  5946  0783  0800               	movf	0,w
  5947  0784  00BF               	movwf	Filter@filter_temp+1
  5948                           
  5949                           ;common.c: 84: filter_buf[i] = filter_buf[i + 1];
  5950  0785  27DC  118A         	fcall	PL7	;call to abstracted procedure
  5951  0787  0800               	movf	0,w
  5952  0788  27D6  118A         	fcall	PL6	;call to abstracted procedure
  5953  078A  0D45               	rlf	Filter@i,w
  5954  078B  3E26               	addlw	Filter@filter_buf& (0+255)
  5955  078C  0084               	movwf	4
  5956  078D  0822               	movf	??_Filter,w
  5957  078E  0080               	movwf	0
  5958  078F  0A84               	incf	4,f
  5959  0790  0823               	movf	??_Filter+1,w
  5960  0791  0080               	movwf	0
  5961                           
  5962                           ;common.c: 86: filter_buf[i + 1] = filter_temp;
  5963  0792  27DC  118A         	fcall	PL7	;call to abstracted procedure
  5964  0794  083E               	movf	Filter@filter_temp,w
  5965  0795  0080               	movwf	0
  5966  0796  0A84               	incf	4,f
  5967  0797  083F               	movf	Filter@filter_temp+1,w
  5968  0798  0080               	movwf	0
  5969  0799                     l4877:	
  5970  0799  0AC5               	incf	Filter@i,f
  5971  079A  2F59               	goto	l4879
  5972  079B                     l4881:	
  5973  079B  1283               	bcf	3,5	;RP0=0, select bank0
  5974  079C  300B               	movlw	11
  5975  079D  1303               	bcf	3,6	;RP1=0, select bank0
  5976  079E  0AC4               	incf	Filter@j,f
  5977  079F  0244               	subwf	Filter@j,w
  5978  07A0  1C03               	skipc
  5979  07A1  2F58               	goto	l4871
  5980                           
  5981                           ;common.c: 87: }
  5982                           ;common.c: 88: }
  5983                           ;common.c: 89: }
  5984                           ;common.c: 91: for(i = 2; i < 12 - 2; i++)
  5985  07A2  3002               	movlw	2
  5986  07A3  00C5               	movwf	Filter@i
  5987                           
  5988                           ;common.c: 92: {
  5989                           ;common.c: 93: filter_sum += filter_buf[i];
  5990  07A4  1003               	clrc
  5991  07A5                     L24:	
  5992  07A5  27CC  118A         	fcall	PL4	;call to abstracted procedure
  5993  07A7  0822               	movf	??_Filter,w
  5994  07A8  07C0               	addwf	Filter@filter_sum,f
  5995  07A9  1803               	skipnc
  5996  07AA  0AC1               	incf	Filter@filter_sum+1,f
  5997  07AB  0823               	movf	??_Filter+1,w
  5998  07AC  07C1               	addwf	Filter@filter_sum+1,f
  5999  07AD  300A               	movlw	10
  6000  07AE  0AC5               	incf	Filter@i,f
  6001  07AF  0245               	subwf	Filter@i,w
  6002  07B0  1C03               	skipc
  6003  07B1  2FA5               	goto	L24
  6004                           
  6005                           ;common.c: 94: }
  6006                           ;common.c: 96: return (filter_sum >> 3);
  6007  07B2  0841               	movf	Filter@filter_sum+1,w
  6008  07B3  00A1               	movwf	?_Filter+1
  6009  07B4  0840               	movf	Filter@filter_sum,w
  6010  07B5  00A0               	movwf	?_Filter
  6011  07B6  1003               	clrc
  6012  07B7  0CA1               	rrf	?_Filter+1,f
  6013  07B8  0CA0               	rrf	?_Filter,f
  6014  07B9  1003               	clrc
  6015  07BA  0CA1               	rrf	?_Filter+1,f
  6016  07BB  0CA0               	rrf	?_Filter,f
  6017  07BC  1003               	clrc
  6018  07BD  0CA1               	rrf	?_Filter+1,f
  6019  07BE  0CA0               	rrf	?_Filter,f
  6020  07BF  0008               	return
  6021  07C0                     __end_of_Filter:	
  6022  07C0                     __ptext1029:	
  6023 ;; =============== function _clearTwentyMinuteTimer ends ============
  6024                           
  6025                           
  6026 ;; *************** function _clearTwentySecondsTimer *****************
  6027 ;; Defined at:
  6028 ;;		line 415 in file "C:\temp\dev\AK7030-OTP\common.c"
  6029 ;; Parameters:    Size  Location     Type
  6030 ;;		None
  6031 ;; Auto vars:     Size  Location     Type
  6032 ;;		None
  6033 ;; Return value:  Size  Location     Type
  6034 ;;		None               void
  6035 ;; Registers used:
  6036 ;;		status,2
  6037 ;; Tracked objects:
  6038 ;;		On entry : 40/0
  6039 ;;		On exit  : 60/0
  6040 ;;		Unchanged: FFF9F/0
  6041 ;; Data sizes:     COMMON   BANK0   BANK1   BANK3   BANK2
  6042 ;;      Params:         0       0       0       0       0
  6043 ;;      Locals:         0       0       0       0       0
  6044 ;;      Temps:          0       0       0       0       0
  6045 ;;      Totals:         0       0       0       0       0
  6046 ;;Total ram usage:        0 bytes
  6047 ;; Hardware stack levels used:    1
  6048 ;; Hardware stack levels required when called:    2
  6049 ;; This function calls:
  6050 ;;		Nothing
  6051 ;; This function is called by:
  6052 ;;		_clearAllTimer
  6053 ;;		_main
  6054 ;;		_call_ADC4_STEP_FOURTH_PREFIX3
  6055 ;; This function uses a non-reentrant model
  6056 ;;
  6057  07C0                     _clearTwentySecondsTimer:	
  6058                           
  6059                           ;common.c: 416: uiTwentySecondsTimer = 0;
  6060                           
  6061                           ; Regs used in _clearTwentySecondsTimer: [status,2]
  6062  07C0  1683               	bsf	3,5	;RP0=1, select bank1
  6063  07C1  01A6               	clrf	_uiTwentySecondsTimer^(0+128)
  6064  07C2  01A7               	clrf	(_uiTwentySecondsTimer+1)^(0+128)
  6065                           
  6066                           ;common.c: 417: bTwentySecStartFlag = 0;
  6067  07C3  1283               	bcf	3,5	;RP0=0, select bank0
  6068  07C4  01CF               	clrf	_bTwentySecStartFlag
  6069  07C5  0008               	return
  6070  07C6                     __end_of_clearTwentySecondsTimer:	
  6071  07C6                     __ptext1028:	
  6072 ;; =============== function _initPin ends ============
  6073                           
  6074                           
  6075 ;; *************** function _clearTwentyMinuteTimer *****************
  6076 ;; Defined at:
  6077 ;;		line 422 in file "C:\temp\dev\AK7030-OTP\common.c"
  6078 ;; Parameters:    Size  Location     Type
  6079 ;;		None
  6080 ;; Auto vars:     Size  Location     Type
  6081 ;;		None
  6082 ;; Return value:  Size  Location     Type
  6083 ;;		None               void
  6084 ;; Registers used:
  6085 ;;		status,2
  6086 ;; Tracked objects:
  6087 ;;		On entry : 60/0
  6088 ;;		On exit  : 60/0
  6089 ;;		Unchanged: FFF9F/0
  6090 ;; Data sizes:     COMMON   BANK0   BANK1   BANK3   BANK2
  6091 ;;      Params:         0       0       0       0       0
  6092 ;;      Locals:         0       0       0       0       0
  6093 ;;      Temps:          0       0       0       0       0
  6094 ;;      Totals:         0       0       0       0       0
  6095 ;;Total ram usage:        0 bytes
  6096 ;; Hardware stack levels used:    1
  6097 ;; Hardware stack levels required when called:    2
  6098 ;; This function calls:
  6099 ;;		Nothing
  6100 ;; This function is called by:
  6101 ;;		_clearAllTimer
  6102 ;; This function uses a non-reentrant model
  6103 ;;
  6104  07C6                     _clearTwentyMinuteTimer:	
  6105  07C6                     l4673:	
  6106                           ; Regs used in _clearTwentyMinuteTimer: [status,2]
  6107                           
  6108                           
  6109                           ;common.c: 423: uiTwentyMinuteTimer = 0;
  6110  07C6  1683               	bsf	3,5	;RP0=1, select bank1
  6111  07C7  01A4               	clrf	_uiTwentyMinuteTimer^(0+128)
  6112  07C8  01A5               	clrf	(_uiTwentyMinuteTimer+1)^(0+128)
  6113                           
  6114                           ;common.c: 424: bTwentyMinStartFlag = 0;
  6115  07C9  1283               	bcf	3,5	;RP0=0, select bank0
  6116  07CA  01CE               	clrf	_bTwentyMinStartFlag
  6117  07CB  0008               	return
  6118  07CC                     __end_of_clearTwentyMinuteTimer:	
  6119  07CC                     PL4:	
  6120  07CC  0D45               	rlf	Filter@i,w
  6121  07CD  3E26               	addlw	Filter@filter_buf& (0+255)
  6122  07CE  0084               	movwf	4
  6123  07CF  1383               	bcf	3,7	;select IRP bank0
  6124  07D0  0800               	movf	0,w
  6125  07D1  00A2               	movwf	??_Filter
  6126  07D2  0A84               	incf	4,f
  6127  07D3  0800               	movf	0,w
  6128  07D4  00A3               	movwf	??_Filter+1
  6129  07D5  0008               	return
  6130  07D6                     PL6:	
  6131  07D6  00A2               	movwf	??_Filter
  6132  07D7  0A84               	incf	4,f
  6133  07D8  0800               	movf	0,w
  6134  07D9  00A3               	movwf	??_Filter+1
  6135  07DA  1003               	clrc
  6136  07DB  0008               	return
  6137  07DC                     PL7:	
  6138  07DC  1003               	clrc
  6139  07DD  0D45               	rlf	Filter@i,w
  6140  07DE  3E02               	addlw	2
  6141  07DF  3E26               	addlw	Filter@filter_buf& (0+255)
  6142  07E0  0084               	movwf	4
  6143  07E1  0008               	return
  6144  07E2                     PL8:	
  6145  07E2  1283               	bcf	3,5	;RP0=0, select bank0
  6146  07E3  00A0               	movwf	?_Filter
  6147  07E4  3001               	movlw	1
  6148  07E5  00A1               	movwf	?_Filter+1
  6149  07E6  0008               	return
  6150                           
  6151                           	psect	text1001
  6152  0E4B                     __ptext1001:	
  6153 ;; =============== function _Filter ends ============
  6154                           
  6155                           
  6156 ;; *************** function _isFinishedThreeHoursTimer *****************
  6157 ;; Defined at:
  6158 ;;		line 498 in file "C:\temp\dev\AK7030-OTP\common.c"
  6159 ;; Parameters:    Size  Location     Type
  6160 ;;		None
  6161 ;; Auto vars:     Size  Location     Type
  6162 ;;		None
  6163 ;; Return value:  Size  Location     Type
  6164 ;;                  1    wreg      unsigned char 
  6165 ;; Registers used:
  6166 ;;		wreg, status,2, status,0
  6167 ;; Tracked objects:
  6168 ;;		On entry : 40/20
  6169 ;;		On exit  : 40/0
  6170 ;;		Unchanged: FFF9F/0
  6171 ;; Data sizes:     COMMON   BANK0   BANK1   BANK3   BANK2
  6172 ;;      Params:         0       0       0       0       0
  6173 ;;      Locals:         0       0       0       0       0
  6174 ;;      Temps:          0       0       0       0       0
  6175 ;;      Totals:         0       0       0       0       0
  6176 ;;Total ram usage:        0 bytes
  6177 ;; Hardware stack levels used:    1
  6178 ;; Hardware stack levels required when called:    2
  6179 ;; This function calls:
  6180 ;;		Nothing
  6181 ;; This function is called by:
  6182 ;;		_main
  6183 ;; This function uses a non-reentrant model
  6184 ;;
  6185  0E4B                     _isFinishedThreeHoursTimer:	
  6186                           
  6187                           ;common.c: 499: if((uiSmallTimer == 0) && bSmallTimerStartFlag)
  6188                           
  6189                           ; Regs used in _isFinishedThreeHoursTimer: [wreg+status,2+status,0]
  6190  0E4B  1683               	bsf	3,5	;RP0=1, select bank1
  6191  0E4C  0823               	movf	(_uiSmallTimer+1)^(0+128),w
  6192  0E4D  0422               	iorwf	_uiSmallTimer^(0+128),w
  6193  0E4E  1D03               	skipz
  6194  0E4F  3400               	retlw	0
  6195  0E50  1283               	bcf	3,5	;RP0=0, select bank0
  6196  0E51  084D               	movf	_bSmallTimerStartFlag,w
  6197  0E52  1903               	btfsc	3,2
  6198  0E53  3400               	retlw	0
  6199  0E54  3001               	movlw	1
  6200                           
  6201                           ;common.c: 500: {
  6202                           ;common.c: 501: bSmallTimerStartFlag = 0;
  6203  0E55  01CD               	clrf	_bSmallTimerStartFlag
  6204                           
  6205                           ;common.c: 502: return 1;
  6206  0E56  0008               	return
  6207  0E57                     __end_of_isFinishedThreeHoursTimer:	
  6208                           ;common.c: 504: else
  6209                           ;common.c: 505: return 0;
  6210                           
  6211                           
  6212                           	psect	text1002
  6213  0E8E                     __ptext1002:	
  6214 ;; =============== function _isFinishedThreeHoursTimer ends ============
  6215                           
  6216                           
  6217 ;; *************** function _startThreeHoursTimer *****************
  6218 ;; Defined at:
  6219 ;;		line 429 in file "C:\temp\dev\AK7030-OTP\common.c"
  6220 ;; Parameters:    Size  Location     Type
  6221 ;;  uiSetTime       2    0[BANK0 ] unsigned int 
  6222 ;; Auto vars:     Size  Location     Type
  6223 ;;		None
  6224 ;; Return value:  Size  Location     Type
  6225 ;;		None               void
  6226 ;; Registers used:
  6227 ;;		wreg, status,2, status,0
  6228 ;; Tracked objects:
  6229 ;;		On entry : 60/0
  6230 ;;		On exit  : 40/0
  6231 ;;		Unchanged: FFF9F/0
  6232 ;; Data sizes:     COMMON   BANK0   BANK1   BANK3   BANK2
  6233 ;;      Params:         0       2       0       0       0
  6234 ;;      Locals:         0       0       0       0       0
  6235 ;;      Temps:          0       0       0       0       0
  6236 ;;      Totals:         0       2       0       0       0
  6237 ;;Total ram usage:        2 bytes
  6238 ;; Hardware stack levels used:    1
  6239 ;; Hardware stack levels required when called:    2
  6240 ;; This function calls:
  6241 ;;		Nothing
  6242 ;; This function is called by:
  6243 ;;		_main
  6244 ;; This function uses a non-reentrant model
  6245 ;;
  6246  0E8E                     _startThreeHoursTimer:	
  6247                           
  6248                           ;common.c: 430: if(( 0 == uiSmallTimer ) && ( 0 == bSmallTimerStartFlag ))
  6249                           
  6250                           ; Regs used in _startThreeHoursTimer: [wreg+status,2+status,0]
  6251  0E8E  1683               	bsf	3,5	;RP0=1, select bank1
  6252  0E8F  0823               	movf	(_uiSmallTimer+1)^(0+128),w
  6253  0E90  0422               	iorwf	_uiSmallTimer^(0+128),w
  6254  0E91  1D03               	skipz
  6255  0E92  0008               	return
  6256  0E93  1283               	bcf	3,5	;RP0=0, select bank0
  6257  0E94  08CD               	movf	_bSmallTimerStartFlag,f
  6258  0E95  1D03               	skipz
  6259  0E96  0008               	return
  6260                           
  6261                           ;common.c: 431: {
  6262                           ;common.c: 432: uiSmallTimer = uiSetTime;
  6263  0E97  0821               	movf	startThreeHoursTimer@uiSetTime+1,w
  6264  0E98  1683               	bsf	3,5	;RP0=1, select bank1
  6265  0E99  00A3               	movwf	(_uiSmallTimer+1)^(0+128)
  6266  0E9A  1283               	bcf	3,5	;RP0=0, select bank0
  6267  0E9B  0820               	movf	startThreeHoursTimer@uiSetTime,w
  6268  0E9C  1683               	bsf	3,5	;RP0=1, select bank1
  6269  0E9D  00A2               	movwf	_uiSmallTimer^(0+128)
  6270                           
  6271                           ;common.c: 433: bSmallTimerStartFlag = 1;
  6272  0E9E  1283               	bcf	3,5	;RP0=0, select bank0
  6273  0E9F  01CD               	clrf	_bSmallTimerStartFlag
  6274  0EA0  0ACD               	incf	_bSmallTimerStartFlag,f
  6275  0EA1  0008               	return
  6276  0EA2                     __end_of_startThreeHoursTimer:	
  6277                           
  6278                           	psect	text1003
  6279  0E3F                     __ptext1003:	
  6280 ;; =============== function _startThreeHoursTimer ends ============
  6281                           
  6282                           
  6283 ;; *************** function _isFinishedTwentySecondsTimer *****************
  6284 ;; Defined at:
  6285 ;;		line 463 in file "C:\temp\dev\AK7030-OTP\common.c"
  6286 ;; Parameters:    Size  Location     Type
  6287 ;;		None
  6288 ;; Auto vars:     Size  Location     Type
  6289 ;;		None
  6290 ;; Return value:  Size  Location     Type
  6291 ;;                  1    wreg      unsigned char 
  6292 ;; Registers used:
  6293 ;;		wreg, status,2, status,0
  6294 ;; Tracked objects:
  6295 ;;		On entry : 40/0
  6296 ;;		On exit  : 40/0
  6297 ;;		Unchanged: FFF9F/0
  6298 ;; Data sizes:     COMMON   BANK0   BANK1   BANK3   BANK2
  6299 ;;      Params:         0       0       0       0       0
  6300 ;;      Locals:         0       0       0       0       0
  6301 ;;      Temps:          0       0       0       0       0
  6302 ;;      Totals:         0       0       0       0       0
  6303 ;;Total ram usage:        0 bytes
  6304 ;; Hardware stack levels used:    1
  6305 ;; Hardware stack levels required when called:    2
  6306 ;; This function calls:
  6307 ;;		Nothing
  6308 ;; This function is called by:
  6309 ;;		_main
  6310 ;; This function uses a non-reentrant model
  6311 ;;
  6312  0E3F                     _isFinishedTwentySecondsTimer:	
  6313                           
  6314                           ;common.c: 464: if(( 0 == uiTwentySecondsTimer ) && bTwentySecStartFlag )
  6315                           
  6316                           ; Regs used in _isFinishedTwentySecondsTimer: [wreg+status,2+status,0]
  6317  0E3F  1683               	bsf	3,5	;RP0=1, select bank1
  6318  0E40  0827               	movf	(_uiTwentySecondsTimer+1)^(0+128),w
  6319  0E41  0426               	iorwf	_uiTwentySecondsTimer^(0+128),w
  6320  0E42  1D03               	skipz
  6321  0E43  3400               	retlw	0
  6322  0E44  1283               	bcf	3,5	;RP0=0, select bank0
  6323  0E45  084F               	movf	_bTwentySecStartFlag,w
  6324  0E46  1903               	btfsc	3,2
  6325  0E47  3400               	retlw	0
  6326  0E48  3001               	movlw	1
  6327                           
  6328                           ;common.c: 465: {
  6329                           ;common.c: 466: bTwentySecStartFlag = 0;
  6330  0E49  01CF               	clrf	_bTwentySecStartFlag
  6331                           
  6332                           ;common.c: 467: return 1;
  6333  0E4A  0008               	return
  6334  0E4B                     __end_of_isFinishedTwentySecondsTimer:	
  6335                           ;common.c: 469: else
  6336                           ;common.c: 470: return 0;
  6337                           
  6338                           
  6339                           	psect	text1004
  6340  0E57                     __ptext1004:	
  6341 ;; =============== function _isFinishedTwentySecondsTimer ends ============
  6342                           
  6343                           
  6344 ;; *************** function _startTwentySecondsTimer *****************
  6345 ;; Defined at:
  6346 ;;		line 443 in file "C:\temp\dev\AK7030-OTP\common.c"
  6347 ;; Parameters:    Size  Location     Type
  6348 ;;		None
  6349 ;; Auto vars:     Size  Location     Type
  6350 ;;		None
  6351 ;; Return value:  Size  Location     Type
  6352 ;;		None               void
  6353 ;; Registers used:
  6354 ;;		wreg, status,2, status,0
  6355 ;; Tracked objects:
  6356 ;;		On entry : 160/0
  6357 ;;		On exit  : 140/0
  6358 ;;		Unchanged: FFE9F/0
  6359 ;; Data sizes:     COMMON   BANK0   BANK1   BANK3   BANK2
  6360 ;;      Params:         0       0       0       0       0
  6361 ;;      Locals:         0       0       0       0       0
  6362 ;;      Temps:          0       0       0       0       0
  6363 ;;      Totals:         0       0       0       0       0
  6364 ;;Total ram usage:        0 bytes
  6365 ;; Hardware stack levels used:    1
  6366 ;; Hardware stack levels required when called:    2
  6367 ;; This function calls:
  6368 ;;		Nothing
  6369 ;; This function is called by:
  6370 ;;		_main
  6371 ;; This function uses a non-reentrant model
  6372 ;;
  6373  0E57                     _startTwentySecondsTimer:	
  6374                           
  6375                           ;common.c: 444: if(( 0 == uiTwentySecondsTimer) && ( 0 == bTwentySecStartFlag))
  6376                           
  6377                           ; Regs used in _startTwentySecondsTimer: [wreg+status,2+status,0]
  6378  0E57  1683               	bsf	3,5	;RP0=1, select bank1
  6379  0E58  0827               	movf	(_uiTwentySecondsTimer+1)^(0+128),w
  6380  0E59  0426               	iorwf	_uiTwentySecondsTimer^(0+128),w
  6381  0E5A  1D03               	skipz
  6382  0E5B  0008               	return
  6383  0E5C  1283               	bcf	3,5	;RP0=0, select bank0
  6384  0E5D  08CF               	movf	_bTwentySecStartFlag,f
  6385  0E5E  1D03               	skipz
  6386  0E5F  0008               	return
  6387                           
  6388                           ;common.c: 445: {
  6389                           ;common.c: 446: uiTwentySecondsTimer = 20;
  6390  0E60  3014               	movlw	20
  6391  0E61  1683               	bsf	3,5	;RP0=1, select bank1
  6392  0E62  00A6               	movwf	_uiTwentySecondsTimer^(0+128)
  6393  0E63  01A7               	clrf	(_uiTwentySecondsTimer+1)^(0+128)
  6394                           
  6395                           ;common.c: 447: bTwentySecStartFlag = 1;
  6396  0E64  1283               	bcf	3,5	;RP0=0, select bank0
  6397  0E65  01CF               	clrf	_bTwentySecStartFlag
  6398  0E66  0ACF               	incf	_bTwentySecStartFlag,f
  6399  0E67  0008               	return
  6400  0E68                     __end_of_startTwentySecondsTimer:	
  6401                           
  6402                           	psect	text1005
  6403  0E33                     __ptext1005:	
  6404 ;; =============== function _startTwentySecondsTimer ends ============
  6405                           
  6406                           
  6407 ;; *************** function _isFinishedTwelveHoursTimer *****************
  6408 ;; Defined at:
  6409 ;;		line 487 in file "C:\temp\dev\AK7030-OTP\common.c"
  6410 ;; Parameters:    Size  Location     Type
  6411 ;;		None
  6412 ;; Auto vars:     Size  Location     Type
  6413 ;;		None
  6414 ;; Return value:  Size  Location     Type
  6415 ;;                  1    wreg      unsigned char 
  6416 ;; Registers used:
  6417 ;;		wreg, status,2, status,0
  6418 ;; Tracked objects:
  6419 ;;		On entry : 40/0
  6420 ;;		On exit  : 40/0
  6421 ;;		Unchanged: FFF9F/0
  6422 ;; Data sizes:     COMMON   BANK0   BANK1   BANK3   BANK2
  6423 ;;      Params:         0       0       0       0       0
  6424 ;;      Locals:         0       0       0       0       0
  6425 ;;      Temps:          0       0       0       0       0
  6426 ;;      Totals:         0       0       0       0       0
  6427 ;;Total ram usage:        0 bytes
  6428 ;; Hardware stack levels used:    1
  6429 ;; Hardware stack levels required when called:    2
  6430 ;; This function calls:
  6431 ;;		Nothing
  6432 ;; This function is called by:
  6433 ;;		_main
  6434 ;; This function uses a non-reentrant model
  6435 ;;
  6436  0E33                     _isFinishedTwelveHoursTimer:	
  6437                           
  6438                           ;common.c: 488: if(( uiBigTimer == 0 ) && bBigTimerStartFlag )
  6439                           
  6440                           ; Regs used in _isFinishedTwelveHoursTimer: [wreg+status,2+status,0]
  6441  0E33  1683               	bsf	3,5	;RP0=1, select bank1
  6442  0E34  0821               	movf	(_uiBigTimer+1)^(0+128),w
  6443  0E35  0420               	iorwf	_uiBigTimer^(0+128),w
  6444  0E36  1D03               	skipz
  6445  0E37  3400               	retlw	0
  6446  0E38  1283               	bcf	3,5	;RP0=0, select bank0
  6447  0E39  084C               	movf	_bBigTimerStartFlag,w
  6448  0E3A  1903               	btfsc	3,2
  6449  0E3B  3400               	retlw	0
  6450  0E3C  3001               	movlw	1
  6451                           
  6452                           ;common.c: 489: {
  6453                           ;common.c: 490: bBigTimerStartFlag = 0;
  6454  0E3D  01CC               	clrf	_bBigTimerStartFlag
  6455                           
  6456                           ;common.c: 491: return 1;
  6457  0E3E  0008               	return
  6458  0E3F                     __end_of_isFinishedTwelveHoursTimer:	
  6459                           ;common.c: 493: else
  6460                           ;common.c: 494: return 0;
  6461                           
  6462                           
  6463                           	psect	text1006
  6464  0E7A                     __ptext1006:	
  6465 ;; =============== function _isFinishedTwelveHoursTimer ends ============
  6466                           
  6467                           
  6468 ;; *************** function _startTwelveHourTimer *****************
  6469 ;; Defined at:
  6470 ;;		line 388 in file "C:\temp\dev\AK7030-OTP\common.c"
  6471 ;; Parameters:    Size  Location     Type
  6472 ;;  uiSetTime       2    0[BANK0 ] unsigned int 
  6473 ;; Auto vars:     Size  Location     Type
  6474 ;;		None
  6475 ;; Return value:  Size  Location     Type
  6476 ;;		None               void
  6477 ;; Registers used:
  6478 ;;		wreg, status,2, status,0
  6479 ;; Tracked objects:
  6480 ;;		On entry : 60/0
  6481 ;;		On exit  : 40/0
  6482 ;;		Unchanged: FFF9F/0
  6483 ;; Data sizes:     COMMON   BANK0   BANK1   BANK3   BANK2
  6484 ;;      Params:         0       2       0       0       0
  6485 ;;      Locals:         0       0       0       0       0
  6486 ;;      Temps:          0       0       0       0       0
  6487 ;;      Totals:         0       2       0       0       0
  6488 ;;Total ram usage:        2 bytes
  6489 ;; Hardware stack levels used:    1
  6490 ;; Hardware stack levels required when called:    2
  6491 ;; This function calls:
  6492 ;;		Nothing
  6493 ;; This function is called by:
  6494 ;;		_main
  6495 ;; This function uses a non-reentrant model
  6496 ;;
  6497  0E7A                     _startTwelveHourTimer:	
  6498                           
  6499                           ;common.c: 389: if((0 == uiBigTimer) && ( 0 == bBigTimerStartFlag))
  6500                           
  6501                           ; Regs used in _startTwelveHourTimer: [wreg+status,2+status,0]
  6502  0E7A  1683               	bsf	3,5	;RP0=1, select bank1
  6503  0E7B  0821               	movf	(_uiBigTimer+1)^(0+128),w
  6504  0E7C  0420               	iorwf	_uiBigTimer^(0+128),w
  6505  0E7D  1D03               	skipz
  6506  0E7E  0008               	return
  6507  0E7F  1283               	bcf	3,5	;RP0=0, select bank0
  6508  0E80  08CC               	movf	_bBigTimerStartFlag,f
  6509  0E81  1D03               	skipz
  6510  0E82  0008               	return
  6511                           
  6512                           ;common.c: 390: {
  6513                           ;common.c: 391: uiBigTimer = uiSetTime;
  6514  0E83  0821               	movf	startTwelveHourTimer@uiSetTime+1,w
  6515  0E84  1683               	bsf	3,5	;RP0=1, select bank1
  6516  0E85  00A1               	movwf	(_uiBigTimer+1)^(0+128)
  6517  0E86  1283               	bcf	3,5	;RP0=0, select bank0
  6518  0E87  0820               	movf	startTwelveHourTimer@uiSetTime,w
  6519  0E88  1683               	bsf	3,5	;RP0=1, select bank1
  6520  0E89  00A0               	movwf	_uiBigTimer^(0+128)
  6521                           
  6522                           ;common.c: 392: bBigTimerStartFlag = 1;
  6523  0E8A  1283               	bcf	3,5	;RP0=0, select bank0
  6524  0E8B  01CC               	clrf	_bBigTimerStartFlag
  6525  0E8C  0ACC               	incf	_bBigTimerStartFlag,f
  6526  0E8D  0008               	return
  6527  0E8E                     __end_of_startTwelveHourTimer:	
  6528                           
  6529                           	psect	text1007
  6530  0E27                     __ptext1007:	
  6531 ;; =============== function _startTwelveHourTimer ends ============
  6532                           
  6533                           
  6534 ;; *************** function _isFinishedTwentyMinuteTimer *****************
  6535 ;; Defined at:
  6536 ;;		line 475 in file "C:\temp\dev\AK7030-OTP\common.c"
  6537 ;; Parameters:    Size  Location     Type
  6538 ;;		None
  6539 ;; Auto vars:     Size  Location     Type
  6540 ;;		None
  6541 ;; Return value:  Size  Location     Type
  6542 ;;                  1    wreg      unsigned char 
  6543 ;; Registers used:
  6544 ;;		wreg, status,2, status,0
  6545 ;; Tracked objects:
  6546 ;;		On entry : 160/0
  6547 ;;		On exit  : 140/0
  6548 ;;		Unchanged: FFE9F/0
  6549 ;; Data sizes:     COMMON   BANK0   BANK1   BANK3   BANK2
  6550 ;;      Params:         0       0       0       0       0
  6551 ;;      Locals:         0       0       0       0       0
  6552 ;;      Temps:          0       0       0       0       0
  6553 ;;      Totals:         0       0       0       0       0
  6554 ;;Total ram usage:        0 bytes
  6555 ;; Hardware stack levels used:    1
  6556 ;; Hardware stack levels required when called:    2
  6557 ;; This function calls:
  6558 ;;		Nothing
  6559 ;; This function is called by:
  6560 ;;		_main
  6561 ;; This function uses a non-reentrant model
  6562 ;;
  6563  0E27                     _isFinishedTwentyMinuteTimer:	
  6564                           
  6565                           ;common.c: 476: if(( 0 == uiTwentyMinuteTimer ) && bTwentyMinStartFlag )
  6566                           
  6567                           ; Regs used in _isFinishedTwentyMinuteTimer: [wreg+status,2+status,0]
  6568  0E27  1683               	bsf	3,5	;RP0=1, select bank1
  6569  0E28  0825               	movf	(_uiTwentyMinuteTimer+1)^(0+128),w
  6570  0E29  0424               	iorwf	_uiTwentyMinuteTimer^(0+128),w
  6571  0E2A  1D03               	skipz
  6572  0E2B  3400               	retlw	0
  6573  0E2C  1283               	bcf	3,5	;RP0=0, select bank0
  6574  0E2D  084E               	movf	_bTwentyMinStartFlag,w
  6575  0E2E  1903               	btfsc	3,2
  6576  0E2F  3400               	retlw	0
  6577  0E30  3001               	movlw	1
  6578                           
  6579                           ;common.c: 477: {
  6580                           ;common.c: 478: bTwentyMinStartFlag = 0;
  6581  0E31  01CE               	clrf	_bTwentyMinStartFlag
  6582                           
  6583                           ;common.c: 479: return 1;
  6584  0E32  0008               	return
  6585  0E33                     __end_of_isFinishedTwentyMinuteTimer:	
  6586                           ;common.c: 481: else
  6587                           ;common.c: 482: return 0;
  6588                           
  6589                           
  6590                           	psect	text1008
  6591  07FE                     __ptext1008:	
  6592 ;; =============== function _isFinishedTwentyMinuteTimer ends ============
  6593                           
  6594                           
  6595 ;; *************** function _clrSampeTime *****************
  6596 ;; Defined at:
  6597 ;;		line 519 in file "C:\temp\dev\AK7030-OTP\common.c"
  6598 ;; Parameters:    Size  Location     Type
  6599 ;;		None
  6600 ;; Auto vars:     Size  Location     Type
  6601 ;;		None
  6602 ;; Return value:  Size  Location     Type
  6603 ;;		None               void
  6604 ;; Registers used:
  6605 ;;		status,2
  6606 ;; Tracked objects:
  6607 ;;		On entry : 60/20
  6608 ;;		On exit  : 60/20
  6609 ;;		Unchanged: FFF9F/0
  6610 ;; Data sizes:     COMMON   BANK0   BANK1   BANK3   BANK2
  6611 ;;      Params:         0       0       0       0       0
  6612 ;;      Locals:         0       0       0       0       0
  6613 ;;      Temps:          0       0       0       0       0
  6614 ;;      Totals:         0       0       0       0       0
  6615 ;;Total ram usage:        0 bytes
  6616 ;; Hardware stack levels used:    1
  6617 ;; Hardware stack levels required when called:    2
  6618 ;; This function calls:
  6619 ;;		Nothing
  6620 ;; This function is called by:
  6621 ;;		_main
  6622 ;; This function uses a non-reentrant model
  6623 ;;
  6624  07FE                     _clrSampeTime:	
  6625                           
  6626                           ;common.c: 520: timer.timer10msStopWatch = 0;
  6627                           
  6628                           ; Regs used in _clrSampeTime: [status,2]
  6629  07FE  01AE               	clrf	_timer^(0+128)
  6630  07FF  0008               	return
  6631  0800                     __end_of_clrSampeTime:	
  6632                           
  6633                           	psect	text1009
  6634  0DF6                     __ptext1009:	
  6635 ;; =============== function _clrSampeTime ends ============
  6636                           
  6637                           
  6638 ;; *************** function _isPermitSampleTime *****************
  6639 ;; Defined at:
  6640 ;;		line 509 in file "C:\temp\dev\AK7030-OTP\common.c"
  6641 ;; Parameters:    Size  Location     Type
  6642 ;;		None
  6643 ;; Auto vars:     Size  Location     Type
  6644 ;;		None
  6645 ;; Return value:  Size  Location     Type
  6646 ;;                  1    wreg      unsigned char 
  6647 ;; Registers used:
  6648 ;;		wreg
  6649 ;; Tracked objects:
  6650 ;;		On entry : 40/20
  6651 ;;		On exit  : 60/20
  6652 ;;		Unchanged: FFF9F/0
  6653 ;; Data sizes:     COMMON   BANK0   BANK1   BANK3   BANK2
  6654 ;;      Params:         0       0       0       0       0
  6655 ;;      Locals:         0       0       0       0       0
  6656 ;;      Temps:          0       0       0       0       0
  6657 ;;      Totals:         0       0       0       0       0
  6658 ;;Total ram usage:        0 bytes
  6659 ;; Hardware stack levels used:    1
  6660 ;; Hardware stack levels required when called:    2
  6661 ;; This function calls:
  6662 ;;		Nothing
  6663 ;; This function is called by:
  6664 ;;		_main
  6665 ;; This function uses a non-reentrant model
  6666 ;;
  6667  0DF6                     _isPermitSampleTime:	
  6668                           
  6669                           ;common.c: 510: if(timer.timer10msStopWatch >= 10)
  6670                           
  6671                           ; Regs used in _isPermitSampleTime: [wreg]
  6672  0DF6  300A               	movlw	10
  6673  0DF7  1683               	bsf	3,5	;RP0=1, select bank1
  6674  0DF8  022E               	subwf	_timer^(0+128),w
  6675  0DF9  1803               	btfsc	3,0
  6676                           
  6677                           ;common.c: 511: {
  6678                           ;common.c: 512: return 1;
  6679  0DFA  3401               	retlw	1
  6680                           
  6681                           ;common.c: 514: else
  6682                           ;common.c: 515: return 0;
  6683  0DFB  3400               	retlw	0
  6684  0DFC                     __end_of_isPermitSampleTime:	
  6685                           
  6686                           	psect	text1010
  6687  0E68                     __ptext1010:	
  6688 ;; =============== function _isPermitSampleTime ends ============
  6689                           
  6690                           
  6691 ;; *************** function _startTwentyMinuteTimer *****************
  6692 ;; Defined at:
  6693 ;;		line 453 in file "C:\temp\dev\AK7030-OTP\common.c"
  6694 ;; Parameters:    Size  Location     Type
  6695 ;;		None
  6696 ;; Auto vars:     Size  Location     Type
  6697 ;;		None
  6698 ;; Return value:  Size  Location     Type
  6699 ;;		None               void
  6700 ;; Registers used:
  6701 ;;		wreg, status,2, status,0
  6702 ;; Tracked objects:
  6703 ;;		On entry : 60/0
  6704 ;;		On exit  : 40/0
  6705 ;;		Unchanged: FFF9F/0
  6706 ;; Data sizes:     COMMON   BANK0   BANK1   BANK3   BANK2
  6707 ;;      Params:         0       0       0       0       0
  6708 ;;      Locals:         0       0       0       0       0
  6709 ;;      Temps:          0       0       0       0       0
  6710 ;;      Totals:         0       0       0       0       0
  6711 ;;Total ram usage:        0 bytes
  6712 ;; Hardware stack levels used:    1
  6713 ;; Hardware stack levels required when called:    2
  6714 ;; This function calls:
  6715 ;;		Nothing
  6716 ;; This function is called by:
  6717 ;;		_main
  6718 ;; This function uses a non-reentrant model
  6719 ;;
  6720  0E68                     _startTwentyMinuteTimer:	
  6721                           
  6722                           ;common.c: 454: if(( 0 == uiTwentyMinuteTimer) && ( 0 == bTwentyMinStartFlag))
  6723                           
  6724                           ; Regs used in _startTwentyMinuteTimer: [wreg+status,2+status,0]
  6725  0E68  1683               	bsf	3,5	;RP0=1, select bank1
  6726  0E69  0825               	movf	(_uiTwentyMinuteTimer+1)^(0+128),w
  6727  0E6A  0424               	iorwf	_uiTwentyMinuteTimer^(0+128),w
  6728  0E6B  1D03               	skipz
  6729  0E6C  0008               	return
  6730  0E6D  1283               	bcf	3,5	;RP0=0, select bank0
  6731  0E6E  08CE               	movf	_bTwentyMinStartFlag,f
  6732  0E6F  1D03               	skipz
  6733  0E70  0008               	return
  6734                           
  6735                           ;common.c: 455: {
  6736                           ;common.c: 456: uiTwentyMinuteTimer = 1200;
  6737  0E71  30B0               	movlw	176
  6738  0E72  1683               	bsf	3,5	;RP0=1, select bank1
  6739  0E73  00A4               	movwf	_uiTwentyMinuteTimer^(0+128)
  6740  0E74  3004               	movlw	4
  6741  0E75  00A5               	movwf	(_uiTwentyMinuteTimer^(0+128)+1)
  6742                           
  6743                           ;common.c: 457: bTwentyMinStartFlag = 1;
  6744  0E76  1283               	bcf	3,5	;RP0=0, select bank0
  6745  0E77  01CE               	clrf	_bTwentyMinStartFlag
  6746  0E78  0ACE               	incf	_bTwentyMinStartFlag,f
  6747  0E79  0008               	return
  6748  0E7A                     __end_of_startTwentyMinuteTimer:	
  6749                           
  6750                           	psect	text1013
  6751  0DF3                     __ptext1013:	
  6752 ;; =============== function _adc_test_init ends ============
  6753                           
  6754                           
  6755 ;; *************** function _timer1_interrupt_config *****************
  6756 ;; Defined at:
  6757 ;;		line 221 in file "C:\temp\dev\AK7030-OTP\common.c"
  6758 ;; Parameters:    Size  Location     Type
  6759 ;;		None
  6760 ;; Auto vars:     Size  Location     Type
  6761 ;;		None
  6762 ;; Return value:  Size  Location     Type
  6763 ;;		None               void
  6764 ;; Registers used:
  6765 ;;		None
  6766 ;; Tracked objects:
  6767 ;;		On entry : 17F/20
  6768 ;;		On exit  : 17F/20
  6769 ;;		Unchanged: FFE80/0
  6770 ;; Data sizes:     COMMON   BANK0   BANK1   BANK3   BANK2
  6771 ;;      Params:         0       0       0       0       0
  6772 ;;      Locals:         0       0       0       0       0
  6773 ;;      Temps:          0       0       0       0       0
  6774 ;;      Totals:         0       0       0       0       0
  6775 ;;Total ram usage:        0 bytes
  6776 ;; Hardware stack levels used:    1
  6777 ;; Hardware stack levels required when called:    2
  6778 ;; This function calls:
  6779 ;;		Nothing
  6780 ;; This function is called by:
  6781 ;;		_main
  6782 ;; This function uses a non-reentrant model
  6783 ;;
  6784  0DF3                     _timer1_interrupt_config:	
  6785                           
  6786                           ;common.c: 222: GIE = 1;
  6787                           
  6788                           ; Regs used in _timer1_interrupt_config: []
  6789  0DF3  178B               	bsf	11,7
  6790                           
  6791                           ;common.c: 223: PEIE = 1;
  6792  0DF4  170B               	bsf	11,6
  6793  0DF5  0008               	return
  6794  0DF6                     __end_of_timer1_interrupt_config:	
  6795                           
  6796                           	psect	text1014
  6797  0E1D                     __ptext1014:	
  6798 ;; =============== function _timer1_interrupt_config ends ============
  6799                           
  6800                           
  6801 ;; *************** function _timer1_config *****************
  6802 ;; Defined at:
  6803 ;;		line 209 in file "C:\temp\dev\AK7030-OTP\common.c"
  6804 ;; Parameters:    Size  Location     Type
  6805 ;;		None
  6806 ;; Auto vars:     Size  Location     Type
  6807 ;;		None
  6808 ;; Return value:  Size  Location     Type
  6809 ;;		None               void
  6810 ;; Registers used:
  6811 ;;		wreg
  6812 ;; Tracked objects:
  6813 ;;		On entry : 17F/40
  6814 ;;		On exit  : 17F/20
  6815 ;;		Unchanged: FFE80/0
  6816 ;; Data sizes:     COMMON   BANK0   BANK1   BANK3   BANK2
  6817 ;;      Params:         0       0       0       0       0
  6818 ;;      Locals:         0       0       0       0       0
  6819 ;;      Temps:          0       0       0       0       0
  6820 ;;      Totals:         0       0       0       0       0
  6821 ;;Total ram usage:        0 bytes
  6822 ;; Hardware stack levels used:    1
  6823 ;; Hardware stack levels required when called:    2
  6824 ;; This function calls:
  6825 ;;		Nothing
  6826 ;; This function is called by:
  6827 ;;		_main
  6828 ;; This function uses a non-reentrant model
  6829 ;;
  6830  0E1D                     _timer1_config:	
  6831                           
  6832                           ;common.c: 211: TMR1H=0xCF;
  6833                           
  6834                           ; Regs used in _timer1_config: [wreg]
  6835  0E1D  30CF               	movlw	207
  6836  0E1E  1303               	bcf	3,6	;RP1=0, select bank0
  6837  0E1F  008F               	movwf	15	;volatile
  6838                           
  6839                           ;common.c: 212: TMR1L=0x2C;
  6840  0E20  302C               	movlw	44
  6841  0E21  008E               	movwf	14	;volatile
  6842                           
  6843                           ;common.c: 213: T1CON=0xE1;
  6844  0E22  30E1               	movlw	225
  6845  0E23  0090               	movwf	16	;volatile
  6846                           
  6847                           ;common.c: 214: TMR1IE=1;
  6848  0E24  1683               	bsf	3,5	;RP0=1, select bank1
  6849  0E25  140C               	bsf	12,0
  6850  0E26  0008               	return
  6851  0E27                     __end_of_timer1_config:	
  6852                           
  6853                           	psect	text1015
  6854  0E04                     __ptext1015:	
  6855 ;; =============== function _timer1_config ends ============
  6856                           
  6857                           
  6858 ;; *************** function _clock_config *****************
  6859 ;; Defined at:
  6860 ;;		line 201 in file "C:\temp\dev\AK7030-OTP\common.c"
  6861 ;; Parameters:    Size  Location     Type
  6862 ;;		None
  6863 ;; Auto vars:     Size  Location     Type
  6864 ;;		None
  6865 ;; Return value:  Size  Location     Type
  6866 ;;		None               void
  6867 ;; Registers used:
  6868 ;;		wreg, status,2
  6869 ;; Tracked objects:
  6870 ;;		On entry : 17F/20
  6871 ;;		On exit  : 17F/40
  6872 ;;		Unchanged: FFE80/0
  6873 ;; Data sizes:     COMMON   BANK0   BANK1   BANK3   BANK2
  6874 ;;      Params:         0       0       0       0       0
  6875 ;;      Locals:         0       0       0       0       0
  6876 ;;      Temps:          0       0       0       0       0
  6877 ;;      Totals:         0       0       0       0       0
  6878 ;;Total ram usage:        0 bytes
  6879 ;; Hardware stack levels used:    1
  6880 ;; Hardware stack levels required when called:    2
  6881 ;; This function calls:
  6882 ;;		Nothing
  6883 ;; This function is called by:
  6884 ;;		_main
  6885 ;; This function uses a non-reentrant model
  6886 ;;
  6887  0E04                     _clock_config:	
  6888                           
  6889                           ;common.c: 203: CLKPR = 0x80;
  6890                           
  6891                           ; Regs used in _clock_config: [wreg+status,2]
  6892  0E04  3080               	movlw	128
  6893  0E05  1283               	bcf	3,5	;RP0=0, select bank2
  6894  0E06  1703               	bsf	3,6	;RP1=1, select bank2
  6895  0E07  0088               	movwf	8	;volatile
  6896                           
  6897                           ;common.c: 204: CLKPR = 0x00;
  6898  0E08  0188               	clrf	8	;volatile
  6899  0E09                     l1913:	
  6900                           ;common.c: 205: while(CLKPCE);
  6901                           
  6902  0E09  1F88               	btfss	8,7
  6903  0E0A  0008               	return
  6904  0E0B  2E09               	goto	l1913
  6905  0E0C                     __end_of_clock_config:	
  6906                           
  6907                           	psect	text1017
  6908  0DFC                     __ptext1017:	
  6909 ;; =============== function _setPB6AsInput ends ============
  6910                           
  6911                           
  6912 ;; *************** function _setPA6 *****************
  6913 ;; Defined at:
  6914 ;;		line 354 in file "C:\temp\dev\AK7030-OTP\main.c"
  6915 ;; Parameters:    Size  Location     Type
  6916 ;;  bValue          1    wreg     unsigned char 
  6917 ;; Auto vars:     Size  Location     Type
  6918 ;;  bValue          1    0[BANK0 ] unsigned char 
  6919 ;; Return value:  Size  Location     Type
  6920 ;;		None               void
  6921 ;; Registers used:
  6922 ;;		wreg
  6923 ;; Tracked objects:
  6924 ;;		On entry : 60/0
  6925 ;;		On exit  : 60/0
  6926 ;;		Unchanged: FFF9F/0
  6927 ;; Data sizes:     COMMON   BANK0   BANK1   BANK3   BANK2
  6928 ;;      Params:         0       0       0       0       0
  6929 ;;      Locals:         0       1       0       0       0
  6930 ;;      Temps:          0       0       0       0       0
  6931 ;;      Totals:         0       1       0       0       0
  6932 ;;Total ram usage:        1 bytes
  6933 ;; Hardware stack levels used:    1
  6934 ;; Hardware stack levels required when called:    2
  6935 ;; This function calls:
  6936 ;;		Nothing
  6937 ;; This function is called by:
  6938 ;;		_main
  6939 ;; This function uses a non-reentrant model
  6940 ;;
  6941  0DFC                     _setPA6:	
  6942                           
  6943                           ; Regs used in _setPA6: [wreg]
  6944                           ;setPA6@bValue stored from wreg
  6945  0DFC  00A0               	movwf	setPA6@bValue
  6946                           
  6947                           ;main.c: 355: if( bValue )
  6948  0DFD  0820               	movf	setPA6@bValue,w
  6949  0DFE  1903               	btfsc	3,2
  6950  0DFF  2E02               	goto	l750
  6951                           
  6952                           ;main.c: 357: PA6 = 1;
  6953  0E00  1705               	bsf	5,6
  6954  0E01  0008               	return
  6955  0E02                     l750:	
  6956                           
  6957                           ;main.c: 361: else
  6958                           ;main.c: 363: PA6= 0;
  6959  0E02  1305               	bcf	5,6
  6960  0E03  0008               	return
  6961  0E04                     __end_of_setPA6:	
  6962                           
  6963                           	psect	text1021
  6964  0E14                     __ptext1021:	
  6965 ;; =============== function _setPA3 ends ============
  6966                           
  6967                           
  6968 ;; *************** function _setPA2 *****************
  6969 ;; Defined at:
  6970 ;;		line 250 in file "C:\temp\dev\AK7030-OTP\main.c"
  6971 ;; Parameters:    Size  Location     Type
  6972 ;;  bValue          1    wreg     unsigned char 
  6973 ;; Auto vars:     Size  Location     Type
  6974 ;;  bValue          1    0[BANK0 ] unsigned char 
  6975 ;; Return value:  Size  Location     Type
  6976 ;;		None               void
  6977 ;; Registers used:
  6978 ;;		wreg
  6979 ;; Tracked objects:
  6980 ;;		On entry : 40/20
  6981 ;;		On exit  : 60/0
  6982 ;;		Unchanged: FFF9F/0
  6983 ;; Data sizes:     COMMON   BANK0   BANK1   BANK3   BANK2
  6984 ;;      Params:         0       0       0       0       0
  6985 ;;      Locals:         0       1       0       0       0
  6986 ;;      Temps:          0       0       0       0       0
  6987 ;;      Totals:         0       1       0       0       0
  6988 ;;Total ram usage:        1 bytes
  6989 ;; Hardware stack levels used:    1
  6990 ;; Hardware stack levels required when called:    2
  6991 ;; This function calls:
  6992 ;;		Nothing
  6993 ;; This function is called by:
  6994 ;;		_main
  6995 ;; This function uses a non-reentrant model
  6996 ;;
  6997  0E14                     _setPA2:	
  6998                           
  6999                           ; Regs used in _setPA2: [wreg]
  7000                           ;setPA2@bValue stored from wreg
  7001  0E14  1283               	bcf	3,5	;RP0=0, select bank0
  7002  0E15  00A0               	movwf	setPA2@bValue
  7003                           
  7004                           ;main.c: 251: if( bValue )
  7005  0E16  0820               	movf	setPA2@bValue,w
  7006  0E17  1903               	btfsc	3,2
  7007  0E18  2E1B               	goto	l725
  7008                           
  7009                           ;main.c: 253: PA2 = 1;
  7010  0E19  1505               	bsf	5,2
  7011  0E1A  0008               	return
  7012  0E1B                     l725:	
  7013                           
  7014                           ;main.c: 257: else
  7015                           ;main.c: 259: PA2 = 0;
  7016  0E1B  1105               	bcf	5,2
  7017  0E1C  0008               	return
  7018  0E1D                     __end_of_setPA2:	
  7019                           
  7020                           	psect	text1027
  7021  0EA2                     __ptext1027:	
  7022 ;; =============== function _setPB0 ends ============
  7023                           
  7024                           
  7025 ;; *************** function _initPin *****************
  7026 ;; Defined at:
  7027 ;;		line 127 in file "C:\temp\dev\AK7030-OTP\main.c"
  7028 ;; Parameters:    Size  Location     Type
  7029 ;;		None
  7030 ;; Auto vars:     Size  Location     Type
  7031 ;;		None
  7032 ;; Return value:  Size  Location     Type
  7033 ;;		None               void
  7034 ;; Registers used:
  7035 ;;		None
  7036 ;; Tracked objects:
  7037 ;;		On entry : 160/0
  7038 ;;		On exit  : 160/20
  7039 ;;		Unchanged: FFE9F/0
  7040 ;; Data sizes:     COMMON   BANK0   BANK1   BANK3   BANK2
  7041 ;;      Params:         0       0       0       0       0
  7042 ;;      Locals:         0       0       0       0       0
  7043 ;;      Temps:          0       0       0       0       0
  7044 ;;      Totals:         0       0       0       0       0
  7045 ;;Total ram usage:        0 bytes
  7046 ;; Hardware stack levels used:    1
  7047 ;; Hardware stack levels required when called:    2
  7048 ;; This function calls:
  7049 ;;		Nothing
  7050 ;; This function is called by:
  7051 ;;		_main
  7052 ;; This function uses a non-reentrant model
  7053 ;;
  7054  0EA2                     _initPin:	
  7055                           
  7056                           ;main.c: 130: TRISB0 = 0;
  7057                           
  7058                           ; Regs used in _initPin: []
  7059  0EA2  1683               	bsf	3,5	;RP0=1, select bank1
  7060  0EA3  1006               	bcf	6,0
  7061                           
  7062                           ;main.c: 131: PB0 = 0;
  7063  0EA4  1283               	bcf	3,5	;RP0=0, select bank0
  7064  0EA5  1006               	bcf	6,0
  7065                           
  7066                           ;main.c: 132: TRISB1 = 0;
  7067  0EA6  1683               	bsf	3,5	;RP0=1, select bank1
  7068  0EA7  1086               	bcf	6,1
  7069                           
  7070                           ;main.c: 133: PB1 = 0;
  7071  0EA8  1283               	bcf	3,5	;RP0=0, select bank0
  7072  0EA9  1086               	bcf	6,1
  7073                           
  7074                           ;main.c: 134: TRISB2 = 0;
  7075  0EAA  1683               	bsf	3,5	;RP0=1, select bank1
  7076  0EAB  1106               	bcf	6,2
  7077                           
  7078                           ;main.c: 135: PB2 = 0;
  7079  0EAC  1283               	bcf	3,5	;RP0=0, select bank0
  7080  0EAD  1106               	bcf	6,2
  7081                           
  7082                           ;main.c: 136: TRISA0 = 0;
  7083  0EAE  1683               	bsf	3,5	;RP0=1, select bank1
  7084  0EAF  1005               	bcf	5,0
  7085                           
  7086                           ;main.c: 137: PA0 = 0;
  7087  0EB0  1283               	bcf	3,5	;RP0=0, select bank0
  7088  0EB1  1005               	bcf	5,0
  7089                           
  7090                           ;main.c: 138: TRISA1 = 0;
  7091  0EB2  1683               	bsf	3,5	;RP0=1, select bank1
  7092  0EB3  1085               	bcf	5,1
  7093                           
  7094                           ;main.c: 139: PA1 = 0;
  7095  0EB4  1283               	bcf	3,5	;RP0=0, select bank0
  7096  0EB5  1085               	bcf	5,1
  7097                           
  7098                           ;main.c: 140: TRISA2 = 0;
  7099  0EB6  1683               	bsf	3,5	;RP0=1, select bank1
  7100  0EB7  1105               	bcf	5,2
  7101                           
  7102                           ;main.c: 141: PA2 = 1;
  7103  0EB8  1283               	bcf	3,5	;RP0=0, select bank0
  7104  0EB9  1505               	bsf	5,2
  7105                           
  7106                           ;main.c: 143: TRISA3 = 0;
  7107  0EBA  1683               	bsf	3,5	;RP0=1, select bank1
  7108  0EBB  1185               	bcf	5,3
  7109                           
  7110                           ;main.c: 144: PA3 = 0;
  7111  0EBC  1283               	bcf	3,5	;RP0=0, select bank0
  7112  0EBD  1185               	bcf	5,3
  7113                           
  7114                           ;main.c: 145: TRISB4 = 0;
  7115  0EBE  1683               	bsf	3,5	;RP0=1, select bank1
  7116  0EBF  1206               	bcf	6,4
  7117                           
  7118                           ;main.c: 146: PB4 = 0;
  7119  0EC0  1283               	bcf	3,5	;RP0=0, select bank0
  7120  0EC1  1206               	bcf	6,4
  7121                           
  7122                           ;main.c: 147: TRISB7 = 0;
  7123  0EC2  1683               	bsf	3,5	;RP0=1, select bank1
  7124  0EC3  1386               	bcf	6,7
  7125                           
  7126                           ;main.c: 148: PB7 = 0;
  7127  0EC4  1283               	bcf	3,5	;RP0=0, select bank0
  7128  0EC5  1386               	bcf	6,7
  7129                           
  7130                           ;main.c: 150: TRISB6 = 1;
  7131  0EC6  1683               	bsf	3,5	;RP0=1, select bank1
  7132  0EC7  1706               	bsf	6,6
  7133  0EC8  0008               	return
  7134  0EC9                     __end_of_initPin:	
  7135                           
  7136                           	psect	text1032
  7137  0F17                     __ptext1032:	
  7138 ;; =============== function _clearTwelveHoursTimer ends ============
  7139                           
  7140                           
  7141 ;; *************** function _ISR *****************
  7142 ;; Defined at:
  7143 ;;		line 524 in file "C:\temp\dev\AK7030-OTP\common.c"
  7144 ;; Parameters:    Size  Location     Type
  7145 ;;		None
  7146 ;; Auto vars:     Size  Location     Type
  7147 ;;		None
  7148 ;; Return value:  Size  Location     Type
  7149 ;;		None               void
  7150 ;; Registers used:
  7151 ;;		wreg, fsr0l, fsr0h, status,2, status,0, btemp+1, pclath, cstack
  7152 ;; Tracked objects:
  7153 ;;		On entry : 0/0
  7154 ;;		On exit  : 60/0
  7155 ;;		Unchanged: FFE00/0
  7156 ;; Data sizes:     COMMON   BANK0   BANK1   BANK3   BANK2
  7157 ;;      Params:         0       0       0       0       0
  7158 ;;      Locals:         0       0       0       0       0
  7159 ;;      Temps:          4       0       0       0       0
  7160 ;;      Totals:         4       0       0       0       0
  7161 ;;Total ram usage:        4 bytes
  7162 ;; Hardware stack levels used:    1
  7163 ;; Hardware stack levels required when called:    1
  7164 ;; This function calls:
  7165 ;;		i1_setAD_ConvertFlag
  7166 ;;		_adc_get
  7167 ;;		_vPutSampleDataIntoTable
  7168 ;; This function is called by:
  7169 ;;		Interrupt level 1
  7170 ;; This function uses a non-reentrant model
  7171 ;;
  7172  0F17                     _ISR:	
  7173                           
  7174                           ;common.c: 525: static unsigned char ucTimer1sCnt = 0;
  7175                           ;common.c: 527: if(TMR1IF == 1)
  7176  0F17  1C0C               	btfss	12,0
  7177  0F18  2F40               	goto	i1l4985
  7178                           
  7179                           ;common.c: 528: {
  7180                           ;common.c: 529: TMR1IF = 0 ;
  7181  0F19  100C               	bcf	12,0
  7182                           
  7183                           ;common.c: 530: timer.timer10msStopWatch++;
  7184  0F1A  1683               	bsf	3,5	;RP0=1, select bank1
  7185  0F1B  3064               	movlw	100
  7186  0F1C  0AAE               	incf	_timer^(0+128),f
  7187                           
  7188                           ;common.c: 531: ucTimer1sCnt++;
  7189  0F1D  0AAC               	incf	ISR@ucTimer1sCnt^(0+128),f
  7190                           
  7191                           ;common.c: 533: if(ucTimer1sCnt >= 100)
  7192  0F1E  022C               	subwf	ISR@ucTimer1sCnt^(0+128),w
  7193  0F1F  1C03               	skipc
  7194  0F20  2F40               	goto	i1l4985
  7195                           
  7196                           ;common.c: 534: {
  7197                           ;common.c: 535: ucTimer1sCnt = 0;
  7198  0F21  01AC               	clrf	ISR@ucTimer1sCnt^(0+128)
  7199                           
  7200                           ;common.c: 536: if(uiBigTimer > 0)
  7201  0F22  0821               	movf	(_uiBigTimer+1)^(0+128),w
  7202  0F23  0420               	iorwf	_uiBigTimer^(0+128),w
  7203  0F24  1903               	skipnz
  7204  0F25  2F2C               	goto	i1l2024
  7205                           
  7206                           ;common.c: 537: uiBigTimer--;
  7207  0F26  3001               	movlw	1
  7208  0F27  02A0               	subwf	_uiBigTimer^(0+128),f
  7209  0F28  3000               	movlw	0
  7210  0F29  1C03               	skipc
  7211  0F2A  03A1               	decf	(_uiBigTimer+1)^(0+128),f
  7212  0F2B  02A1               	subwf	(_uiBigTimer+1)^(0+128),f
  7213  0F2C                     i1l2024:	
  7214                           
  7215                           ;common.c: 539: if(uiSmallTimer)
  7216  0F2C  0823               	movf	(_uiSmallTimer+1)^(0+128),w
  7217  0F2D  0422               	iorwf	_uiSmallTimer^(0+128),w
  7218  0F2E  1903               	skipnz
  7219  0F2F  2F36               	goto	i1l2025
  7220                           
  7221                           ;common.c: 540: uiSmallTimer--;
  7222  0F30  3001               	movlw	1
  7223  0F31  02A2               	subwf	_uiSmallTimer^(0+128),f
  7224  0F32  3000               	movlw	0
  7225  0F33  1C03               	skipc
  7226  0F34  03A3               	decf	(_uiSmallTimer+1)^(0+128),f
  7227  0F35  02A3               	subwf	(_uiSmallTimer+1)^(0+128),f
  7228  0F36                     i1l2025:	
  7229                           
  7230                           ;common.c: 542: if(uiTwentySecondsTimer)
  7231  0F36  0827               	movf	(_uiTwentySecondsTimer+1)^(0+128),w
  7232  0F37  0426               	iorwf	_uiTwentySecondsTimer^(0+128),w
  7233  0F38  1903               	skipnz
  7234  0F39  2F40               	goto	i1l4985
  7235                           
  7236                           ;common.c: 543: uiTwentySecondsTimer--;
  7237  0F3A  3001               	movlw	1
  7238  0F3B  02A6               	subwf	_uiTwentySecondsTimer^(0+128),f
  7239  0F3C  3000               	movlw	0
  7240  0F3D  1C03               	skipc
  7241  0F3E  03A7               	decf	(_uiTwentySecondsTimer+1)^(0+128),f
  7242  0F3F  02A7               	subwf	(_uiTwentySecondsTimer+1)^(0+128),f
  7243  0F40                     i1l4985:	
  7244                           
  7245                           ;common.c: 544: }
  7246                           ;common.c: 545: }
  7247                           ;common.c: 547: if(ADIF)
  7248  0F40  1283               	bcf	3,5	;RP0=0, select bank0
  7249  0F41  1D0D               	btfss	13,2
  7250  0F42  2F51               	goto	i1l2028
  7251  0F43  3001               	movlw	1
  7252                           
  7253                           ;common.c: 548: {
  7254                           ;common.c: 549: ADIF=0;
  7255  0F44  110D               	bcf	13,2
  7256                           
  7257                           ;common.c: 550: setAD_ConvertFlag(1);
  7258  0F45  27E3  158A         	fcall	i1_setAD_ConvertFlag
  7259                           
  7260                           ;common.c: 551: vPutSampleDataIntoTable(adc_get(),sampleChannelSelect);
  7261  0F47  27D7  158A         	fcall	_adc_get
  7262  0F49  0871               	movf	?_adc_get+1,w
  7263  0F4A  00F5               	movwf	?_vPutSampleDataIntoTable+1
  7264  0F4B  0870               	movf	?_adc_get,w
  7265  0F4C  00F4               	movwf	?_vPutSampleDataIntoTable
  7266  0F4D  1283               	bcf	3,5	;RP0=0, select bank0
  7267  0F4E  0851               	movf	_sampleChannelSelect,w
  7268  0F4F  00F6               	movwf	?_vPutSampleDataIntoTable+2
  7269  0F50  275E               	fcall	_vPutSampleDataIntoTable
  7270  0F51                     i1l2028:	
  7271  0F51  087C               	movf	??_ISR+3,w
  7272  0F52  1283               	bcf	3,5	;RP0=0, select bank0
  7273  0F53  1303               	bcf	3,6	;RP1=0, select bank0
  7274  0F54  00FF               	movwf	127
  7275  0F55  087B               	movf	??_ISR+2,w
  7276  0F56  008A               	movwf	10
  7277  0F57  087A               	movf	??_ISR+1,w
  7278  0F58  0084               	movwf	4
  7279  0F59  0E79               	swapf	??_ISR^(0+-128),w
  7280  0F5A  0083               	movwf	3
  7281  0F5B  0EFE               	swapf	126,f
  7282  0F5C  0E7E               	swapf	126,w
  7283  0F5D  0009               	retfie
  7284  0F5E                     __end_of_ISR:	
  7285  0F5E                     __ptext1035:	
  7286 ;; =============== function _adc_get ends ============
  7287                           
  7288                           
  7289 ;; *************** function _vPutSampleDataIntoTable *****************
  7290 ;; Defined at:
  7291 ;;		line 105 in file "C:\temp\dev\AK7030-OTP\common.c"
  7292 ;; Parameters:    Size  Location     Type
  7293 ;;  uiSampleData    2    4[COMMON] unsigned int 
  7294 ;;  channel         1    6[COMMON] unsigned char 
  7295 ;; Auto vars:     Size  Location     Type
  7296 ;;  i               2    7[COMMON] int 
  7297 ;; Return value:  Size  Location     Type
  7298 ;;		None               void
  7299 ;; Registers used:
  7300 ;;		wreg, fsr0l, fsr0h, status,2, status,0, btemp+1
  7301 ;; Tracked objects:
  7302 ;;		On entry : 60/0
  7303 ;;		On exit  : 0/0
  7304 ;;		Unchanged: FFE00/0
  7305 ;; Data sizes:     COMMON   BANK0   BANK1   BANK3   BANK2
  7306 ;;      Params:         3       0       0       0       0
  7307 ;;      Locals:         2       0       0       0       0
  7308 ;;      Temps:          0       0       0       0       0
  7309 ;;      Totals:         5       0       0       0       0
  7310 ;;Total ram usage:        5 bytes
  7311 ;; Hardware stack levels used:    1
  7312 ;; This function calls:
  7313 ;;		Nothing
  7314 ;; This function is called by:
  7315 ;;		_ISR
  7316 ;; This function uses a non-reentrant model
  7317 ;;
  7318  0F5E                     _vPutSampleDataIntoTable:	
  7319                           
  7320                           ;common.c: 107: static unsigned char ucChannelZeroLength = 0;
  7321                           ;common.c: 109: static unsigned char ucChannelSecondLength = 0;
  7322                           ;common.c: 111: static unsigned char ucChannelFifthLength = 0;
  7323                           ;common.c: 113: static unsigned char ucChannelSixthLength = 0;
  7324                           ;common.c: 115: if(channel == 0)
  7325                           
  7326                           ; Regs used in _vPutSampleDataIntoTable: [wreg-fsr0h+status,2+status,0+btemp+1]
  7327  0F5E  08F6               	movf	vPutSampleDataIntoTable@channel,f
  7328  0F5F  1D03               	skipz
  7329  0F60  2F71               	goto	i1l4913
  7330                           
  7331                           ;common.c: 116: {
  7332                           ;common.c: 117: if(ucChannelZeroLength < 12)
  7333  0F61  300C               	movlw	12
  7334  0F62  026E               	subwf	vPutSampleDataIntoTable@ucChannelZeroLength,w
  7335  0F63  1803               	skipnc
  7336  0F64  2F6B               	goto	i1l4909
  7337                           
  7338                           ;common.c: 118: {
  7339                           ;common.c: 119: uiSampleChannelZero[ucChannelZeroLength] = uiSampleData;
  7340  0F65  1003               	clrc
  7341  0F66  0D6E               	rlf	vPutSampleDataIntoTable@ucChannelZeroLength,w
  7342  0F67  3EC0               	addlw	_uiSampleChannelZero& (0+255)
  7343  0F68  27F0               	fcall	PL3	;call to abstracted procedure
  7344                           
  7345                           ;common.c: 121: ucChannelZeroLength++;
  7346  0F69  0AEE               	incf	vPutSampleDataIntoTable@ucChannelZeroLength,f
  7347                           
  7348                           ;common.c: 122: }
  7349  0F6A  0008               	return
  7350  0F6B                     i1l4909:	
  7351                           
  7352                           ;common.c: 123: else
  7353                           ;common.c: 124: {
  7354                           ;common.c: 125: ucChannelZeroLength = 0;
  7355  0F6B  01EE               	clrf	vPutSampleDataIntoTable@ucChannelZeroLength
  7356                           
  7357                           ;common.c: 127: uiSampleChannelZero[ucChannelZeroLength] = uiSampleData;
  7358  0F6C  1003               	clrc
  7359  0F6D  0D6E               	rlf	vPutSampleDataIntoTable@ucChannelZeroLength,w
  7360  0F6E  3EC0               	addlw	_uiSampleChannelZero& (0+255)
  7361  0F6F  27F0               	fcall	PL3	;call to abstracted procedure
  7362  0F70  0008               	return
  7363  0F71                     i1l4913:	
  7364                           
  7365                           ;common.c: 130: else if(channel == 2)
  7366  0F71  0876               	movf	vPutSampleDataIntoTable@channel,w
  7367  0F72  3A02               	xorlw	2
  7368  0F73  1D03               	skipz
  7369  0F74  2F89               	goto	i1l4925
  7370                           
  7371                           ;common.c: 131: {
  7372                           ;common.c: 132: if(ucChannelSecondLength < 12)
  7373  0F75  300C               	movlw	12
  7374  0F76  026C               	subwf	vPutSampleDataIntoTable@ucChannelSecondLength,w
  7375  0F77  1803               	skipnc
  7376  0F78  2F85               	goto	i1l4921
  7377                           
  7378                           ;common.c: 133: {
  7379                           ;common.c: 134: uiSampleChannelSecond[ucChannelSecondLength] = uiSampleData;
  7380  0F79  1003               	clrc
  7381  0F7A  0D6C               	rlf	vPutSampleDataIntoTable@ucChannelSecondLength,w
  7382  0F7B  3ED0               	addlw	_uiSampleChannelSecond& (0+255)
  7383  0F7C  0084               	movwf	4
  7384  0F7D  0874               	movf	vPutSampleDataIntoTable@uiSampleData,w
  7385  0F7E  1383               	bcf	3,7	;select IRP bank1
  7386  0F7F  0080               	movwf	0
  7387  0F80  0A84               	incf	4,f
  7388  0F81  0875               	movf	vPutSampleDataIntoTable@uiSampleData+1,w
  7389  0F82  0080               	movwf	0
  7390                           
  7391                           ;common.c: 136: ucChannelSecondLength++;
  7392  0F83  0AEC               	incf	vPutSampleDataIntoTable@ucChannelSecondLength,f
  7393                           
  7394                           ;common.c: 137: }
  7395  0F84  0008               	return
  7396  0F85                     i1l4921:	
  7397                           
  7398                           ;common.c: 138: else
  7399                           ;common.c: 139: {
  7400                           ;common.c: 140: ucChannelSecondLength = 0;
  7401  0F85  01EC               	clrf	vPutSampleDataIntoTable@ucChannelSecondLength
  7402                           
  7403                           ;common.c: 142: uiSampleChannelSecond[ucChannelSecondLength] = uiSampleData;
  7404  0F86  1003               	clrc
  7405  0F87  0D6C               	rlf	vPutSampleDataIntoTable@ucChannelSecondLength,w
  7406  0F88  2FE7               	ljmp	PL2	;call to abstracted procedure
  7407  0F89                     i1l4925:	
  7408                           
  7409                           ;common.c: 145: else if(channel == 5)
  7410  0F89  0876               	movf	vPutSampleDataIntoTable@channel,w
  7411  0F8A  3A05               	xorlw	5
  7412  0F8B  1D03               	skipz
  7413  0F8C  2F9B               	goto	i1l4937
  7414                           
  7415                           ;common.c: 146: {
  7416                           ;common.c: 147: if(ucChannelFifthLength < 12)
  7417  0F8D  300C               	movlw	12
  7418  0F8E  026B               	subwf	vPutSampleDataIntoTable@ucChannelFifthLength,w
  7419  0F8F  1803               	skipnc
  7420  0F90  2F97               	goto	i1l4933
  7421                           
  7422                           ;common.c: 148: {
  7423                           ;common.c: 149: uiSampleChannelFifth[ucChannelFifthLength] = uiSampleData;
  7424  0F91  1003               	clrc
  7425  0F92  0D6B               	rlf	vPutSampleDataIntoTable@ucChannelFifthLength,w
  7426  0F93  3E90               	addlw	_uiSampleChannelFifth& (0+255)
  7427  0F94  27F0               	fcall	PL3	;call to abstracted procedure
  7428                           
  7429                           ;common.c: 151: ucChannelFifthLength++;
  7430  0F95  0AEB               	incf	vPutSampleDataIntoTable@ucChannelFifthLength,f
  7431                           
  7432                           ;common.c: 152: }
  7433  0F96  0008               	return
  7434  0F97                     i1l4933:	
  7435                           
  7436                           ;common.c: 153: else
  7437                           ;common.c: 154: {
  7438                           ;common.c: 155: ucChannelFifthLength = 0;
  7439  0F97  01EB               	clrf	vPutSampleDataIntoTable@ucChannelFifthLength
  7440                           
  7441                           ;common.c: 157: uiSampleChannelSecond[ucChannelFifthLength] = uiSampleData;
  7442  0F98  1003               	clrc
  7443  0F99  0D6B               	rlf	vPutSampleDataIntoTable@ucChannelFifthLength,w
  7444  0F9A  2FE7               	ljmp	PL2	;call to abstracted procedure
  7445  0F9B                     i1l4937:	
  7446                           
  7447                           ;common.c: 160: else if(channel == 6)
  7448  0F9B  0876               	movf	vPutSampleDataIntoTable@channel,w
  7449  0F9C  3A06               	xorlw	6
  7450  0F9D  1D03               	skipz
  7451  0F9E  2FAD               	goto	i1l4949
  7452                           
  7453                           ;common.c: 161: {
  7454                           ;common.c: 162: if(ucChannelSixthLength < 12)
  7455  0F9F  300C               	movlw	12
  7456  0FA0  026D               	subwf	vPutSampleDataIntoTable@ucChannelSixthLength,w
  7457  0FA1  1803               	skipnc
  7458  0FA2  2FA9               	goto	i1l4945
  7459                           
  7460                           ;common.c: 163: {
  7461                           ;common.c: 164: uiSampleChannelFifth[ucChannelSixthLength] = uiSampleData;
  7462  0FA3  1003               	clrc
  7463  0FA4  0D6D               	rlf	vPutSampleDataIntoTable@ucChannelSixthLength,w
  7464  0FA5  3E90               	addlw	_uiSampleChannelFifth& (0+255)
  7465  0FA6  27F0               	fcall	PL3	;call to abstracted procedure
  7466                           
  7467                           ;common.c: 166: ucChannelSixthLength++;
  7468  0FA7  0AED               	incf	vPutSampleDataIntoTable@ucChannelSixthLength,f
  7469                           
  7470                           ;common.c: 167: }
  7471  0FA8  0008               	return
  7472  0FA9                     i1l4945:	
  7473                           
  7474                           ;common.c: 168: else
  7475                           ;common.c: 169: {
  7476                           ;common.c: 170: ucChannelSixthLength = 0;
  7477  0FA9  01ED               	clrf	vPutSampleDataIntoTable@ucChannelSixthLength
  7478                           
  7479                           ;common.c: 172: uiSampleChannelSecond[ucChannelSixthLength] = uiSampleData;
  7480  0FAA  1003               	clrc
  7481  0FAB  0D6D               	rlf	vPutSampleDataIntoTable@ucChannelSixthLength,w
  7482  0FAC  2FE7               	ljmp	PL2	;call to abstracted procedure
  7483  0FAD                     i1l4949:	
  7484                           
  7485                           ;common.c: 175: else
  7486                           ;common.c: 176: {
  7487                           ;common.c: 177: ucChannelZeroLength = 0;
  7488  0FAD  01EE               	clrf	vPutSampleDataIntoTable@ucChannelZeroLength
  7489                           
  7490                           ;common.c: 179: ucChannelSecondLength = 0;
  7491  0FAE  01EC               	clrf	vPutSampleDataIntoTable@ucChannelSecondLength
  7492                           
  7493                           ;common.c: 181: ucChannelFifthLength = 0;
  7494  0FAF  01EB               	clrf	vPutSampleDataIntoTable@ucChannelFifthLength
  7495                           
  7496                           ;common.c: 183: ucChannelSixthLength = 0;
  7497  0FB0  01ED               	clrf	vPutSampleDataIntoTable@ucChannelSixthLength
  7498                           
  7499                           ;common.c: 185: for(int i = 0;i < 12; i++)
  7500  0FB1  01F7               	clrf	vPutSampleDataIntoTable@i
  7501  0FB2  01F8               	clrf	vPutSampleDataIntoTable@i+1
  7502  0FB3                     i1l4955:	
  7503                           
  7504                           ;common.c: 186: {
  7505                           ;common.c: 187: uiSampleChannelZero[i] = 0;
  7506  0FB3  1003               	clrc
  7507  0FB4  0D77               	rlf	vPutSampleDataIntoTable@i,w
  7508  0FB5  3EC0               	addlw	_uiSampleChannelZero& (0+255)
  7509                           
  7510                           ;common.c: 189: uiSampleChannelSecond[i] = 0;
  7511  0FB6  27F8  158A         	fcall	PL5	;call to abstracted procedure
  7512  0FB8  3ED0               	addlw	_uiSampleChannelSecond& (0+255)
  7513  0FB9  0084               	movwf	4
  7514  0FBA  1383               	bcf	3,7	;select IRP bank1
  7515  0FBB  0180               	clrf	0
  7516  0FBC  0A84               	incf	4,f
  7517  0FBD  0180               	clrf	0
  7518                           
  7519                           ;common.c: 191: uiSampleChannelFifth[i] = 0;
  7520  0FBE  1003               	clrc
  7521  0FBF  0D77               	rlf	vPutSampleDataIntoTable@i,w
  7522  0FC0  3E90               	addlw	_uiSampleChannelFifth& (0+255)
  7523                           
  7524                           ;common.c: 193: uiSampleChannelSixth[i] = 0;
  7525  0FC1  27F8  158A         	fcall	PL5	;call to abstracted procedure
  7526  0FC3  3EA8               	addlw	_uiSampleChannelSixth& (0+255)
  7527  0FC4  0084               	movwf	4
  7528  0FC5  0180               	clrf	0
  7529  0FC6  0A84               	incf	4,f
  7530  0FC7  0180               	clrf	0
  7531  0FC8  0AF7               	incf	vPutSampleDataIntoTable@i,f
  7532  0FC9  1903               	skipnz
  7533  0FCA  0AF8               	incf	vPutSampleDataIntoTable@i+1,f
  7534  0FCB  0878               	movf	vPutSampleDataIntoTable@i+1,w
  7535  0FCC  3A80               	xorlw	128
  7536  0FCD  00FF               	movwf	127
  7537  0FCE  3080               	movlw	128
  7538  0FCF  027F               	subwf	127,w
  7539  0FD0  1D03               	skipz
  7540  0FD1  2FD4               	goto	u203_25
  7541  0FD2  300C               	movlw	12
  7542  0FD3  0277               	subwf	vPutSampleDataIntoTable@i,w
  7543  0FD4                     u203_25:	
  7544  0FD4  1803               	btfsc	3,0
  7545  0FD5  0008               	return
  7546  0FD6  2FB3               	goto	i1l4955
  7547  0FD7                     __end_of_vPutSampleDataIntoTable:	
  7548  0FD7                     __ptext1034:	
  7549 ;; =============== function i1_setAD_ConvertFlag ends ============
  7550                           
  7551                           
  7552 ;; *************** function _adc_get *****************
  7553 ;; Defined at:
  7554 ;;		line 105 in file "C:\temp\dev\AK7030-OTP\periph.c"
  7555 ;; Parameters:    Size  Location     Type
  7556 ;;		None
  7557 ;; Auto vars:     Size  Location     Type
  7558 ;;  val             2    2[COMMON] unsigned int 
  7559 ;; Return value:  Size  Location     Type
  7560 ;;                  2    0[COMMON] unsigned int 
  7561 ;; Registers used:
  7562 ;;		wreg
  7563 ;; Tracked objects:
  7564 ;;		On entry : 60/20
  7565 ;;		On exit  : 60/20
  7566 ;;		Unchanged: FFF9F/0
  7567 ;; Data sizes:     COMMON   BANK0   BANK1   BANK3   BANK2
  7568 ;;      Params:         2       0       0       0       0
  7569 ;;      Locals:         2       0       0       0       0
  7570 ;;      Temps:          0       0       0       0       0
  7571 ;;      Totals:         4       0       0       0       0
  7572 ;;Total ram usage:        4 bytes
  7573 ;; Hardware stack levels used:    1
  7574 ;; This function calls:
  7575 ;;		Nothing
  7576 ;; This function is called by:
  7577 ;;		_ISR
  7578 ;; This function uses a non-reentrant model
  7579 ;;
  7580  0FD7                     _adc_get:	
  7581                           
  7582                           ;periph.c: 106: unsigned int val;
  7583                           ;periph.c: 107: val = (ADRESH<<8) | ADRESL;
  7584                           
  7585                           ; Regs used in _adc_get: [wreg]
  7586  0FD7  1283               	bcf	3,5	;RP0=0, select bank0
  7587  0FD8  081E               	movf	30,w	;volatile
  7588  0FD9  00F3               	movwf	adc_get@val+1
  7589  0FDA  01F2               	clrf	adc_get@val
  7590  0FDB  1683               	bsf	3,5	;RP0=1, select bank1
  7591  0FDC  081E               	movf	30,w	;volatile
  7592  0FDD  04F2               	iorwf	adc_get@val,f
  7593                           
  7594                           ;periph.c: 108: return val;
  7595  0FDE  0873               	movf	adc_get@val+1,w
  7596  0FDF  00F1               	movwf	?_adc_get+1
  7597  0FE0  0872               	movf	adc_get@val,w
  7598  0FE1  00F0               	movwf	?_adc_get
  7599  0FE2  0008               	return
  7600  0FE3                     __end_of_adc_get:	
  7601  0FE3                     __ptext1033:	
  7602 ;; =============== function _ISR ends ============
  7603                           
  7604                           
  7605 ;; *************** function i1_setAD_ConvertFlag *****************
  7606 ;; Defined at:
  7607 ;;		line 235 in file "C:\temp\dev\AK7030-OTP\common.c"
  7608 ;; Parameters:    Size  Location     Type
  7609 ;;  setAD_Conver    1    wreg     unsigned char 
  7610 ;; Auto vars:     Size  Location     Type
  7611 ;;  setAD_Conver    1    0[COMMON] unsigned char 
  7612 ;; Return value:  Size  Location     Type
  7613 ;;		None               void
  7614 ;; Registers used:
  7615 ;;		wreg
  7616 ;; Tracked objects:
  7617 ;;		On entry : 60/0
  7618 ;;		On exit  : 60/20
  7619 ;;		Unchanged: FFF9F/0
  7620 ;; Data sizes:     COMMON   BANK0   BANK1   BANK3   BANK2
  7621 ;;      Params:         0       0       0       0       0
  7622 ;;      Locals:         1       0       0       0       0
  7623 ;;      Temps:          0       0       0       0       0
  7624 ;;      Totals:         1       0       0       0       0
  7625 ;;Total ram usage:        1 bytes
  7626 ;; Hardware stack levels used:    1
  7627 ;; This function calls:
  7628 ;;		Nothing
  7629 ;; This function is called by:
  7630 ;;		_ISR
  7631 ;; This function uses a non-reentrant model
  7632 ;;
  7633  0FE3                     i1_setAD_ConvertFlag:	
  7634                           
  7635                           ; Regs used in i1_setAD_ConvertFlag: [wreg]
  7636                           ;i1setAD_ConvertFlag@flag stored from wreg
  7637  0FE3  00F0               	movwf	i1setAD_ConvertFlag@flag
  7638                           
  7639                           ;common.c: 236: adc_convert_flag = flag;
  7640  0FE4  1683               	bsf	3,5	;RP0=1, select bank1
  7641  0FE5  00AD               	movwf	_adc_convert_flag^(0+128)
  7642  0FE6  0008               	return
  7643  0FE7                     __end_ofi1_setAD_ConvertFlag:	
  7644  0FE7                     PL2:	
  7645  0FE7  3ED0               	addlw	_uiSampleChannelSecond& (0+255)
  7646  0FE8  0084               	movwf	4
  7647  0FE9  0874               	movf	vPutSampleDataIntoTable@uiSampleData,w
  7648  0FEA  1383               	bcf	3,7	;select IRP bank1
  7649  0FEB  0080               	movwf	0
  7650  0FEC  0A84               	incf	4,f
  7651  0FED  0875               	movf	vPutSampleDataIntoTable@uiSampleData+1,w
  7652  0FEE  0080               	movwf	0
  7653  0FEF  0008               	return
  7654  0FF0                     PL3:	
  7655  0FF0  0084               	movwf	4
  7656  0FF1  0874               	movf	vPutSampleDataIntoTable@uiSampleData,w
  7657  0FF2  1783               	bsf	3,7	;select IRP bank3
  7658  0FF3  0080               	movwf	0
  7659  0FF4  0A84               	incf	4,f
  7660  0FF5  0875               	movf	vPutSampleDataIntoTable@uiSampleData+1,w
  7661  0FF6  0080               	movwf	0
  7662  0FF7  0008               	return
  7663  0FF8                     PL5:	
  7664  0FF8  0084               	movwf	4
  7665  0FF9  1783               	bsf	3,7	;select IRP bank3
  7666  0FFA  0180               	clrf	0
  7667  0FFB  0A84               	incf	4,f
  7668  0FFC  0180               	clrf	0
  7669  0FFD  1003               	clrc
  7670  0FFE  0D77               	rlf	vPutSampleDataIntoTable@i,w
  7671  0FFF  0008               	return
  7672                           
  7673                           	psect	intentry
  7674  0004                     __pintentry:	
  7675                           ; Regs used in _ISR: [wreg-fsr0h+status,2+status,0+btemp+1+pclath+cstack]
  7676                           
  7677  0004                     interrupt_function:	
  7678  007E                     saved_w	set	btemp
  7679  0004  00FE               	movwf	btemp
  7680  0005  0E03               	swapf	3,w
  7681  0006  00F9               	movwf	??_ISR
  7682  0007  0804               	movf	4,w
  7683  0008  00FA               	movwf	??_ISR+1
  7684  0009  080A               	movf	10,w
  7685  000A  00FB               	movwf	??_ISR+2
  7686  000B  1283               	bcf	3,5	;RP0=0, select bank0
  7687  000C  1303               	bcf	3,6	;RP1=0, select bank0
  7688  000D  087F               	movf	btemp+1,w
  7689  000E  00FC               	movwf	??_ISR+3
  7690  000F  158A  2F17         	ljmp	_ISR
  7691                           
  7692                           	psect	text1036
  7693  0000                     __ptext1036:	
  7694 ;; =============== function _vPutSampleDataIntoTable ends ============
  7695                           
  7696  007E                     btemp	set	126	;btemp
  7697  007E                     wtemp0	set	126


HI-TECH Software PICC Macro Assembler V9.83 build 10920 
Symbol Table                                                                                   Fri Feb 14 19:50:47 2020

                               ??_clock_config 0020                                              pc 0002  
                                           _GO 00F9                                             fsr 0004  
                     ?_timer1_interrupt_config 0070                                            l700 059D  
                                          l710 05AD                                            l720 05BF  
                                          l705 05A5                                            l730 070D  
                                          l715 05B6                                            l740 062C  
                                          l725 0E1B                                            l813 00E4  
                                          l750 0E02                                            l735 0721  
                                          l833 013F                                            l755 0000  
                                          l691 0000                                            l772 005B  
                                          l837 0167                                            l694 0000  
                                          l758 0000                                            l697 0000  
                                          l972 0302                                            _PA0 0028  
                                          _PA1 0029                                            _GIE 005F  
                                          _PB0 0030                                            _PA2 002A  
                                          _PB1 0031                                            _PA3 002B  
                                          _PB2 0032                                            _PB4 0034  
                                          _PA6 002E                                            _PB6 0036  
                                          _PB7 0037                                            _ISR 0F17  
                         main@ucMoreThanP3sCnt 00C2                                            fsr0 0004  
                                          indf 0000                           main@ucMoreThanP8sCnt 00C3  
                               _ucChannel5Type 0054                         ??_startThreeHoursTimer 0022  
                                         S6291 081A                                           S6293 0828  
                                         S6295 0836                                           S6297 0800  
                                         ?_ISR 0070                             __size_of_AD_Sample 0022  
                       ?_getAdOriginalCh0Value 0046                         ?_getAdOriginalCh2Value 0046  
                                         l1107 0538                                           l2017 0000  
                                         l1059 044B                                           l1198 0625  
                                         l5001 0000                                           l5005 0000  
                                         l5021 0000                                           l5013 0000  
                                         l5101 0000                                           l5031 05F2  
                                         l5023 05E9                                           l5015 0000  
                                         l5103 0000                                           l5111 0000  
                                         l1913 0E09                                           l5009 0000  
                                         l5041 0000                                           l5033 0000  
                                         l5025 0000                                           l5017 05DC  
                                         l5105 0000                                           l5201 0000  
                                         l5121 0000                                           l5113 062F  
                                         l6001 0545                                           l1922 0000  
                                         l5043 0000                                           l5019 0000  
                                         l5211 0000                                           l5203 06AE  
                                         l5131 064C                                           l5123 063F  
                                         l1916 0000                                           l1940 0000  
                                         l1925 0000                                           l5053 0000  
                                         l5045 0000                                           l5037 0000  
                                         l5029 0000                                           l5109 0000  
                                         l5213 06BE                                           l5141 065F  
                                         l5117 0000                                           l5301 0079  
                                         l1934 0000                                           l1919 0000  
                                         l5055 0000                                           l5047 0606  
                                         l5039 05FB                                           l5063 0613  
                                         l1943 0000                                           l5231 06D7  
                                         l5223 0000                                           l5207 0000  
                                         l5143 0661                                           l5135 0000  
                                         l5127 0645                                           l5119 063C  
                                         l5311 008B                                           l5303 0000  
                                         l1928 0000                                           l2681 0000  
                                         l1881 0000                                           l1937 0000  
                                         l5057 0000                                           l5049 0000  
                                         l5065 0000                                           l5081 0EF0  
                                         l5073 0000                                           l5225 0000  
                                         l5217 0000                                           l5209 06BB  
                                         l5153 066F                                           l5401 0149  
                                         l5321 0000                                           l5313 008D  
                                         l5241 0000                                           l1971 0000  
                                         l2675 0000                                           l5059 0000  
                                         l5091 0EFE                                           l5227 0000  
                                         l5219 06CA                                           l5171 067D  
                                         l5163 0000                                           l5155 0000  
                                         l5147 0000                                           l5139 0000  
                                         l5235 06E8                                           l5331 00A4  
                                         l5323 0000                                           l5307 0087  
                                         l5251 0000                                           l5243 0000  
                                         l4701 0000                                           l5085 0EF6  
                                         l5077 0000                                           l5069 0000  
                                         l5093 0000                                           l5173 0000  
                                         l5149 0000                                           l5237 06F4  
                                         l5413 0165                                           l5405 0153  
                                         l5325 009D                                           l5317 0000  
                                         l5309 0000                                           l5261 0000  
                                         l5253 0000                                           l5245 0000  
                                         l1974 0000                                           l4703 0000  
                                         l4711 0000                                           l5095 0000  
                                         l5191 069D                                           l5183 0694  
                                         l5175 0000                                           l5167 0000  
                                         l5423 0177                                           l5415 0169  
                                         l5351 00C9                                           l5343 0000  
                                         l5319 009A                                           l5271 004B  
                                         l5255 0000                                           l5247 0000  
                                         l1968 0000                                           l1977 0000  
                                         l4705 0000                                           l4713 0000  
                                         l4721 0000                                           l5089 0EFD  
                                         l5097 0000                                           l5193 0000  
                                         l5185 0696                                           l5177 0000  
                                         l5169 0000                                           l5601 0251  
                                         l5505 01D9                                           l5417 016D  
                                         l5409 015C                                           l5353 0000  
                                         l5337 00B4                                           l5345 00BD  
                                         l5329 0000                                           l5281 005C  
                                         l5265 003E                                           l5257 0000  
                                         l5249 0000                                           l4707 0000  
                                         l4715 0000                                           l4723 0000  
                                         l4731 0000                                           l4803 0000  
                                         l4811 0000                                           l5099 0000  
                                         l5195 06A4                                           l5179 0688  
                                         l5611 0273                                           l5603 025D  
                                         l5515 01E2                                           l5427 0179  
                                         l5419 016F                                           l5363 0000  
                                         l5355 0000                                           l5339 00B5  
                                         l5291 0000                                           l5275 0000  
                                         l5259 0030                                           l4709 0000  
                                         l4717 0000                                           l4725 0000  
                                         l4733 0000                                           l4741 0000  
                                         l5189 0000                                           l5605 0269  
                                         l5525 01EB                                           l5429 017B  
                                         l5381 00FF                                           l5373 0000  
                                         l5365 00E7                                           l5357 00D5  
                                         l5349 00C5                                           l5285 0000  
                                         l5277 0052                                           l5269 004A  
                                         l4671 0000                                           l4719 0000  
                                         l4727 0000                                           l4735 0000  
                                         l4815 0000                                           l5199 06AA  
                                         l5711 0315                                           l5615 0275  
                                         l5607 026B                                           l5551 021C  
                                         l5535 0200                                           l5471 0000  
                                         l5439 0184                                           l5383 0000  
                                         l5375 00F7                                           l5367 0000  
                                         l5295 0000                                           l5279 0058  
                                         l4673 07C6                                           l4681 0000  
                                         l4737 0000                                           l4729 0000  
                                         l4761 0000                                           l4809 0000  
                                         l4817 0000                                           l4833 0000  
                                         l4841 0000                                           l5721 0325  
                                         l5713 0319                                           l5617 0277  
                                         l5561 0228                                           l5545 0206  
                                         l5537 0000                                           l5481 01BE  
                                         l5473 01B0                                           l5449 018D  
                                         l5393 011B                                           l5385 010A  
                                         l5369 0000                                           l5289 0000  
                                         l4667 0000                                           l4675 0000  
                                         l4683 0000                                           l4691 0000  
                                         l4739 0EDD                                           l4747 0000  
                                         l4763 0000                                           l4827 0000  
                                         l4835 0000                                           l4851 0000  
                                         l5803 0000                                           l5731 0000  
                                         l5707 0000                                           l5715 031E  
                                         l5651 02B4                                           l5627 0280  
                                         l5571 0231                                           l5555 0224  
                                         l5547 0212                                           l5483 01C2  
                                         l5459 0196                                           l5379 0000  
                                         l5299 0000                                           l4669 0000  
                                         l4677 0000                                           l4685 0000  
                                         l4693 0000                                           l4749 0000  
                                         l4861 0000                                           l5901 0478  
                                         l5821 0000                                           l5805 0000  
                                         l5813 03B1                                           l5741 0349  
                                         l5733 033D                                           l5725 032D  
                                         l5709 0000                                           l5661 02C0  
                                         l5653 02B6                                           l5637 028D  
                                         l5581 023A                                           l5549 021A  
                                         l5493 01CE                                           l5485 01C4  
                                         l5469 01AB                                           l5397 013A  
                                         l5389 0115                                           l4679 0000  
                                         l4687 0000                                           l4695 0000  
                                         l4767 0000                                           l4791 0000  
                                         l4839 0000                                           l4871 0758  
                                         l4863 0000                                           l5831 0000  
                                         l5823 03D4                                           l5807 0000  
                                         l5751 0000                                           l5815 03C3  
                                         l5735 0000                                           l5727 032F  
                                         l5663 02C2                                           l5647 0293  
                                         l5639 0000                                           l5591 024B  
                                         l5559 0226                                           l5495 01D0  
                                         l5479 01B2                                           _ADIE 046A  
                                         _ADIF 006A                                           l4689 0000  
                                         l4697 0000                                           l4769 0000  
                                         l4785 0000                                           l4793 0000  
                                         l4881 079B                                           l4857 0730  
                                         l4961 0000                                           l5913 0000  
                                         l5905 0484                                           l5833 03E1  
                                         l5825 0000                                           l5817 0000  
                                         l5809 0000                                           l5761 036D  
                                         l5753 0000                                           l5745 0350  
                                         l5737 0341                                           l5673 02C8  
                                         l5649 02A4                                           l5593 0000  
                                         l5489 01CC                                           l4699 0000  
                                         l4779 0000                                           l4787 0000  
                                         l4891 0000                                           l4883 0000  
                                         l4859 0000                                           l5931 0000  
                                         l5923 0000                                           l5915 0495  
                                         l5851 0000                                           l5827 03D7  
                                         l5771 0000                                           l5763 036F  
                                         l5843 03ED                                           l5755 035D  
                                         l5683 02CE                                           l5675 0000  
                                         l4893 0000                                           l4877 0799  
                                         l4965 0000                                           l5941 04BE  
                                         l5925 0000                                           l5933 04AC  
                                         l5917 0000                                           l5909 0487  
                                         l5861 0000                                           l5853 0000  
                                         l5837 0000                                           l5757 0360  
                                         l5749 0354                                           l5693 0000  
                                         l4879 0759                                           l5943 0000  
                                         l5927 0000                                           l5919 0498  
                                         l5863 0411                                           l5855 0408  
                                         l5847 03F7                                           l5839 0000  
                                         l5791 0000                                           l5783 0385  
                                         l5775 037D                                           l5695 02FA  
                                         l5687 02DC                                           l4897 0000  
                                         l5953 0000                                           l5945 04C1  
                                         l5929 0000                                           l5881 0000  
                                         l5865 0000                                           l5857 0000  
                                         l5849 0000                                           l5793 0396  
                                         l5769 0375                                           l5697 0000  
                                         l5689 02ED                                           l5963 04D4  
                                         l5955 0000                                           l5947 04C5  
                                         l5939 0000                                           l5883 0433  
                                         l5875 0428                                           l5867 041E  
                                         l5787 0000                                           l5779 0383  
                                         l5699 02FC                                           l5981 051B  
                                         l5973 0511                                           l5965 04E0  
                                         l5957 0000                                           l5949 04C7  
                                         l5885 0000                                           l5877 0000  
                                         l5869 0000                                           l5797 0000  
                                         l5789 0393                                           l5893 043E  
                                         l4999 05C1                                           l5991 0000  
                                         l5975 0513                                           l5967 0000  
                                         l5895 0000                                           l5887 0000  
                                         l5799 03A3                                           l5993 0000  
                                         l5985 0528                                           l5969 0504  
                                         l5897 0000                                           l5889 0000  
                                         l5987 052A                                           l5979 0000  
                                         l5899 0475                                           _ADON 00F8  
                                         l5997 0539                         ?_getAdOriginalCh5Value 0046  
                       ?_getAdOriginalCh6Value 0046                  startTwelveHourTimer@uiSetTime 0020  
                                         u1905 0753                                           u1915 077A  
                                         u1925 0766                                           u2565 012D  
                                         u2575 0138                                           _PEIE 005E  
                            main@ucPrefix2Step 00C4                                           _main 0013  
                                         btemp 007E                        _clearTwentySecondsTimer 07C0  
                                         start 0011                              main@ucTimerDelay1 005F  
                            main@ucTimerDelay2 0060                              main@ucTimerDelay3 0061  
                            main@ucTimerDelay4 0062                              main@ucTimerCntP3s 005D  
                            main@ucTimerCntP5s 00CA                                          ??_ISR 0079  
                   __end_of_isPermitSampleTime 0DFC                                  main@bInitFlag 0056  
                          _sampleChannelSelect 0051                                          ?_main 0070  
                                        _CLKPR 0108                                          _T1CON 0010  
                              __end_of_adc_get 0FE3                                          _PBOD7 0C47  
                                        _TMR1H 000F                                          _TMR1L 000E  
                        setAD_ConvertFlag@flag 0020                        _vPutSampleDataIntoTable 0F5E  
                              __end_of_initPin 0EC9                                          _timer 00AE  
                                        pclath 000A                __size_of_startTwentyMinuteTimer 0012  
   call_ADC4_STEP_FOURTH_PREFIX2@ucCompareStep 00AF                                          status 0003  
                                        wtemp0 007E                  __size_of_startTwelveHourTimer 0014  
                         __end_of_clrSampeTime 0800                          __end_of_clearAllTimer 05C8  
                           main@ucTimerCntLess 00C7                             main@ucTimerCntMore 005C  
                                 __end_of_main 0562                         __size_of_adc_test_init 0015  
                            __end_of_AD_Sample 0F02                                         ??_main 0048  
                         _clearPinPortAndTimer 0575                                         _ADCON0 001F  
                                       _ADCON1 009F                           __end_of_clock_config 0E0C  
                       main@ucTimerCntLessFlag 00C8                                         _ADRESH 001E  
                                       _ADRESL 009E                                         _CLKPCE 0847  
                                       i1l2024 0F2C                                         i1l2025 0F36  
                                       i1l2028 0F51                                         i1l1928 0000  
                                       i1l2684 0000                                         u203_25 0FD4  
                                       i1l4901 0000                                         i1l4911 0000  
                                       i1l4921 0F85                                         i1l4913 0F71  
                                       i1l4931 0000                                         i1l4923 0000  
                                       i1l4907 0000                                         i1l4933 0F97  
                                       i1l4925 0F89                                         i1l4909 0F6B  
                                       i1l4943 0000                                         i1l4935 0000  
                                       i1l4919 0000                                         i1l4945 0FA9  
                                       i1l4937 0F9B                                         i1l4955 0FB3  
                                       i1l4947 0000                                         i1l4971 0000  
                                       i1l4957 0000                                         i1l4949 0FAD  
                                       i1l4973 0000                                         i1l4959 0000  
                                       i1l4991 0000                                         i1l4967 0000  
                                       i1l4993 0000                                         i1l4977 0000  
                                       i1l4985 0F40                                         i1l4997 0000  
                                       i1l4989 0000                         main@ucTimerCntMoreFlag 00C9  
                    ??_clearTwentySecondsTimer 0020                                         _TMR1IE 0460  
                                       _TMR1IF 0060                         __size_of_setPB6AsInput 0003  
                            _getAD_ConvertFlag 0ED4                              _setAD_ConvertFlag 0ED8  
                                       _TRISA0 0428                                         _TRISA1 0429  
                                       _TRISB0 0430                                         _TRISA2 042A  
                                       _TRISB1 0431                                         _TRISA3 042B  
                                       _TRISB2 0432                                         _TRISB3 0433  
                                       _TRISB4 0434                                         _TRISA6 042E  
                                       _TRISB5 0435                                         _TRISA7 042F  
                                       _TRISB6 0436                                         _TRISB7 0437  
                                main@ucTimer1s 00C6                             ?_getAD_ConvertFlag 0070  
                                       _Filter 0729                             ?_setAD_ConvertFlag 0070  
                  ??_isFinishedThreeHoursTimer 0020            __end_of_isFinishedTwentyMinuteTimer 0E33  
                  _isFinishedTwentyMinuteTimer 0E27                  __size_of_clearThreeHoursTimer 0006  
                                    ??_adc_get 0072                            ??_getAD_ConvertFlag 0020  
                          ??_setAD_ConvertFlag 0020                         _startTwentyMinuteTimer 0E68  
                  __size_of_clearParaFunction1 0016                                         _setPA0 05AF  
                                       _setPA1 05B8                                         _setPA2 0E14  
                                       _setPB0 0597                                         _setPB1 059F  
                                       _setPA3 0706                                         _setPB2 05A7  
                                       _setPA6 0DFC                                         _setPB4 0626  
                                       _setPB6 0718  call_ADC4_STEP_FOURTH_PREFIX2@ucMoreThanP3sCnt 00B2  
call_ADC4_STEP_FOURTH_PREFIX2@ucMoreThanP8sCnt 00B3                                         clrloop 0E0D  
                             Filter@filter_buf 0026                               Filter@filter_sum 0040  
                                    ??_initPin 0020                        main@ucTimerDelayP2sLess 0063  
                      main@ucTimerDelayP2sMore 0064                      ??_vPutSampleDataIntoTable 0077  
                        ?_clearPinPortAndTimer 0070                                         saved_w 007E  
                      ??_clearTwelveHoursTimer 0020                    ?_process_AD_Converter_Value 0070  
                                _adc_test_init 0F02    call_ADC4_STEP_FOURTH_PREFIX2@ucTimerCntLess 00B6  
  call_ADC4_STEP_FOURTH_PREFIX2@ucTimerCntMore 00B7               __size_of_startTwentySecondsTimer 0011  
                    __end_of_getAD_ConvertFlag 0ED8                      __end_of_setAD_ConvertFlag 0EDD  
  vPutSampleDataIntoTable@ucChannelFifthLength 006B                             __size_of_adc_start 0003  
                               __pcstackCOMMON 0070                __end_of_clearTwentySecondsTimer 07C6  
                         _uiSampleChannelFifth 0190                                  _setPB6AsInput 0726  
                         _uiSampleChannelSixth 01A8     vPutSampleDataIntoTable@ucChannelZeroLength 006E  
                     ??_clearTwentyMinuteTimer 0020                 vPutSampleDataIntoTable@channel 0076  
                      ??_getAdOriginalCh0Value 0048                            main@ucTimerRightP5s 0068  
                    _isFinishedThreeHoursTimer 0E4B                        ??_getAdOriginalCh2Value 0048  
                      ??_getAdOriginalCh5Value 0048                          __end_of_timer1_config 0E27  
                      ??_getAdOriginalCh6Value 0048                                 ?_adc_test_init 0020  
   call_ADC4_STEP_FOURTH_PREFIX2@ucPrefix2Step 00B4               __size_of_timer1_interrupt_config 0003  
                       main@ucTimerLessZeroP5s 0066                          __size_of_clrSampeTime 0002  
                                   __pbssBANK0 004A                                     __pbssBANK1 00A0  
                                   __pbssBANK3 0190                   __size_ofi1_setAD_ConvertFlag 0004  
   call_ADC4_STEP_FOURTH_PREFIX2@ucTimerCntP5s 00B9                                     adc_get@val 0072  
              __end_of_vPutSampleDataIntoTable 0FD7                                        ?_Filter 0020  
                                   __pmaintext 0013                                 main@uiCh5Value 0048  
              ??_call_ADC4_STEP_FOURTH_PREFIX2 0048                ??_call_ADC4_STEP_FOURTH_PREFIX3 0021  
                                   __pintentry 0004                            main@enumInteralStep 00BC  
                                   __ptext1000 0729                                     __ptext1001 0E4B  
                                   __ptext1010 0E68                                     __ptext1002 0E8E  
                                   __ptext1011 0EDD                                     __ptext1003 0E3F  
                                   __ptext1020 0706                                     __ptext1012 0F02  
                                   __ptext1004 0E57                                     __ptext1021 0E14  
                                   __ptext1013 0DF3                                     __ptext1005 0E33  
                                   __ptext1030 05CE                                     __ptext1022 05B8  
                                   __ptext1014 0E1D                                     __ptext1006 0E7A  
                                   __ptext1031 05C8                                     __ptext1023 05AF  
                                   __ptext1015 0E04                                     __ptext1007 0E27  
                                   __ptext1032 0F17                                     __ptext1024 05A7  
                                   __ptext1016 0726                                     __ptext1008 07FE  
                                   __ptext1033 0FE3                                     __ptext1025 059F  
                                   __ptext1017 0DFC                                     __ptext1009 0DF6  
                                   __ptext1034 0FD7                                     __ptext1026 0597  
                                   __ptext1018 0626                                     __ptext1035 0F5E  
                                   __ptext1027 0EA2                                     __ptext1019 0718  
                                   __ptext1036 0000                                     __ptext1028 07C6  
                                   __ptext1029 07C0                                 ?_setPB6AsInput 0070  
                                      ?_setPA0 0070                                        ?_setPA1 0070  
                                      ?_setPA2 0070                                        ?_setPB0 0070  
                                      ?_setPA3 0070                                        ?_setPB1 0070  
                                      ?_setPB2 0070                                        ?_setPA6 0070  
                                      ?_setPB4 0070                                        ?_setPB6 0070  
                       ??_clearPinPortAndTimer 0020                          __size_of_clock_config 0008  
                                 _clrSampeTime 07FE                              __end_of_adc_start 0EE0  
                         _uiTwentySecondsTimer 00A6                             _isPermitSampleTime 0DF6  
                                      Filter@i 0045                                        Filter@j 0044  
                __size_of_startThreeHoursTimer 0014                     __size_of_getAD_ConvertFlag 0004  
                   __size_of_setAD_ConvertFlag 0005                                 main@ucTimerP3s 00CD  
                               main@ucTimerP5s 0067                            ?_isPermitSampleTime 0070  
                               main@uiMaxValue 00A8                                 main@uiMinValue 00AA  
                                 setPA0@bValue 0020                                 main@uiOldValue 004A  
                                 setPA1@bValue 0020                                __size_of_Filter 0097  
                                 setPA2@bValue 0020                                   setPB0@bValue 0020  
                                   _uiBigTimer 00A0                                   setPA3@bValue 0020  
                                 setPB1@bValue 0020                                   setPB2@bValue 0020  
                                 setPA6@bValue 0020                                   setPB4@bValue 0020  
                                 _clock_config 0E04                                        _adc_get 0FD7  
                                 setPB6@bValue 0020                                __size_of_setPA0 0009  
                              __size_of_setPA1 0009                                __size_of_setPB0 0008  
                              __size_of_setPA2 0009                                __size_of_setPB1 0008  
                              __size_of_setPA3 0009                                __size_of_setPB2 0008  
                              __size_of_setPB4 0008                                __size_of_setPA6 0008  
                              __size_of_setPB6 000E           __end_of_isFinishedTwentySecondsTimer 0E4B  
        __size_of_isFinishedTwentySecondsTimer 000C                   _isFinishedTwentySecondsTimer 0E3F  
                         ??_isPermitSampleTime 0020                   __end_of_startTwelveHourTimer 0E8E  
                                    _AD_Sample 0EE0                                   __size_of_ISR 0047  
              __size_of_clearTwentyMinuteTimer 0006                                        _initPin 0EA2  
                         _bSmallTimerStartFlag 004D                                ??_adc_test_init 0021  
                      _startTwentySecondsTimer 0E57                           end_of_initialization 07FB  
                            Filter@filter_temp 003E                        ?_startTwentyMinuteTimer 0070  
                             main@ucLoaderStep 0057                                ??_setPB6AsInput 0020  
                         main@ucLessThanP3sCnt 00C0                           main@ucLessThanP8sCnt 00C1  
        __end_of_call_ADC4_STEP_FOURTH_PREFIX2 06FC         __size_of_call_ADC4_STEP_FOURTH_PREFIX2 00CE  
                _call_ADC4_STEP_FOURTH_PREFIX2 062E          __end_of_call_ADC4_STEP_FOURTH_PREFIX3 0626  
       __size_of_call_ADC4_STEP_FOURTH_PREFIX3 0052                  _call_ADC4_STEP_FOURTH_PREFIX3 05D4  
                                   ?_AD_Sample 0070                  ?_isFinishedTwentySecondsTimer 0070  
                 ??_isFinishedTwelveHoursTimer 0020                                      Filter@cir 0042  
                          _bTwentyMinStartFlag 004E                               _adc_convert_flag 00AD  
                       __size_of_clearAllTimer 0007                   __end_of_clearThreeHoursTimer 05D4  
                      main@ucTimerLargeZeroP5s 0065                 __size_of_clearTwelveHoursTimer 0006  
                      _timer1_interrupt_config 0DF3                  __end_of_clearTwelveHoursTimer 05CE  
   call_ADC4_STEP_FOURTH_PREFIX3@ucPreFix3Step 00BA                               main@ucTimeCntP2s 00C5  
           __size_of_isFinishedThreeHoursTimer 000C                         _clearTwentyMinuteTimer 07C6  
               __end_of_startTwentyMinuteTimer 0E7A                               main@ucTimerX1P5s 00CE  
                             main@ucTimerX2P5s 00CF                         main@ucTimerZeroPoint3s 0069  
                       main@ucTimerZeroPoint5s 006A                               main@ucTimerDelay 005E  
                               __end_of_Filter 07C0                     __end_of_clearParaFunction1 0597  
                          _bTwentySecStartFlag 004F            __size_of_isFinishedTwelveHoursTimer 000C  
  vPutSampleDataIntoTable@ucChannelSixthLength 006D                       vPutSampleDataIntoTable@i 0077  
                          i1_setAD_ConvertFlag 0FE3                                 __end_of_setPA0 05B8  
                               __end_of_setPA1 05C1                                 __end_of_setPB0 059F  
                               __end_of_setPA2 0E1D                                 __end_of_setPB1 05A7  
                               __end_of_setPA3 070F                                 __end_of_setPB2 05AF  
                               __end_of_setPB4 062E                                 __end_of_setPA6 0E04  
                               __end_of_setPB6 0726                      ??_startTwentySecondsTimer 0020  
                          start_initialization 07E7                                    __end_of_ISR 0F5E  
                         main@ucTimerLessX1P5s 00CB                           main@ucTimerLessX2P5s 00CC  
               __size_of_getAdOriginalCh0Value 0009                       ?_clearTwentySecondsTimer 0070  
               __size_of_getAdOriginalCh2Value 000A                          _uiSampleChannelSecond 00D0  
                __end_of_getAdOriginalCh0Value 0575                  __end_of_getAdOriginalCh2Value 0706  
               __size_of_getAdOriginalCh5Value 000A                 __size_of_getAdOriginalCh6Value 0009  
                __end_of_getAdOriginalCh5Value 056C                  __end_of_getAdOriginalCh6Value 0718  
                         ?i1_setAD_ConvertFlag 0070                           _startTwelveHourTimer 0E7A  
            __end_of_isFinishedThreeHoursTimer 0E57                             main@enumBranchStep 00BB  
                                     ??_Filter 0022                                  _clearAllTimer 05C1  
                                  _ucADC4_Step 0053                                       ??_setPA0 0020  
                                     ??_setPA1 0020                                       ??_setPA2 0020  
                                     ??_setPB0 0020                                       ??_setPA3 0020  
                                     ??_setPB1 0020                                       ??_setPB2 0020  
                                     ??_setPA6 0020                                       ??_setPB4 0020  
                                     ??_setPB6 0020                       ?_vPutSampleDataIntoTable 0074  
                   main@ucDelayPrefix4TimerP5s 00BD                                    ??_AD_Sample 0023  
                    ??_timer1_interrupt_config 0020                     main@ucDelayPrefix6TimerP2s 00BE  
                                  __pbssCOMMON 007D                                  __pcstackBANK0 0020  
               ?_call_ADC4_STEP_FOURTH_PREFIX2 0070                 ?_call_ADC4_STEP_FOURTH_PREFIX3 0070  
               ??_isFinishedTwentySecondsTimer 0020                                      _adc_start 0EDD  
                             _enumMainLoopStep 0050                            _uiSampleChannelZero 01C0  
    call_ADC4_STEP_FOURTH_PREFIX2@ucTimeCntP2s 00B5                          ??i1_setAD_ConvertFlag 0070  
                        ?_startTwelveHourTimer 0020                __end_of_startTwentySecondsTimer 0E68  
                               ?_clearAllTimer 0070      call_ADC4_STEP_FOURTH_PREFIX2@ucTimerCntN1 00B8  
                       __size_of_timer1_config 000A                           _clearThreeHoursTimer 05CE  
call_ADC4_STEP_FOURTH_PREFIX2@ucLessThanP3sCnt 00B0                   __end_of_startThreeHoursTimer 0EA2  
call_ADC4_STEP_FOURTH_PREFIX2@ucLessThanP8sCnt 00B1                                      __ptext990 0575  
                                    __ptext991 0EE0                                      __ptext992 06FC  
                                    __ptext993 05D4                                      __ptext994 0562  
                                    __ptext986 0000                                      __ptext995 070F  
                                    __ptext987 062E                                      __ptext996 056C  
                                    __ptext988 0EC9                                      __ptext997 05C1  
                                    __ptext989 0581                                      __ptext998 0ED8  
                                    __ptext999 0ED4                            _uiTwentyMinuteTimer 00A4  
                                     ?_adc_get 0070                                      __pswtext1 081A  
                                    __pswtext2 0828                                      __pswtext3 0836  
                                    __pswtext4 0800             __end_of_isFinishedTwelveHoursTimer 0E3F  
                   _isFinishedTwelveHoursTimer 0E33                                ISR@ucTimer1sCnt 00AC  
                                     ?_initPin 0070                  __size_of_clearPinPortAndTimer 000C  
                                   ?_adc_start 0070                              interrupt_function 0004  
              __end_of_timer1_interrupt_config 0DF6                          ?_clearThreeHoursTimer 0070  
                 ?_isFinishedTwentyMinuteTimer 0070                           adc_test_init@channel 0022  
          vPutSampleDataIntoTable@uiSampleData 0074                    __size_of_isPermitSampleTime 0006  
                                 _uiSmallTimer 00A2                          __end_of_adc_test_init 0F17  
                                _timer1_config 0E1D                   ??_process_AD_Converter_Value 0023  
                      ?_clearTwentyMinuteTimer 0070                         ??_startTwelveHourTimer 0022  
    call_ADC4_STEP_FOURTH_PREFIX3@ucPrefix3Cnt 007D                                ??_clearAllTimer 0020  
                  main@ucFourthSuffix1TimerP3s 00BF                  ??_isFinishedTwentyMinuteTimer 0020  
                        __end_of_setPB6AsInput 0729                               __size_of_adc_get 000C  
          __size_of_process_AD_Converter_Value 000B                             _clearParaFunction1 0581  
                             __size_of_initPin 0027                                 Filter@tmpValue 0020  
                               ?_timer1_config 0070                 __end_of_clearTwentyMinuteTimer 07CC  
                                  ??_adc_start 0020   vPutSampleDataIntoTable@ucChannelSecondLength 006C  
                         _startThreeHoursTimer 0E8E                            ?_clearParaFunction1 0070  
                        _clearTwelveHoursTimer 05C8                                  __size_of_main 054F  
                                     clear_ram 0E0C                         ??_clearThreeHoursTimer 0020  
             __size_of_clearTwentySecondsTimer 0006                           ??_clearParaFunction1 0021  
                                ?_clrSampeTime 0070                                    _sampleTimes 0052  
         __size_of_isFinishedTwentyMinuteTimer 000C                          ?_startThreeHoursTimer 0020  
             __size_of_vPutSampleDataIntoTable 0079                                       intlevel1 0000  
                        _getAdOriginalCh0Value 056C                          _getAdOriginalCh2Value 06FC  
                        _getAdOriginalCh5Value 0562                          _getAdOriginalCh6Value 070F  
                   ?_isFinishedThreeHoursTimer 0070                              main@ucLoaderStep1 0058  
                            main@ucLoaderStep2 0059                              main@ucLoaderStep3 005A  
                            main@ucLoaderStep4 005B                                  ?_clock_config 0070  
      call_ADC4_STEP_FOURTH_PREFIX3@bClearStep 0021                       ?_startTwentySecondsTimer 0070  
                startThreeHoursTimer@uiSetTime 0020                        i1setAD_ConvertFlag@flag 0070  
                               ??_clrSampeTime 0020                    ?_isFinishedTwelveHoursTimer 0070  
                           _bBigTimerStartFlag 004C                                ??_timer1_config 0020  
                            main@bCheckTweHour 0055                    __end_ofi1_setAD_ConvertFlag 0FE7  
           __end_of_process_AD_Converter_Value 0ED4                     _process_AD_Converter_Value 0EC9  
                       ?_clearTwelveHoursTimer 0070                       ??_startTwentyMinuteTimer 0020  
                             adc_test_init@ref 0020                   __end_of_clearPinPortAndTimer 0581  
