

HI-TECH Software PIC PRO Macro Assembler V9.83 build 10920 
                                                                                               Tue Jun 25 15:43:57 2019

HI-TECH Software Omniscient Code Generator (PRO mode) build 10920
     1                           	processor	16C77
     2                           	opt	pw 120
     3                           	opt	pm
     4                           	psect	config,global,class=CONFIG,delta=2
     5                           	psect	idataBANK0,global,class=CODE,delta=2
     6                           	psect	cinit,global,class=CODE,delta=2
     7                           	psect	bssCOMMON,global,class=COMMON,space=1,delta=1
     8                           	psect	bssBANK0,global,class=BANK0,space=1,delta=1
     9                           	psect	dataBANK0,global,class=BANK0,space=1,delta=1
    10                           	psect	bssBANK1,global,class=BANK1,space=1,delta=1
    11                           	psect	clrtext,global,class=CODE,delta=2
    12                           	psect	cstackCOMMON,global,class=COMMON,space=1,delta=1
    13                           	psect	cstackBANK0,global,class=BANK0,space=1,delta=1
    14                           	psect	maintext,global,class=CODE,delta=2
    15                           	psect	swtext1,local,class=CONST,delta=2
    16                           	psect	swtext2,local,class=CONST,delta=2
    17                           	psect	swtext3,local,class=CONST,delta=2
    18                           	psect	text734,local,class=CODE,delta=2
    19                           	psect	text735,local,class=CODE,delta=2
    20                           	psect	text738,local,class=CODE,delta=2
    21                           	psect	text744,local,class=CODE,delta=2
    22                           	psect	text745,local,class=CODE,delta=2
    23                           	psect	text746,local,class=CODE,delta=2
    24                           	psect	text747,local,class=CODE,delta=2
    25                           	psect	text748,local,class=CODE,delta=2
    26                           	psect	text749,local,class=CODE,delta=2
    27                           	psect	text750,local,class=CODE,delta=2
    28                           	psect	text751,local,class=CODE,delta=2
    29                           	psect	text753,local,class=CODE,delta=2
    30                           	psect	text754,local,class=CODE,delta=2
    31                           	psect	text755,local,class=CODE,delta=2
    32                           	psect	text757,local,class=CODE,delta=2
    33                           	psect	text758,local,class=CODE,delta=2
    34                           	psect	text759,local,class=CODE,delta=2
    35                           	psect	text760,local,class=CODE,delta=2
    36                           	psect	text764,local,class=CODE,delta=2
    37                           	psect	intentry,global,class=CODE,delta=2
    38                           	psect	text768,local,class=CODE,delta=2
    39                           	psect	pa_nodes,global,class=CODE,delta=2
    40                           	dabs	1,0x7E,2
    41  000A                     	;#
    42                           
    43                           	psect	config
    44  2000  2FFF               	dw	12287	;#
    45  2001  3FDE               	dw	16350	;#
    46  2002  3FF8               	dw	16376	;#
    47                           
    48                           	psect	idataBANK0
    49  0000                     __pidataBANK0:	
    50  001F                     _ADCON0	set	31
    51  001E                     _ADRESH	set	30
    52  001B                     _OP1CON0	set	27
    53  001C                     _OP1CON1	set	28
    54  001D                     _OP1CON2	set	29
    55  0010                     _T1CON	set	16
    56  000F                     _TMR1H	set	15
    57  000E                     _TMR1L	set	14
    58  006A                     _ADIF	set	106
    59  00F8                     _ADON	set	248
    60  005F                     _GIE	set	95
    61  00F9                     _GO	set	249
    62  0028                     _PA0	set	40
    63  0029                     _PA1	set	41
    64  002A                     _PA2	set	42
    65  002B                     _PA3	set	43
    66  002E                     _PA6	set	46
    67  002F                     _PA7	set	47
    68  0030                     _PB0	set	48
    69  0031                     _PB1	set	49
    70  0036                     _PB6	set	54
    71  005E                     _PEIE	set	94
    72  0060                     _TMR1IF	set	96
    73  009F                     _ADCON1	set	159
    74  009E                     _ADRESL	set	158
    75  0087                     _DACCON	set	135
    76  0088                     _DACR0	set	136
    77  009B                     _OP2CON0	set	155
    78  009C                     _OP2CON1	set	156
    79  009D                     _OP2CON2	set	157
    80  046A                     _ADIE	set	1130
    81  0460                     _TMR1IE	set	1120
    82  0428                     _TRISA0	set	1064
    83  0429                     _TRISA1	set	1065
    84  042A                     _TRISA2	set	1066
    85  042B                     _TRISA3	set	1067
    86  042E                     _TRISA6	set	1070
    87  042F                     _TRISA7	set	1071
    88  0430                     _TRISB0	set	1072
    89  0431                     _TRISB1	set	1073
    90  0432                     _TRISB2	set	1074
    91  0433                     _TRISB3	set	1075
    92  0434                     _TRISB4	set	1076
    93  0435                     _TRISB5	set	1077
    94  0436                     _TRISB6	set	1078
    95  0437                     _TRISB7	set	1079
    96  0108                     _CLKPR	set	264
    97  0847                     _CLKPCE	set	2119
    98  0C3F                     _PAOD7	set	3135
    99  0C46                     _PBOD6	set	3142
   100                           
   101                           	psect	cinit
   102  0572                     start_initialization:	
   103  0572  3049               	movlw	low __pbssBANK0
   104                           
   105                           ; Clear objects allocated to COMMON
   106  0573  01FD               	clrf	__pbssCOMMON& (0+127)
   107                           
   108                           ; Clear objects allocated to BANK0
   109  0574  1383               	bcf	3,7	;select IRP bank0
   110  0575  0084               	movwf	4
   111  0576  306E               	movlw	low (__pbssBANK0+37)
   112  0577  118A  25DD  118A   	fcall	clear_ram
   113                           
   114                           ; Clear objects allocated to BANK1
   115  057A  30A0               	movlw	low __pbssBANK1
   116  057B  0084               	movwf	4
   117  057C  30EE               	movlw	low (__pbssBANK1+78)
   118  057D  118A  25DD         	fcall	clear_ram
   119                           
   120                           ;initializer for _sampleChannelSelect
   121  057F  300E               	movlw	14
   122  0580  00EE               	movwf	__pdataBANK0& (0+127)
   123  0581                     end_of_initialization:	
   124                           ;End of C runtime variable initialization code
   125                           
   126  0581  0183               	clrf	3
   127  0582  118A  2813         	ljmp	_main	;jump to C main() function
   128                           
   129                           	psect	bssCOMMON
   130  007D                     __pbssCOMMON:	
   131  007D                     vPutSampleDataIntoTable@ucChannelFirstLength:	
   132  007D                     	ds	1
   133                           
   134                           	psect	bssBANK0
   135  0049                     __pbssBANK0:	
   136  0049                     ISR@ucTimer1sCnt:	
   137  0049                     	ds	1
   138  004A                     _adc_convert_flag:	
   139  004A                     	ds	1
   140  004B                     _sampleTimes:	
   141  004B                     	ds	1
   142  004C                     _timer:	
   143  004C                     	ds	1
   144  004D                     main@cTimer1s_815:	
   145  004D                     	ds	1
   146  004E                     main@enumBranchStep:	
   147  004E                     	ds	1
   148  004F                     main@enumInteralStep:	
   149  004F                     	ds	1
   150  0050                     main@enumMainLoopStep:	
   151  0050                     	ds	1
   152  0051                     main@ucADC4_Step:	
   153  0051                     	ds	1
   154  0052                     main@ucChannel4Type:	
   155  0052                     	ds	1
   156  0053                     main@ucLoaderStep:	
   157  0053                     	ds	1
   158  0054                     main@ucLoaderStep1:	
   159  0054                     	ds	1
   160  0055                     main@ucLoaderStep2:	
   161  0055                     	ds	1
   162  0056                     main@ucLoaderStep3:	
   163  0056                     	ds	1
   164  0057                     main@ucLoaderStep4:	
   165  0057                     	ds	1
   166  0058                     main@ucTimer1s:	
   167  0058                     	ds	1
   168  0059                     main@ucTimer20s:	
   169  0059                     	ds	1
   170  005A                     main@ucTimerADC1ZeroP5s:	
   171  005A                     	ds	1
   172  005B                     main@ucTimerDelay:	
   173  005B                     	ds	1
   174  005C                     main@ucTimerDelay1:	
   175  005C                     	ds	1
   176  005D                     main@ucTimerDelay2:	
   177  005D                     	ds	1
   178  005E                     main@ucTimerDelay3:	
   179  005E                     	ds	1
   180  005F                     main@ucTimerDelay4:	
   181  005F                     	ds	1
   182  0060                     main@ucTimerDelayP5s:	
   183  0060                     	ds	1
   184  0061                     main@ucTimerLessADC1ZeroP5s:	
   185  0061                     	ds	1
   186  0062                     main@ucTimerLessX1P5s:	
   187  0062                     	ds	1
   188  0063                     main@ucTimerLessX2P5s:	
   189  0063                     	ds	1
   190  0064                     main@ucTimerP3s:	
   191  0064                     	ds	1
   192  0065                     main@ucTimerP5s:	
   193  0065                     	ds	1
   194  0066                     main@ucTimerRightP5s:	
   195  0066                     	ds	1
   196  0067                     main@ucTimerSeond1s:	
   197  0067                     	ds	1
   198  0068                     main@ucTimerX1P5s:	
   199  0068                     	ds	1
   200  0069                     main@ucTimerX2P5s:	
   201  0069                     	ds	1
   202  006A                     main@ucTimerZeroPoint3s:	
   203  006A                     	ds	1
   204  006B                     main@ucTimerZeroPoint5s:	
   205  006B                     	ds	1
   206  006C                     vPutSampleDataIntoTable@ucChannelFourteenthLength:	
   207  006C                     	ds	1
   208  006D                     vPutSampleDataIntoTable@ucChannelFourthLength:	
   209  006D                     	ds	1
   210                           
   211                           	psect	dataBANK0
   212  006E                     __pdataBANK0:	
   213  006E                     _sampleChannelSelect:	
   214  006E                     	ds	1
   215                           
   216                           	psect	bssBANK1
   217  00A0                     __pbssBANK1:	
   218  00A0                     _uiBigTimer:	
   219  00A0                     	ds	2
   220  00A2                     _uiSmallTimer:	
   221  00A2                     	ds	2
   222  00A4                     _uiTwentySecondsTimer:	
   223  00A4                     	ds	2
   224  00A6                     _uiSampleChannelFirst:	
   225  00A6                     	ds	24
   226  00BE                     _uiSampleChannelFourteenth:	
   227  00BE                     	ds	24
   228  00D6                     _uiSampleChannelFourth:	
   229  00D6                     	ds	24
   230                           
   231                           	psect	clrtext
   232  05DD                     clear_ram:	
   233                           ;	Called with FSR containing the base address, and
   234                           ;	W with the last address+1
   235                           
   236  05DD  0064               	clrwdt	;clear the watchdog before getting into this loop
   237  05DE                     clrloop:	
   238  05DE  0180               	clrf	0	;clear RAM location pointed to by FSR
   239  05DF  0A84               	incf	4,f	;increment pointer
   240  05E0  0604               	xorwf	4,w	;XOR with final address
   241  05E1  1903               	btfsc	3,2	;have we reached the end yet?
   242  05E2  3400               	retlw	0	;all done for this memory range, return
   243  05E3  0604               	xorwf	4,w	;XOR again to restore value
   244  05E4  2DDE               	goto	clrloop	;do the next byte
   245                           
   246                           	psect	cstackCOMMON
   247  0070                     __pcstackCOMMON:	
   248  0070                     ?_clearTwelveHoursTimer:	
   249  0070                     ?_clearThreeHoursTimer:	
   250                           ; 0 bytes @ 0x0
   251                           
   252  0070                     ?_clearTwentySecondsTimer:	
   253                           ; 0 bytes @ 0x0
   254                           
   255  0070                     ?_clock_config:	
   256                           ; 0 bytes @ 0x0
   257                           
   258  0070                     ?_timer1_config:	
   259                           ; 0 bytes @ 0x0
   260                           
   261  0070                     ?_timer1_interrupt_config:	
   262                           ; 0 bytes @ 0x0
   263                           
   264  0070                     ?_dac_init:	
   265                           ; 0 bytes @ 0x0
   266                           
   267  0070                     ?_op1_init:	
   268                           ; 0 bytes @ 0x0
   269                           
   270  0070                     ?_op2_init:	
   271                           ; 0 bytes @ 0x0
   272                           
   273  0070                     ?_adc_start:	
   274                           ; 0 bytes @ 0x0
   275                           
   276  0070                     ?_process_AD_Converter_Value:	
   277                           ; 0 bytes @ 0x0
   278                           
   279  0070                     ?_clrSampeTime:	
   280                           ; 0 bytes @ 0x0
   281                           
   282  0070                     ?_startTwentySecondsTimer:	
   283                           ; 0 bytes @ 0x0
   284                           
   285  0070                     ?_AD_Sample:	
   286                           ; 0 bytes @ 0x0
   287                           
   288  0070                     ?_clearAllTimer:	
   289                           ; 0 bytes @ 0x0
   290                           
   291  0070                     ?_clearPinPortAndTimer:	
   292                           ; 0 bytes @ 0x0
   293                           
   294  0070                     ?_initPin:	
   295                           ; 0 bytes @ 0x0
   296                           
   297  0070                     ?_main:	
   298                           ; 0 bytes @ 0x0
   299                           
   300  0070                     ?_setAD_ConvertFlag:	
   301                           ; 0 bytes @ 0x0
   302                           
   303  0070                     ?_ISR:	
   304                           ; 0 bytes @ 0x0
   305                           
   306  0070                     ?i1_setAD_ConvertFlag:	
   307                           ; 0 bytes @ 0x0
   308                           
   309  0070                     ??i1_setAD_ConvertFlag:	
   310                           ; 0 bytes @ 0x0
   311                           
   312  0070                     ?_isPermitSampleTime:	
   313                           ; 0 bytes @ 0x0
   314                           
   315  0070                     ?_isFinishedTwelveHoursTimer:	
   316                           ; 1 bytes @ 0x0
   317                           
   318  0070                     ?_isFinishedTwentySecondsTimer:	
   319                           ; 1 bytes @ 0x0
   320                           
   321  0070                     ?_isFinishedThreeHoursTimer:	
   322                           ; 1 bytes @ 0x0
   323                           
   324  0070                     ?_getAD_ConvertFlag:	
   325                           ; 1 bytes @ 0x0
   326                           
   327  0070                     ?_adc_get:	
   328                           ; 1 bytes @ 0x0
   329                           
   330  0070                     i1setAD_ConvertFlag@flag:	
   331                           ; 2 bytes @ 0x0
   332                           
   333                           
   334                           ; 1 bytes @ 0x0
   335  0070                     	ds	2
   336  0072                     ??_adc_get:	
   337  0072                     adc_get@val:	
   338                           ; 0 bytes @ 0x2
   339                           
   340                           
   341                           ; 2 bytes @ 0x2
   342  0072                     	ds	2
   343  0074                     ?_vPutSampleDataIntoTable:	
   344  0074                     vPutSampleDataIntoTable@uiSampleData:	
   345                           ; 0 bytes @ 0x4
   346                           
   347                           
   348                           ; 2 bytes @ 0x4
   349  0074                     	ds	2
   350  0076                     vPutSampleDataIntoTable@channel:	
   351                           
   352                           ; 1 bytes @ 0x6
   353  0076                     	ds	1
   354  0077                     ??_vPutSampleDataIntoTable:	
   355  0077                     vPutSampleDataIntoTable@i:	
   356                           ; 0 bytes @ 0x7
   357                           
   358                           
   359                           ; 2 bytes @ 0x7
   360  0077                     	ds	2
   361  0079                     ??_ISR:	
   362                           
   363                           ; 0 bytes @ 0x9
   364  0079                     	ds	4
   365                           
   366                           	psect	cstackBANK0
   367  0020                     __pcstackBANK0:	
   368  0020                     ??_clearTwelveHoursTimer:	
   369  0020                     ??_clearThreeHoursTimer:	
   370                           ; 0 bytes @ 0x0
   371                           
   372  0020                     ??_clearTwentySecondsTimer:	
   373                           ; 0 bytes @ 0x0
   374                           
   375  0020                     ??_clock_config:	
   376                           ; 0 bytes @ 0x0
   377                           
   378  0020                     ??_timer1_config:	
   379                           ; 0 bytes @ 0x0
   380                           
   381  0020                     ??_timer1_interrupt_config:	
   382                           ; 0 bytes @ 0x0
   383                           
   384  0020                     ?_adc_test_init:	
   385                           ; 0 bytes @ 0x0
   386                           
   387  0020                     ??_dac_init:	
   388                           ; 0 bytes @ 0x0
   389                           
   390  0020                     ??_op1_init:	
   391                           ; 0 bytes @ 0x0
   392                           
   393  0020                     ??_op2_init:	
   394                           ; 0 bytes @ 0x0
   395                           
   396  0020                     ??_adc_start:	
   397                           ; 0 bytes @ 0x0
   398                           
   399  0020                     ??_isPermitSampleTime:	
   400                           ; 0 bytes @ 0x0
   401                           
   402  0020                     ??_clrSampeTime:	
   403                           ; 0 bytes @ 0x0
   404                           
   405  0020                     ?_startTwelveHourTimer:	
   406                           ; 0 bytes @ 0x0
   407                           
   408  0020                     ??_isFinishedTwelveHoursTimer:	
   409                           ; 0 bytes @ 0x0
   410                           
   411  0020                     ??_startTwentySecondsTimer:	
   412                           ; 0 bytes @ 0x0
   413                           
   414  0020                     ??_isFinishedTwentySecondsTimer:	
   415                           ; 0 bytes @ 0x0
   416                           
   417  0020                     ?_startThreeHoursTimer:	
   418                           ; 0 bytes @ 0x0
   419                           
   420  0020                     ??_isFinishedThreeHoursTimer:	
   421                           ; 0 bytes @ 0x0
   422                           
   423  0020                     ??_AD_Sample:	
   424                           ; 0 bytes @ 0x0
   425                           
   426  0020                     ??_clearAllTimer:	
   427                           ; 0 bytes @ 0x0
   428                           
   429  0020                     ??_clearPinPortAndTimer:	
   430                           ; 0 bytes @ 0x0
   431                           
   432  0020                     ??_initPin:	
   433                           ; 0 bytes @ 0x0
   434                           
   435  0020                     ??_getAD_ConvertFlag:	
   436                           ; 0 bytes @ 0x0
   437                           
   438  0020                     ??_setAD_ConvertFlag:	
   439                           ; 0 bytes @ 0x0
   440                           
   441  0020                     ?_Filter:	
   442                           ; 0 bytes @ 0x0
   443                           
   444  0020                     setAD_ConvertFlag@flag:	
   445                           ; 2 bytes @ 0x0
   446                           
   447  0020                     adc_test_init@ref:	
   448                           ; 1 bytes @ 0x0
   449                           
   450  0020                     startTwelveHourTimer@uiSetTime:	
   451                           ; 1 bytes @ 0x0
   452                           
   453  0020                     startThreeHoursTimer@uiSetTime:	
   454                           ; 2 bytes @ 0x0
   455                           
   456                           
   457                           ; 2 bytes @ 0x0
   458  0020                     	ds	1
   459  0021                     ??_adc_test_init:	
   460                           
   461                           ; 0 bytes @ 0x1
   462  0021                     	ds	1
   463  0022                     ??_startTwelveHourTimer:	
   464  0022                     ??_startThreeHoursTimer:	
   465                           ; 0 bytes @ 0x2
   466                           
   467  0022                     ??_Filter:	
   468                           ; 0 bytes @ 0x2
   469                           
   470  0022                     adc_test_init@channel:	
   471                           ; 0 bytes @ 0x2
   472                           
   473                           
   474                           ; 1 bytes @ 0x2
   475  0022                     	ds	1
   476  0023                     ??_process_AD_Converter_Value:	
   477                           
   478                           ; 0 bytes @ 0x3
   479  0023                     	ds	3
   480  0026                     Filter@filter_buf:	
   481                           
   482                           ; 24 bytes @ 0x6
   483  0026                     	ds	24
   484  003E                     Filter@filter_temp:	
   485                           
   486                           ; 2 bytes @ 0x1E
   487  003E                     	ds	2
   488  0040                     Filter@filter_sum:	
   489                           
   490                           ; 2 bytes @ 0x20
   491  0040                     	ds	2
   492  0042                     Filter@tmpValue:	
   493                           
   494                           ; 1 bytes @ 0x22
   495  0042                     	ds	1
   496  0043                     Filter@cir:	
   497                           
   498                           ; 2 bytes @ 0x23
   499  0043                     	ds	2
   500  0045                     Filter@j:	
   501                           
   502                           ; 1 bytes @ 0x25
   503  0045                     	ds	1
   504  0046                     Filter@i:	
   505                           
   506                           ; 1 bytes @ 0x26
   507  0046                     	ds	1
   508  0047                     ?_getAdOriginalCh14Value:	
   509  0047                     ?_getAdOriginalCh1Value:	
   510                           ; 2 bytes @ 0x27
   511                           
   512  0047                     ?_getAdOriginaCh4Value:	
   513                           ; 2 bytes @ 0x27
   514                           
   515                           
   516                           ; 2 bytes @ 0x27
   517  0047                     	ds	2
   518  0049                     ??_getAdOriginalCh14Value:	
   519  0049                     ??_getAdOriginalCh1Value:	
   520                           ; 0 bytes @ 0x29
   521                           
   522  0049                     ??_getAdOriginaCh4Value:	
   523                           ; 0 bytes @ 0x29
   524                           
   525  0049                     ??_main:	
   526                           ; 0 bytes @ 0x29
   527                           
   528                           
   529                           	psect	maintext
   530  0013                     __pmaintext:	
   531                           ; 0 bytes @ 0x29
   532 ;;Data sizes: Strings 0, constant 0, data 1, bss 116, persistent 0 stack 0
   533 ;;Auto spaces:   Size  Autos    Used
   534 ;; COMMON          14     13      14
   535 ;; BANK0           80     41      79
   536 ;; BANK1           80      0      78
   537 ;; BANK3           96      0       0
   538 ;; BANK2           96      0       0
   539 ;;
   540 ;; Pointer list with targets:
   541 ;; ?_adc_get	unsigned int  size(1) Largest target is 0
   542 ;;
   543 ;; ?_getAdOriginalCh14Value	unsigned int  size(1) Largest target is 0
   544 ;;
   545 ;; ?_getAdOriginaCh4Value	unsigned int  size(1) Largest target is 0
   546 ;;
   547 ;; ?_getAdOriginalCh1Value	unsigned int  size(1) Largest target is 0
   548 ;;
   549 ;; ?_Filter	unsigned int  size(1) Largest target is 0
   550 ;;
   551 ;; Filter@tmpValue	PTR int  size(1) Largest target is 24
   552 ;;		 -> uiSampleChannelFourteenth(BANK1[24]), uiSampleChannelFourth(BANK1[24]), uiSampleChannelFirst(BANK1[24]), 
   553 ;;
   554 ;;
   555 ;; Critical Paths under _main in COMMON
   556 ;;
   557 ;;   None.
   558 ;;
   559 ;; Critical Paths under _ISR in COMMON
   560 ;;
   561 ;;   _ISR->_vPutSampleDataIntoTable
   562 ;;   _vPutSampleDataIntoTable->_adc_get
   563 ;;
   564 ;; Critical Paths under _main in BANK0
   565 ;;
   566 ;;   _main->_getAdOriginalCh14Value
   567 ;;   _main->_getAdOriginalCh1Value
   568 ;;   _main->_getAdOriginaCh4Value
   569 ;;   _getAdOriginaCh4Value->_Filter
   570 ;;   _getAdOriginalCh1Value->_Filter
   571 ;;   _getAdOriginalCh14Value->_Filter
   572 ;;   _process_AD_Converter_Value->_adc_test_init
   573 ;;
   574 ;; Critical Paths under _ISR in BANK0
   575 ;;
   576 ;;   None.
   577 ;;
   578 ;; Critical Paths under _main in BANK1
   579 ;;
   580 ;;   None.
   581 ;;
   582 ;; Critical Paths under _ISR in BANK1
   583 ;;
   584 ;;   None.
   585 ;;
   586 ;; Critical Paths under _main in BANK3
   587 ;;
   588 ;;   None.
   589 ;;
   590 ;; Critical Paths under _ISR in BANK3
   591 ;;
   592 ;;   None.
   593 ;;
   594 ;; Critical Paths under _main in BANK2
   595 ;;
   596 ;;   None.
   597 ;;
   598 ;; Critical Paths under _ISR in BANK2
   599 ;;
   600 ;;   None.
   601 ;;
   602 ;;Main: autosize = 0, tempsize = 0, incstack = 0, save=0
   603 ;;
   604 ;;
   605 ;;Call Graph Tables:
   606 ;;
   607 ;; ---------------------------------------------------------------------------------
   608 ;; (Depth) Function   	        Calls       Base Space   Used Autos Params    Refs
   609 ;; ---------------------------------------------------------------------------------
   610 ;; (0) _main                                                 0     0      0    2014
   611 ;;                            _initPin
   612 ;;                       _clock_config
   613 ;;                      _timer1_config
   614 ;;            _timer1_interrupt_config
   615 ;;                      _adc_test_init
   616 ;;                           _dac_init
   617 ;;                           _op1_init
   618 ;;                           _op2_init
   619 ;;                          _adc_start
   620 ;;         _process_AD_Converter_Value
   621 ;;                 _isPermitSampleTime
   622 ;;                       _clrSampeTime
   623 ;;             _getAdOriginalCh14Value
   624 ;;               _clearPinPortAndTimer
   625 ;;              _getAdOriginalCh1Value
   626 ;;               _startTwelveHourTimer
   627 ;;         _isFinishedTwelveHoursTimer
   628 ;;            _startTwentySecondsTimer
   629 ;;               _getAdOriginaCh4Value
   630 ;;       _isFinishedTwentySecondsTimer
   631 ;;               _startThreeHoursTimer
   632 ;;          _isFinishedThreeHoursTimer
   633 ;;               _clearThreeHoursTimer
   634 ;;                      _clearAllTimer
   635 ;; ---------------------------------------------------------------------------------
   636 ;; (1) _clearPinPortAndTimer                                 0     0      0       0
   637 ;;                      _clearAllTimer
   638 ;; ---------------------------------------------------------------------------------
   639 ;; (1) _getAdOriginaCh4Value                                 2     0      2     620
   640 ;;                                             39 BANK0      2     0      2
   641 ;;                             _Filter
   642 ;; ---------------------------------------------------------------------------------
   643 ;; (1) _getAdOriginalCh1Value                                2     0      2     620
   644 ;;                                             39 BANK0      2     0      2
   645 ;;                             _Filter
   646 ;; ---------------------------------------------------------------------------------
   647 ;; (1) _getAdOriginalCh14Value                               2     0      2     620
   648 ;;                                             39 BANK0      2     0      2
   649 ;;                             _Filter
   650 ;; ---------------------------------------------------------------------------------
   651 ;; (1) _process_AD_Converter_Value                           0     0      0      66
   652 ;;                  _getAD_ConvertFlag
   653 ;;                  _setAD_ConvertFlag
   654 ;;                          _AD_Sample
   655 ;;                      _adc_test_init
   656 ;;                          _adc_start
   657 ;; ---------------------------------------------------------------------------------
   658 ;; (1) _clearAllTimer                                        0     0      0       0
   659 ;;              _clearTwelveHoursTimer
   660 ;;               _clearThreeHoursTimer
   661 ;;            _clearTwentySecondsTimer
   662 ;; ---------------------------------------------------------------------------------
   663 ;; (2) _AD_Sample                                            0     0      0       0
   664 ;; ---------------------------------------------------------------------------------
   665 ;; (2) _setAD_ConvertFlag                                    1     1      0      22
   666 ;;                                              0 BANK0      1     1      0
   667 ;; ---------------------------------------------------------------------------------
   668 ;; (2) _getAD_ConvertFlag                                    0     0      0       0
   669 ;; ---------------------------------------------------------------------------------
   670 ;; (2) _Filter                                              39    37      2     620
   671 ;;                                              0 BANK0     39    37      2
   672 ;; ---------------------------------------------------------------------------------
   673 ;; (1) _isFinishedThreeHoursTimer                            0     0      0       0
   674 ;; ---------------------------------------------------------------------------------
   675 ;; (1) _startThreeHoursTimer                                 2     0      2      22
   676 ;;                                              0 BANK0      2     0      2
   677 ;; ---------------------------------------------------------------------------------
   678 ;; (1) _isFinishedTwentySecondsTimer                         0     0      0       0
   679 ;; ---------------------------------------------------------------------------------
   680 ;; (1) _startTwentySecondsTimer                              0     0      0       0
   681 ;; ---------------------------------------------------------------------------------
   682 ;; (1) _isFinishedTwelveHoursTimer                           0     0      0       0
   683 ;; ---------------------------------------------------------------------------------
   684 ;; (1) _startTwelveHourTimer                                 2     0      2      22
   685 ;;                                              0 BANK0      2     0      2
   686 ;; ---------------------------------------------------------------------------------
   687 ;; (1) _clrSampeTime                                         0     0      0       0
   688 ;; ---------------------------------------------------------------------------------
   689 ;; (1) _isPermitSampleTime                                   0     0      0       0
   690 ;; ---------------------------------------------------------------------------------
   691 ;; (2) _adc_start                                            0     0      0       0
   692 ;; ---------------------------------------------------------------------------------
   693 ;; (1) _op2_init                                             0     0      0       0
   694 ;; ---------------------------------------------------------------------------------
   695 ;; (1) _op1_init                                             0     0      0       0
   696 ;; ---------------------------------------------------------------------------------
   697 ;; (1) _dac_init                                             0     0      0       0
   698 ;; ---------------------------------------------------------------------------------
   699 ;; (2) _adc_test_init                                        3     2      1      44
   700 ;;                                              0 BANK0      3     2      1
   701 ;; ---------------------------------------------------------------------------------
   702 ;; (1) _timer1_interrupt_config                              0     0      0       0
   703 ;; ---------------------------------------------------------------------------------
   704 ;; (1) _timer1_config                                        0     0      0       0
   705 ;; ---------------------------------------------------------------------------------
   706 ;; (1) _clock_config                                         0     0      0       0
   707 ;; ---------------------------------------------------------------------------------
   708 ;; (1) _initPin                                              0     0      0       0
   709 ;; ---------------------------------------------------------------------------------
   710 ;; (2) _clearTwentySecondsTimer                              0     0      0       0
   711 ;; ---------------------------------------------------------------------------------
   712 ;; (2) _clearThreeHoursTimer                                 0     0      0       0
   713 ;; ---------------------------------------------------------------------------------
   714 ;; (2) _clearTwelveHoursTimer                                0     0      0       0
   715 ;; ---------------------------------------------------------------------------------
   716 ;; Estimated maximum stack depth 2
   717 ;; ---------------------------------------------------------------------------------
   718 ;; (Depth) Function   	        Calls       Base Space   Used Autos Params    Refs
   719 ;; ---------------------------------------------------------------------------------
   720 ;; (4) _ISR                                                  4     4      0     407
   721 ;;                                              9 COMMON     4     4      0
   722 ;;                i1_setAD_ConvertFlag
   723 ;;                            _adc_get
   724 ;;            _vPutSampleDataIntoTable
   725 ;; ---------------------------------------------------------------------------------
   726 ;; (5) i1_setAD_ConvertFlag                                  1     1      0      73
   727 ;;                                              0 COMMON     1     1      0
   728 ;; ---------------------------------------------------------------------------------
   729 ;; (5) _adc_get                                              4     2      2      24
   730 ;;                                              0 COMMON     4     2      2
   731 ;; ---------------------------------------------------------------------------------
   732 ;; (5) _vPutSampleDataIntoTable                              5     2      3     310
   733 ;;                                              4 COMMON     5     2      3
   734 ;;                            _adc_get (ARG)
   735 ;; ---------------------------------------------------------------------------------
   736 ;; Estimated maximum stack depth 5
   737 ;; ---------------------------------------------------------------------------------
   738 ;; Call Graph Graphs:
   739 ;; _main (ROOT)
   740 ;;   _initPin
   741 ;;   _clock_config
   742 ;;   _timer1_config
   743 ;;   _timer1_interrupt_config
   744 ;;   _adc_test_init
   745 ;;   _dac_init
   746 ;;   _op1_init
   747 ;;   _op2_init
   748 ;;   _adc_start
   749 ;;   _process_AD_Converter_Value
   750 ;;     _getAD_ConvertFlag
   751 ;;     _setAD_ConvertFlag
   752 ;;     _AD_Sample
   753 ;;     _adc_test_init
   754 ;;     _adc_start
   755 ;;   _isPermitSampleTime
   756 ;;   _clrSampeTime
   757 ;;   _getAdOriginalCh14Value
   758 ;;     _Filter
   759 ;;   _clearPinPortAndTimer
   760 ;;     _clearAllTimer
   761 ;;       _clearTwelveHoursTimer
   762 ;;       _clearThreeHoursTimer
   763 ;;       _clearTwentySecondsTimer
   764 ;;   _getAdOriginalCh1Value
   765 ;;     _Filter
   766 ;;   _startTwelveHourTimer
   767 ;;   _isFinishedTwelveHoursTimer
   768 ;;   _startTwentySecondsTimer
   769 ;;   _getAdOriginaCh4Value
   770 ;;     _Filter
   771 ;;   _isFinishedTwentySecondsTimer
   772 ;;   _startThreeHoursTimer
   773 ;;   _isFinishedThreeHoursTimer
   774 ;;   _clearThreeHoursTimer
   775 ;;   _clearAllTimer
   776 ;;     _clearTwelveHoursTimer
   777 ;;     _clearThreeHoursTimer
   778 ;;     _clearTwentySecondsTimer
   779 ;;
   780 ;; _ISR (ROOT)
   781 ;;   i1_setAD_ConvertFlag
   782 ;;   _adc_get
   783 ;;   _vPutSampleDataIntoTable
   784 ;;     _adc_get (ARG)
   785 ;;
   786 ;; Address spaces:
   787 ;;Name               Size   Autos  Total    Cost      Usage
   788 ;;BANK3               60      0       0      10        0.0%
   789 ;;BITBANK3            60      0       0       9        0.0%
   790 ;;SFR3                 0      0       0       4        0.0%
   791 ;;BITSFR3              0      0       0       4        0.0%
   792 ;;BANK2               60      0       0      12        0.0%
   793 ;;BITBANK2            60      0       0      11        0.0%
   794 ;;SFR2                 0      0       0       5        0.0%
   795 ;;BITSFR2              0      0       0       5        0.0%
   796 ;;SFR1                 0      0       0       2        0.0%
   797 ;;BITSFR1              0      0       0       2        0.0%
   798 ;;BANK1               50      0      4E       8       97.5%
   799 ;;BITBANK1            50      0       0       7        0.0%
   800 ;;CODE                 0      0       0       0        0.0%
   801 ;;DATA                 0      0      B2       6        0.0%
   802 ;;ABS                  0      0      AB       3        0.0%
   803 ;;NULL                 0      0       0       0        0.0%
   804 ;;STACK                0      0       7       2        0.0%
   805 ;;BANK0               50     29      4F       5       98.8%
   806 ;;BITBANK0            50      0       0       4        0.0%
   807 ;;SFR0                 0      0       0       1        0.0%
   808 ;;BITSFR0              0      0       0       1        0.0%
   809 ;;COMMON               E      D       E       1      100.0%
   810 ;;BITCOMMON            E      0       0       0        0.0%
   811                           
   812                           
   813 ;; *************** function _main *****************
   814 ;; Defined at:
   815 ;;		line 129 in file "C:\190604\AK7030-OTP\main.c"
   816 ;; Parameters:    Size  Location     Type
   817 ;;		None
   818 ;; Auto vars:     Size  Location     Type
   819 ;;		None
   820 ;; Return value:  Size  Location     Type
   821 ;;		None               void
   822 ;; Registers used:
   823 ;;		wreg, fsr0l, fsr0h, status,2, status,0, btemp+1, pclath, cstack
   824 ;; Tracked objects:
   825 ;;		On entry : 17F/0
   826 ;;		On exit  : 60/0
   827 ;;		Unchanged: FFE00/0
   828 ;; Data sizes:     COMMON   BANK0   BANK1   BANK3   BANK2
   829 ;;      Params:         0       0       0       0       0
   830 ;;      Locals:         0       0       0       0       0
   831 ;;      Temps:          0       0       0       0       0
   832 ;;      Totals:         0       0       0       0       0
   833 ;;Total ram usage:        0 bytes
   834 ;; Hardware stack levels required when called:    5
   835 ;; This function calls:
   836 ;;		_initPin
   837 ;;		_clock_config
   838 ;;		_timer1_config
   839 ;;		_timer1_interrupt_config
   840 ;;		_adc_test_init
   841 ;;		_dac_init
   842 ;;		_op1_init
   843 ;;		_op2_init
   844 ;;		_adc_start
   845 ;;		_process_AD_Converter_Value
   846 ;;		_isPermitSampleTime
   847 ;;		_clrSampeTime
   848 ;;		_getAdOriginalCh14Value
   849 ;;		_clearPinPortAndTimer
   850 ;;		_getAdOriginalCh1Value
   851 ;;		_startTwelveHourTimer
   852 ;;		_isFinishedTwelveHoursTimer
   853 ;;		_startTwentySecondsTimer
   854 ;;		_getAdOriginaCh4Value
   855 ;;		_isFinishedTwentySecondsTimer
   856 ;;		_startThreeHoursTimer
   857 ;;		_isFinishedThreeHoursTimer
   858 ;;		_clearThreeHoursTimer
   859 ;;		_clearAllTimer
   860 ;; This function is called by:
   861 ;;		Startup code after reset
   862 ;; This function uses a non-reentrant model
   863 ;;
   864  0013                     _main:	
   865                           
   866                           ;main.c: 130: enum setp_Adc4
   867                           ;main.c: 131: {
   868                           ;main.c: 132: ADC4_STEP_INIT = 0,
   869                           ;main.c: 133: ADC4_STEP_FIRST,
   870                           ;main.c: 134: ADC4_STEP_SECOND,
   871                           ;main.c: 135: ADC4_STEP_THIRD,
   872                           ;main.c: 136: ADC4_STEP_FOURTH,
   873                           ;main.c: 137: ADC4_STEP_FIFTH,
   874                           ;main.c: 138: ADC4_STEP_SIXTH,
   875                           ;main.c: 139: };
   876                           ;main.c: 142: static unsigned char ucWaitTime1S = 0;
   877                           ;main.c: 144: static unsigned char ucWaitTimeO3s = 0;
   878                           ;main.c: 146: static unsigned char ucSmallTimerActionFlag = 0;
   879                           ;main.c: 148: static unsigned char ucSetSmallActionFlag = 0;
   880                           
   881                           ; Regs used in _main: [wreg-fsr0h+status,2+status,0+btemp+1+pclath+cstack]
   882  0013  1683               	bsf	3,5	;RP0=1, select bank1
   883  0014  1005               	bcf	5,0
   884                           
   885                           ;main.c: 151: TRISA1 = 0;
   886  0015  1085               	bcf	5,1
   887                           
   888                           ;main.c: 152: TRISA2 = 0;
   889  0016  1105               	bcf	5,2
   890                           
   891                           ;main.c: 153: TRISA3 = 0;
   892  0017  1185               	bcf	5,3
   893                           
   894                           ;main.c: 154: TRISB0 = 0;
   895  0018  1006               	bcf	6,0
   896                           
   897                           ;main.c: 155: TRISB1 = 0;
   898  0019  1086               	bcf	6,1
   899                           
   900                           ;main.c: 156: TRISA6 = 0;
   901  001A  1305               	bcf	5,6
   902                           
   903                           ;main.c: 157: TRISA7 = 0;
   904  001B  1385               	bcf	5,7
   905                           
   906                           ;main.c: 158: TRISB6 = 0;
   907  001C  1306               	bcf	6,6
   908                           
   909                           ;main.c: 161: initPin();
   910  001D  118A  255F  118A   	fcall	_initPin
   911                           
   912                           ;main.c: 164: TRISB2 = 1;
   913  0020  1303               	bcf	3,6	;RP1=0, select bank1
   914  0021  1506               	bsf	6,2
   915                           
   916                           ;main.c: 166: TRISB7 = 1;
   917  0022  1786               	bsf	6,7
   918                           
   919                           ;main.c: 167: TRISB4 = 1;
   920  0023  1606               	bsf	6,4
   921                           
   922                           ;main.c: 169: clock_config();
   923  0024  118A  25ED  118A   	fcall	_clock_config
   924                           
   925                           ;main.c: 170: timer1_config();
   926  0027  118A  25D3  118A   	fcall	_timer1_config
   927                           
   928                           ;main.c: 171: timer1_interrupt_config();
   929  002A  118A  2616  118A   	fcall	_timer1_interrupt_config
   930                           
   931                           ;main.c: 173: adc_test_init(14,3);
   932  002D  3003               	movlw	3
   933  002E  1283               	bcf	3,5	;RP0=0, select bank0
   934  002F  00A0               	movwf	?_adc_test_init
   935  0030  300E               	movlw	14
   936  0031  118A  252B  118A   	fcall	_adc_test_init
   937                           
   938                           ;main.c: 175: dac_init();
   939  0034  118A  2611  118A   	fcall	_dac_init
   940                           
   941                           ;main.c: 176: op1_init();
   942  0037  118A  25C8  118A   	fcall	_op1_init
   943                           
   944                           ;main.c: 177: op2_init();
   945  003A  118A  25E5  118A   	fcall	_op2_init
   946                           
   947                           ;main.c: 180: adc_start();
   948  003D  118A  2540  118A   	fcall	_adc_start
   949  0040                     l4176:	
   950  0040  0064               	clrwdt	;#
   951                           
   952                           ;main.c: 215: process_AD_Converter_Value();
   953  0041  118A  24E9  118A   	fcall	_process_AD_Converter_Value
   954                           
   955                           ;main.c: 217: if(isPermitSampleTime())
   956  0044  118A  260C  118A   	fcall	_isPermitSampleTime
   957  0047  3A00               	xorlw	0
   958  0048  1903               	skipnz
   959  0049  2840               	goto	l4176
   960                           
   961                           ;main.c: 218: {
   962                           ;main.c: 219: clrSampeTime();
   963  004A  118A  2619  118A   	fcall	_clrSampeTime
   964                           
   965                           ;main.c: 221: switch(enumMainLoopStep)
   966  004D  2B3B               	goto	l4704
   967  004E                     l4184:	
   968                           
   969                           ;main.c: 224: {
   970                           ;main.c: 225: static unsigned char ucTimerZeroPoint5s = 0;
   971                           ;main.c: 226: if(getAdOriginalCh14Value() > 1950)
   972  004E  118A  243D  118A   	fcall	_getAdOriginalCh14Value
   973  0051  3007               	movlw	7
   974  0052  0248               	subwf	?_getAdOriginalCh14Value+1,w
   975  0053  309F               	movlw	159
   976  0054  1903               	skipnz
   977  0055  0247               	subwf	?_getAdOriginalCh14Value,w
   978  0056  1C03               	skipc
   979  0057  285A               	goto	l4188
   980                           
   981                           ;main.c: 227: {
   982                           ;main.c: 228: ucTimerZeroPoint5s++;
   983  0058  0AEB               	incf	main@ucTimerZeroPoint5s,f
   984                           
   985                           ;main.c: 229: }
   986  0059  285B               	goto	l4190
   987  005A                     l4188:	
   988                           
   989                           ;main.c: 230: else
   990                           ;main.c: 231: ucTimerZeroPoint5s = 0;
   991  005A  01EB               	clrf	main@ucTimerZeroPoint5s
   992  005B                     l4190:	
   993                           
   994                           ;main.c: 233: if(ucTimerZeroPoint5s >= 5)
   995  005B  3005               	movlw	5
   996  005C  026B               	subwf	main@ucTimerZeroPoint5s,w
   997  005D  1C03               	skipc
   998  005E  2840               	goto	l4176
   999                           
  1000                           ;main.c: 234: {
  1001                           ;main.c: 235: ucTimerZeroPoint5s = 0;
  1002  005F  01EB               	clrf	main@ucTimerZeroPoint5s
  1003  0060                     l4194:	
  1004                           
  1005                           ;main.c: 236: enumMainLoopStep = MAIN_LOOP_STEP_FIRST;
  1006  0060  1283               	bcf	3,5	;RP0=0, select bank0
  1007  0061  01D0               	clrf	main@enumMainLoopStep
  1008  0062  0AD0               	incf	main@enumMainLoopStep,f
  1009  0063                     l706:	
  1010                           
  1011                           ;main.c: 237: }
  1012                           ;main.c: 238: break;
  1013  0063  2840               	goto	l4176
  1014  0064                     l4196:	
  1015                           
  1016                           ;main.c: 242: {
  1017                           ;main.c: 243: static unsigned char ucTimerZeroPoint3s = 0;
  1018                           ;main.c: 246: if(getAdOriginalCh14Value() > 1950)
  1019  0064  118A  243D  118A   	fcall	_getAdOriginalCh14Value
  1020  0067  3007               	movlw	7
  1021  0068  0248               	subwf	?_getAdOriginalCh14Value+1,w
  1022  0069  309F               	movlw	159
  1023  006A  1903               	skipnz
  1024  006B  0247               	subwf	?_getAdOriginalCh14Value,w
  1025  006C  1C03               	skipc
  1026  006D  2872               	goto	l4202
  1027                           
  1028                           ;main.c: 247: {
  1029                           ;main.c: 249: enumMainLoopStep = MAIN_LOOP_STEP_SECOND;
  1030  006E  3002               	movlw	2
  1031  006F  00D0               	movwf	main@enumMainLoopStep
  1032                           
  1033                           ;main.c: 251: ucTimerZeroPoint3s = 0;
  1034  0070  01EA               	clrf	main@ucTimerZeroPoint3s
  1035                           
  1036                           ;main.c: 252: }
  1037  0071  2840               	goto	l4176
  1038  0072                     l4202:	
  1039  0072  3003               	movlw	3
  1040                           
  1041                           ;main.c: 253: else
  1042                           ;main.c: 254: {
  1043                           ;main.c: 255: ucTimerZeroPoint3s++;
  1044  0073  0AEA               	incf	main@ucTimerZeroPoint3s,f
  1045                           
  1046                           ;main.c: 257: if(ucTimerZeroPoint3s >= 3)
  1047  0074  026A               	subwf	main@ucTimerZeroPoint3s,w
  1048  0075  1C03               	skipc
  1049  0076  2840               	goto	l4176
  1050                           
  1051                           ;main.c: 258: {
  1052                           ;main.c: 259: ucTimerZeroPoint3s = 0;
  1053  0077  01EA               	clrf	main@ucTimerZeroPoint3s
  1054                           
  1055                           ;main.c: 261: clearPinPortAndTimer();
  1056  0078  118A  2543  118A   	fcall	_clearPinPortAndTimer
  1057  007B  2840               	goto	l4176
  1058  007C                     l714:	
  1059                           ;main.c: 265: }
  1060                           ;main.c: 267: case MAIN_LOOP_STEP_SECOND:
  1061                           
  1062  007C  3005               	movlw	5
  1063                           
  1064                           ;main.c: 268: {
  1065                           ;main.c: 269: static unsigned char ucTimerP5s = 0;
  1066                           ;main.c: 271: PA6 = 1;
  1067  007D  1705               	bsf	5,6
  1068                           
  1069                           ;main.c: 273: if(ucTimerP5s < 5)
  1070  007E  0265               	subwf	main@ucTimerP5s,w
  1071  007F  1803               	skipnc
  1072  0080  2883               	goto	l4214
  1073                           
  1074                           ;main.c: 274: ucTimerP5s++;
  1075  0081  0AE5               	incf	main@ucTimerP5s,f
  1076  0082  2840               	goto	l4176
  1077  0083                     l4214:	
  1078  0083  3003               	movlw	3
  1079                           
  1080                           ;main.c: 275: else
  1081                           ;main.c: 276: {
  1082                           ;main.c: 277: ucTimerP5s = 0;
  1083  0084  01E5               	clrf	main@ucTimerP5s
  1084                           
  1085                           ;main.c: 279: enumMainLoopStep = MAIN_LOOP_STEP_THIRD;
  1086  0085  2ABE               	goto	L4
  1087  0086                     l4218:	
  1088                           
  1089                           ;main.c: 286: {
  1090                           ;main.c: 287: static unsigned char ucTimerADC1ZeroP5s = 0;
  1091                           ;main.c: 289: static unsigned char ucTimerLessADC1ZeroP5s = 0;
  1092                           ;main.c: 291: static unsigned char ucTimerRightP5s = 0;
  1093                           ;main.c: 293: if(getAdOriginalCh1Value() < 130)
  1094  0086  118A  2436  118A   	fcall	_getAdOriginalCh1Value
  1095  0089  3000               	movlw	0
  1096  008A  0248               	subwf	?_getAdOriginalCh1Value+1,w
  1097  008B  3082               	movlw	130
  1098  008C  1903               	skipnz
  1099  008D  0247               	subwf	?_getAdOriginalCh1Value,w
  1100  008E  1803               	skipnc
  1101  008F  2893               	goto	l4224
  1102                           
  1103                           ;main.c: 294: {
  1104                           ;main.c: 295: ucTimerADC1ZeroP5s = 0;
  1105  0090  01DA               	clrf	main@ucTimerADC1ZeroP5s
  1106                           
  1107                           ;main.c: 297: ucTimerLessADC1ZeroP5s++;
  1108  0091  0AE1               	incf	main@ucTimerLessADC1ZeroP5s,f
  1109                           
  1110                           ;main.c: 298: }
  1111  0092  2895               	goto	l4228
  1112  0093                     l4224:	
  1113                           
  1114                           ;main.c: 299: else
  1115                           ;main.c: 300: {
  1116                           ;main.c: 301: ucTimerADC1ZeroP5s++;
  1117  0093  0ADA               	incf	main@ucTimerADC1ZeroP5s,f
  1118                           
  1119                           ;main.c: 303: ucTimerLessADC1ZeroP5s = 0;
  1120  0094  01E1               	clrf	main@ucTimerLessADC1ZeroP5s
  1121  0095                     l4228:	
  1122                           
  1123                           ;main.c: 304: }
  1124                           ;main.c: 306: if(ucTimerADC1ZeroP5s >= 5)
  1125  0095  3005               	movlw	5
  1126  0096  025A               	subwf	main@ucTimerADC1ZeroP5s,w
  1127  0097  1C03               	skipc
  1128  0098  289C               	goto	l4234
  1129  0099  3004               	movlw	4
  1130                           
  1131                           ;main.c: 307: {
  1132                           ;main.c: 308: ucTimerADC1ZeroP5s = 0;
  1133  009A  01DA               	clrf	main@ucTimerADC1ZeroP5s
  1134                           
  1135                           ;main.c: 309: enumMainLoopStep = MAIN_LOOP_STEP_FOURTH;
  1136  009B  28B4               	goto	L2
  1137  009C                     l4234:	
  1138                           ;main.c: 310: }
  1139                           
  1140                           
  1141                           ;main.c: 311: else if( ucTimerLessADC1ZeroP5s >= 5)
  1142  009C  3005               	movlw	5
  1143  009D  0261               	subwf	main@ucTimerLessADC1ZeroP5s,w
  1144  009E  1C03               	skipc
  1145  009F  28B5               	goto	l4250
  1146                           
  1147                           ;main.c: 312: {
  1148                           ;main.c: 315: ucTimerLessADC1ZeroP5s = 0;
  1149  00A0  01E1               	clrf	main@ucTimerLessADC1ZeroP5s
  1150                           
  1151                           ;main.c: 317: if(getAdOriginalCh1Value() < 117)
  1152  00A1  118A  2436  118A   	fcall	_getAdOriginalCh1Value
  1153  00A4  3000               	movlw	0
  1154  00A5  0248               	subwf	?_getAdOriginalCh1Value+1,w
  1155  00A6  3075               	movlw	117
  1156  00A7  1903               	skipnz
  1157  00A8  0247               	subwf	?_getAdOriginalCh1Value,w
  1158  00A9  1803               	skipnc
  1159  00AA  28AD               	goto	l4242
  1160                           
  1161                           ;main.c: 318: {
  1162                           ;main.c: 319: ucTimerRightP5s++;
  1163  00AB  0AE6               	incf	main@ucTimerRightP5s,f
  1164                           
  1165                           ;main.c: 320: }
  1166  00AC  28AE               	goto	l4244
  1167  00AD                     l4242:	
  1168                           
  1169                           ;main.c: 321: else
  1170                           ;main.c: 322: {
  1171                           ;main.c: 323: ucTimerRightP5s = 0;
  1172  00AD  01E6               	clrf	main@ucTimerRightP5s
  1173  00AE                     l4244:	
  1174                           
  1175                           ;main.c: 324: }
  1176                           ;main.c: 326: if(ucTimerRightP5s >= 5)
  1177  00AE  3005               	movlw	5
  1178  00AF  0266               	subwf	main@ucTimerRightP5s,w
  1179  00B0  1C03               	skipc
  1180  00B1  28B5               	goto	l4250
  1181  00B2  3008               	movlw	8
  1182                           
  1183                           ;main.c: 327: {
  1184                           ;main.c: 328: ucTimerRightP5s = 0;
  1185  00B3  01E6               	clrf	main@ucTimerRightP5s
  1186  00B4                     L2:	
  1187                           ;main.c: 329: enumMainLoopStep = MAIN_LOOP_STEP_3_HOUR_BRANCH;
  1188                           
  1189  00B4  00D0               	movwf	main@enumMainLoopStep
  1190  00B5                     l4250:	
  1191                           ;main.c: 336: else
  1192                           ;main.c: 337: {
  1193                           ;main.c: 338: ;
  1194                           
  1195                           ;main.c: 330: }
  1196                           
  1197                           
  1198                           ;main.c: 339: }
  1199                           ;main.c: 341: if((MAIN_LOOP_STEP_3_HOUR_BRANCH == enumMainLoopStep) || (MAIN_LOOP_STEP_F
      +                          OURTH == enumMainLoopStep))
  1200  00B5  0850               	movf	main@enumMainLoopStep,w
  1201  00B6  3A08               	xorlw	8
  1202  00B7  1903               	skipnz
  1203  00B8  28BD               	goto	l4254
  1204  00B9  0850               	movf	main@enumMainLoopStep,w
  1205  00BA  3A04               	xorlw	4
  1206  00BB  1D03               	skipz
  1207  00BC  2840               	goto	l4176
  1208  00BD                     l4254:	
  1209                           
  1210                           ;main.c: 342: {
  1211                           ;main.c: 343: ucTimerRightP5s = 0;
  1212  00BD  01E6               	clrf	main@ucTimerRightP5s
  1213                           
  1214                           ;main.c: 344: ucTimerADC1ZeroP5s = 0;
  1215  00BE  01DA               	clrf	main@ucTimerADC1ZeroP5s
  1216                           
  1217                           ;main.c: 345: ucTimerLessADC1ZeroP5s = 0;
  1218  00BF  01E1               	clrf	main@ucTimerLessADC1ZeroP5s
  1219  00C0  2840               	goto	l4176
  1220  00C1                     l4256:	
  1221                           
  1222                           ;main.c: 353: {
  1223                           ;main.c: 355: startTwelveHourTimer(600);
  1224  00C1  3058               	movlw	88
  1225  00C2  00A0               	movwf	?_startTwelveHourTimer
  1226  00C3  3002               	movlw	2
  1227  00C4  00A1               	movwf	?_startTwelveHourTimer+1
  1228  00C5  118A  25AE  118A   	fcall	_startTwelveHourTimer
  1229                           
  1230                           ;main.c: 356: enumMainLoopStep = MAIN_LOOP_STEP_FIFTH;
  1231  00C8  3005               	movlw	5
  1232  00C9  28D1               	goto	L9
  1233  00CA                     l4260:	
  1234                           ;main.c: 358: break;
  1235                           
  1236                           
  1237                           ;main.c: 362: {
  1238                           ;main.c: 364: if(isFinishedTwelveHoursTimer())
  1239  00CA  118A  2601  118A   	fcall	_isFinishedTwelveHoursTimer
  1240  00CD  3A00               	xorlw	0
  1241  00CE  1903               	skipnz
  1242  00CF  2A63               	goto	l4586
  1243  00D0                     l4262:	
  1244                           
  1245                           ;main.c: 365: {
  1246                           ;main.c: 366: enumMainLoopStep = MAIN_LOOP_STEP_12_HOUR_END;
  1247  00D0  3009               	movlw	9
  1248  00D1                     L9:	
  1249  00D1  1283               	bcf	3,5	;RP0=0, select bank0
  1250  00D2  2ABE               	goto	L4
  1251  00D3                     l4264:	
  1252                           ;main.c: 367: }
  1253                           
  1254                           
  1255                           ;main.c: 375: {
  1256                           ;main.c: 376: startTwentySecondsTimer();
  1257  00D3  118A  2607  118A   	fcall	_startTwentySecondsTimer
  1258  00D6                     l4266:	
  1259                           
  1260                           ;main.c: 377: ucADC4_Step = ADC4_STEP_FIRST;
  1261  00D6  1283               	bcf	3,5	;RP0=0, select bank0
  1262  00D7  01D1               	clrf	main@ucADC4_Step
  1263  00D8  0AD1               	incf	main@ucADC4_Step,f
  1264                           
  1265                           ;main.c: 378: break;
  1266  00D9  2840               	goto	l4176
  1267  00DA                     l4268:	
  1268                           
  1269                           ;main.c: 382: {
  1270                           ;main.c: 383: if(getAdOriginaCh4Value() < 1911)
  1271  00DA  118A  242F  118A   	fcall	_getAdOriginaCh4Value
  1272  00DD  3007               	movlw	7
  1273  00DE  0248               	subwf	?_getAdOriginaCh4Value+1,w
  1274  00DF  3077               	movlw	119
  1275  00E0  1903               	skipnz
  1276  00E1  0247               	subwf	?_getAdOriginaCh4Value,w
  1277  00E2  1803               	skipnc
  1278  00E3  28E6               	goto	l4272
  1279                           
  1280                           ;main.c: 384: ucChannel4Type = LESS_THAN_1911;
  1281  00E4  01D2               	clrf	main@ucChannel4Type
  1282  00E5  290D               	goto	l750
  1283  00E6                     l4272:	
  1284                           
  1285                           ;main.c: 385: else if(getAdOriginaCh4Value() < 2067)
  1286  00E6  118A  242F  118A   	fcall	_getAdOriginaCh4Value
  1287  00E9  3008               	movlw	8
  1288  00EA  0248               	subwf	?_getAdOriginaCh4Value+1,w
  1289  00EB  3013               	movlw	19
  1290  00EC  1903               	skipnz
  1291  00ED  0247               	subwf	?_getAdOriginaCh4Value,w
  1292  00EE  1803               	skipnc
  1293  00EF  28F3               	goto	l4276
  1294                           
  1295                           ;main.c: 386: ucChannel4Type = BETWEEN_1911_AND_2067;
  1296  00F0  01D2               	clrf	main@ucChannel4Type
  1297  00F1  0AD2               	incf	main@ucChannel4Type,f
  1298  00F2  290D               	goto	l750
  1299  00F3                     l4276:	
  1300                           
  1301                           ;main.c: 387: else if(getAdOriginaCh4Value() < 2204)
  1302  00F3  118A  242F  118A   	fcall	_getAdOriginaCh4Value
  1303  00F6  3008               	movlw	8
  1304  00F7  0248               	subwf	?_getAdOriginaCh4Value+1,w
  1305  00F8  309C               	movlw	156
  1306  00F9  1903               	skipnz
  1307  00FA  0247               	subwf	?_getAdOriginaCh4Value,w
  1308  00FB  1803               	skipnc
  1309  00FC  28FF               	goto	l4280
  1310                           
  1311                           ;main.c: 388: ucChannel4Type = BETWEEN_2067_AND_2204;
  1312  00FD  3002               	movlw	2
  1313  00FE  290C               	goto	L5
  1314  00FF                     l4280:	
  1315                           
  1316                           ;main.c: 389: else if(getAdOriginaCh4Value() < 2340)
  1317  00FF  118A  242F  118A   	fcall	_getAdOriginaCh4Value
  1318  0102  3009               	movlw	9
  1319  0103  0248               	subwf	?_getAdOriginaCh4Value+1,w
  1320  0104  3024               	movlw	36
  1321  0105  1903               	skipnz
  1322  0106  0247               	subwf	?_getAdOriginaCh4Value,w
  1323  0107  1803               	skipnc
  1324  0108  290B               	goto	l4284
  1325                           
  1326                           ;main.c: 390: ucChannel4Type = BETWEEN_2204_AND_2340;
  1327  0109  3003               	movlw	3
  1328  010A  290C               	goto	L5
  1329  010B                     l4284:	
  1330                           
  1331                           ;main.c: 391: else
  1332                           ;main.c: 392: ucChannel4Type = MORE_THAN_2340;
  1333  010B  3004               	movlw	4
  1334  010C                     L5:	
  1335  010C  00D2               	movwf	main@ucChannel4Type
  1336  010D                     l750:	
  1337                           
  1338                           ;main.c: 394: ucADC4_Step = ADC4_STEP_SECOND;
  1339  010D  3002               	movlw	2
  1340  010E  2A4B               	goto	L7
  1341  010F                     l765:	
  1342                           ;main.c: 409: {
  1343                           ;main.c: 410: case 0:
  1344                           
  1345                           ;main.c: 395: break;
  1346                           
  1347                           
  1348                           ;main.c: 411: {
  1349                           ;main.c: 412: PB0 = 1;
  1350  010F  1406               	bsf	6,0
  1351  0110                     l4286:	
  1352                           
  1353                           ;main.c: 413: ucLoaderStep++;
  1354  0110  0AD3               	incf	main@ucLoaderStep,f
  1355                           
  1356                           ;main.c: 414: break;
  1357  0111  2840               	goto	l4176
  1358  0112                     l4288:	
  1359                           
  1360                           ;main.c: 418: {
  1361                           ;main.c: 419: if(ucTimerDelay >= 5)
  1362  0112  3005               	movlw	5
  1363  0113  025B               	subwf	main@ucTimerDelay,w
  1364  0114  1C03               	skipc
  1365  0115  2919               	goto	l4296
  1366                           
  1367                           ;main.c: 420: {
  1368                           ;main.c: 421: PA0 = 1;
  1369  0116  1405               	bsf	5,0
  1370  0117                     l4292:	
  1371                           
  1372                           ;main.c: 422: ucTimerDelay = 0;
  1373  0117  01DB               	clrf	main@ucTimerDelay
  1374  0118  2910               	goto	l4286
  1375  0119                     l4296:	
  1376                           
  1377                           ;main.c: 425: else
  1378                           ;main.c: 426: ucTimerDelay++;
  1379  0119  0ADB               	incf	main@ucTimerDelay,f
  1380  011A  2840               	goto	l4176
  1381  011B                     l4298:	
  1382                           
  1383                           ;main.c: 431: {
  1384                           ;main.c: 432: if(ucTimerDelay >= 5)
  1385  011B  3005               	movlw	5
  1386  011C  025B               	subwf	main@ucTimerDelay,w
  1387  011D  1C03               	skipc
  1388  011E  2919               	goto	l4296
  1389                           
  1390                           ;main.c: 433: {
  1391                           ;main.c: 434: PA1= 1;
  1392  011F  1485               	bsf	5,1
  1393  0120  2917               	goto	l4292
  1394  0121                     l4308:	
  1395                           
  1396                           ;main.c: 445: {
  1397                           ;main.c: 446: if(ucTimerDelay >= 5)
  1398  0121  3005               	movlw	5
  1399  0122  025B               	subwf	main@ucTimerDelay,w
  1400  0123  1C03               	skipc
  1401  0124  2919               	goto	l4296
  1402                           
  1403                           ;main.c: 447: {
  1404                           ;main.c: 448: PA2= 1;
  1405  0125  1505               	bsf	5,2
  1406  0126  2917               	goto	l4292
  1407  0127                     l4318:	
  1408                           
  1409                           ;main.c: 458: {
  1410                           ;main.c: 459: if(ucTimerDelay >= 5)
  1411  0127  3005               	movlw	5
  1412  0128  025B               	subwf	main@ucTimerDelay,w
  1413  0129  1C03               	skipc
  1414  012A  2919               	goto	l4296
  1415                           
  1416                           ;main.c: 460: {
  1417                           ;main.c: 461: PA3 = 1;
  1418  012B  1585               	bsf	5,3
  1419  012C  2917               	goto	l4292
  1420  012D                     l4328:	
  1421                           
  1422                           ;main.c: 471: {
  1423                           ;main.c: 472: if(ucTimerDelay >= 5)
  1424  012D  3005               	movlw	5
  1425  012E  025B               	subwf	main@ucTimerDelay,w
  1426  012F  1C03               	skipc
  1427  0130  2919               	goto	l4296
  1428                           
  1429                           ;main.c: 473: {
  1430                           ;main.c: 474: PB0 = 0;
  1431  0131  1006               	bcf	6,0
  1432                           
  1433                           ;main.c: 475: PA0 = 0;
  1434  0132  1005               	bcf	5,0
  1435                           
  1436                           ;main.c: 476: PA1 = 0;
  1437  0133  1085               	bcf	5,1
  1438                           
  1439                           ;main.c: 477: PA2 = 0;
  1440  0134  1105               	bcf	5,2
  1441                           
  1442                           ;main.c: 478: PA3 = 0;
  1443  0135  1185               	bcf	5,3
  1444  0136  2917               	goto	l4292
  1445  0137                     l4338:	
  1446                           
  1447                           ;main.c: 488: {
  1448                           ;main.c: 489: if(ucTimerDelay >= 2)
  1449  0137  3002               	movlw	2
  1450  0138  025B               	subwf	main@ucTimerDelay,w
  1451  0139  1C03               	skipc
  1452  013A  2919               	goto	l4296
  1453                           
  1454                           ;main.c: 490: {
  1455                           ;main.c: 491: ucTimerDelay = 0;
  1456  013B  01DB               	clrf	main@ucTimerDelay
  1457                           
  1458                           ;main.c: 493: ucLoaderStep = 0;
  1459  013C  01D3               	clrf	main@ucLoaderStep
  1460  013D                     l4342:	
  1461                           
  1462                           ;main.c: 494: ucADC4_Step = ADC4_STEP_THIRD;
  1463  013D  3003               	movlw	3
  1464  013E  2A4B               	goto	L7
  1465  013F                     l4348:	
  1466                           ;main.c: 495: }
  1467                           
  1468  013F  0853               	movf	main@ucLoaderStep,w
  1469                           
  1470                           ; Switch size 1, requested type "space"
  1471                           ; Number of cases is 7, Range of values is 0 to 6
  1472                           ; switch strategies available:
  1473                           ; Name         Instructions Cycles
  1474                           ; direct_byte           21     7 (fixed)
  1475                           ; simple_byte           22    12 (average)
  1476                           ; jumptable            260     6 (fixed)
  1477                           ; rangetable            11     6 (fixed)
  1478                           ; spacedrange           20     9 (fixed)
  1479                           ; locatedrange           7     3 (fixed)
  1480                           ;	Chosen strategy is direct_byte
  1481  0140  0084               	movwf	4
  1482  0141  3007               	movlw	7
  1483  0142  0204               	subwf	4,w
  1484  0143  1803               	skipnc
  1485  0144  2840               	goto	l4176
  1486  0145  3005               	movlw	high S4922
  1487  0146  008A               	movwf	10
  1488  0147  1003               	clrc
  1489  0148  0D04               	rlf	4,w
  1490  0149  3E84               	addlw	low S4922
  1491  014A  0082               	movwf	2
  1492  014B                     l793:	
  1493                           ;main.c: 514: {
  1494                           ;main.c: 515: case 0:
  1495                           
  1496                           
  1497                           ;main.c: 516: {
  1498                           ;main.c: 517: PB0 = 1;
  1499  014B  1406               	bsf	6,0
  1500  014C                     l4350:	
  1501                           
  1502                           ;main.c: 518: ucLoaderStep1++;
  1503  014C  0AD4               	incf	main@ucLoaderStep1,f
  1504                           
  1505                           ;main.c: 519: break;
  1506  014D  2840               	goto	l4176
  1507  014E                     l4352:	
  1508                           
  1509                           ;main.c: 523: {
  1510                           ;main.c: 524: if(ucTimerDelay1 >= 5)
  1511  014E  3005               	movlw	5
  1512  014F  025C               	subwf	main@ucTimerDelay1,w
  1513  0150  1C03               	skipc
  1514  0151  2955               	goto	l4360
  1515                           
  1516                           ;main.c: 525: {
  1517                           ;main.c: 526: PA0 = 1;
  1518  0152  1405               	bsf	5,0
  1519  0153                     l4356:	
  1520                           
  1521                           ;main.c: 527: ucTimerDelay1 = 0;
  1522  0153  01DC               	clrf	main@ucTimerDelay1
  1523  0154  294C               	goto	l4350
  1524  0155                     l4360:	
  1525                           
  1526                           ;main.c: 530: else
  1527                           ;main.c: 531: ucTimerDelay1++;
  1528  0155  0ADC               	incf	main@ucTimerDelay1,f
  1529  0156  2840               	goto	l4176
  1530  0157                     l4362:	
  1531                           
  1532                           ;main.c: 536: {
  1533                           ;main.c: 537: if(ucTimerDelay1 >= 5)
  1534  0157  3005               	movlw	5
  1535  0158  025C               	subwf	main@ucTimerDelay1,w
  1536  0159  1C03               	skipc
  1537  015A  2955               	goto	l4360
  1538                           
  1539                           ;main.c: 538: {
  1540                           ;main.c: 539: PA1= 1;
  1541  015B  1485               	bsf	5,1
  1542  015C  2953               	goto	l4356
  1543  015D                     l4372:	
  1544                           
  1545                           ;main.c: 549: {
  1546                           ;main.c: 550: if(ucTimerDelay1 >= 5)
  1547  015D  3005               	movlw	5
  1548  015E  025C               	subwf	main@ucTimerDelay1,w
  1549  015F  1C03               	skipc
  1550  0160  2955               	goto	l4360
  1551                           
  1552                           ;main.c: 551: {
  1553                           ;main.c: 552: PA2 = 1;
  1554  0161  1505               	bsf	5,2
  1555  0162  2953               	goto	l4356
  1556  0163                     l4382:	
  1557                           
  1558                           ;main.c: 562: {
  1559                           ;main.c: 563: if(ucTimerDelay1 >= 5)
  1560  0163  3005               	movlw	5
  1561  0164  025C               	subwf	main@ucTimerDelay1,w
  1562  0165  1C03               	skipc
  1563  0166  2955               	goto	l4360
  1564                           
  1565                           ;main.c: 564: {
  1566                           ;main.c: 565: PA3 = 1;
  1567  0167  1585               	bsf	5,3
  1568  0168  2953               	goto	l4356
  1569  0169                     l4392:	
  1570                           
  1571                           ;main.c: 575: {
  1572                           ;main.c: 576: if(ucTimerDelay1 >= 5)
  1573  0169  3005               	movlw	5
  1574  016A  025C               	subwf	main@ucTimerDelay1,w
  1575  016B  1C03               	skipc
  1576  016C  2955               	goto	l4360
  1577                           
  1578                           ;main.c: 577: {
  1579                           ;main.c: 578: PA0 = 0;
  1580  016D  1005               	bcf	5,0
  1581                           
  1582                           ;main.c: 579: PA1 = 0;
  1583  016E  1085               	bcf	5,1
  1584                           
  1585                           ;main.c: 580: PA2 = 0;
  1586  016F  1105               	bcf	5,2
  1587                           
  1588                           ;main.c: 581: PA3 = 0;
  1589  0170  1185               	bcf	5,3
  1590  0171  2953               	goto	l4356
  1591  0172                     l4402:	
  1592                           
  1593                           ;main.c: 591: {
  1594                           ;main.c: 592: if(ucTimerDelay1 >= 2)
  1595  0172  3002               	movlw	2
  1596  0173  025C               	subwf	main@ucTimerDelay1,w
  1597  0174  1C03               	skipc
  1598  0175  2955               	goto	l4360
  1599                           
  1600                           ;main.c: 593: {
  1601                           ;main.c: 594: ucTimerDelay1 = 0;
  1602  0176  01DC               	clrf	main@ucTimerDelay1
  1603                           
  1604                           ;main.c: 596: ucLoaderStep1 = 0;
  1605  0177  01D4               	clrf	main@ucLoaderStep1
  1606  0178  293D               	goto	l4342
  1607  0179                     l4412:	
  1608  0179  0854               	movf	main@ucLoaderStep1,w
  1609                           
  1610                           ; Switch size 1, requested type "space"
  1611                           ; Number of cases is 7, Range of values is 0 to 6
  1612                           ; switch strategies available:
  1613                           ; Name         Instructions Cycles
  1614                           ; direct_byte           21     7 (fixed)
  1615                           ; simple_byte           22    12 (average)
  1616                           ; jumptable            260     6 (fixed)
  1617                           ; rangetable            11     6 (fixed)
  1618                           ; spacedrange           20     9 (fixed)
  1619                           ; locatedrange           7     3 (fixed)
  1620                           ;	Chosen strategy is direct_byte
  1621  017A  0084               	movwf	4
  1622  017B  3007               	movlw	7
  1623  017C  0204               	subwf	4,w
  1624  017D  1803               	skipnc
  1625  017E  2840               	goto	l4176
  1626  017F  3005               	movlw	high S4924
  1627  0180  008A               	movwf	10
  1628  0181  1003               	clrc
  1629  0182  0D04               	rlf	4,w
  1630  0183  3E92               	addlw	low S4924
  1631  0184  0082               	movwf	2
  1632  0185                     l820:	
  1633                           ;main.c: 618: {
  1634                           ;main.c: 619: case 0:
  1635                           
  1636                           
  1637                           ;main.c: 620: {
  1638                           ;main.c: 621: PB0 = 1;
  1639  0185  1406               	bsf	6,0
  1640                           
  1641                           ;main.c: 622: PA0 = 1;
  1642  0186  1405               	bsf	5,0
  1643  0187                     l4414:	
  1644                           
  1645                           ;main.c: 623: ucLoaderStep2++;
  1646  0187  0AD5               	incf	main@ucLoaderStep2,f
  1647                           
  1648                           ;main.c: 624: break;
  1649  0188  2840               	goto	l4176
  1650  0189                     l4416:	
  1651                           
  1652                           ;main.c: 628: {
  1653                           ;main.c: 629: if(ucTimerDelay2 >= 5)
  1654  0189  3005               	movlw	5
  1655  018A  025D               	subwf	main@ucTimerDelay2,w
  1656  018B  1C03               	skipc
  1657  018C  2990               	goto	l4424
  1658                           
  1659                           ;main.c: 630: {
  1660                           ;main.c: 631: PA1 = 1;
  1661  018D  1485               	bsf	5,1
  1662  018E                     l4420:	
  1663                           
  1664                           ;main.c: 632: ucTimerDelay2 = 0;
  1665  018E  01DD               	clrf	main@ucTimerDelay2
  1666  018F  2987               	goto	l4414
  1667  0190                     l4424:	
  1668                           
  1669                           ;main.c: 635: else
  1670                           ;main.c: 636: ucTimerDelay2++;
  1671  0190  0ADD               	incf	main@ucTimerDelay2,f
  1672  0191  2840               	goto	l4176
  1673  0192                     l4426:	
  1674                           
  1675                           ;main.c: 641: {
  1676                           ;main.c: 642: if(ucTimerDelay2 >= 5)
  1677  0192  3005               	movlw	5
  1678  0193  025D               	subwf	main@ucTimerDelay2,w
  1679  0194  1C03               	skipc
  1680  0195  2990               	goto	l4424
  1681                           
  1682                           ;main.c: 643: {
  1683                           ;main.c: 644: PA2 = 1;
  1684  0196  1505               	bsf	5,2
  1685  0197  298E               	goto	l4420
  1686  0198                     l4436:	
  1687                           
  1688                           ;main.c: 654: {
  1689                           ;main.c: 655: if(ucTimerDelay2 >= 5)
  1690  0198  3005               	movlw	5
  1691  0199  025D               	subwf	main@ucTimerDelay2,w
  1692  019A  1C03               	skipc
  1693  019B  2990               	goto	l4424
  1694                           
  1695                           ;main.c: 656: {
  1696                           ;main.c: 657: PA3 = 1;
  1697  019C  1585               	bsf	5,3
  1698  019D  298E               	goto	l4420
  1699  019E                     l4446:	
  1700                           
  1701                           ;main.c: 667: {
  1702                           ;main.c: 668: if(ucTimerDelay2 >= 5)
  1703  019E  3005               	movlw	5
  1704  019F  025D               	subwf	main@ucTimerDelay2,w
  1705  01A0  1C03               	skipc
  1706  01A1  2990               	goto	l4424
  1707                           
  1708                           ;main.c: 669: {
  1709                           ;main.c: 671: PA1 = 0;
  1710  01A2  1085               	bcf	5,1
  1711                           
  1712                           ;main.c: 672: PA2 = 0;
  1713  01A3  1105               	bcf	5,2
  1714                           
  1715                           ;main.c: 673: PA3 = 0;
  1716  01A4  1185               	bcf	5,3
  1717  01A5  298E               	goto	l4420
  1718  01A6                     l4456:	
  1719                           
  1720                           ;main.c: 683: {
  1721                           ;main.c: 684: if(ucTimerDelay2 >= 2)
  1722  01A6  3002               	movlw	2
  1723  01A7  025D               	subwf	main@ucTimerDelay2,w
  1724  01A8  1C03               	skipc
  1725  01A9  2990               	goto	l4424
  1726                           
  1727                           ;main.c: 685: {
  1728                           ;main.c: 686: ucTimerDelay2 = 0;
  1729  01AA  01DD               	clrf	main@ucTimerDelay2
  1730                           
  1731                           ;main.c: 688: ucLoaderStep2 = 0;
  1732  01AB  01D5               	clrf	main@ucLoaderStep2
  1733  01AC  293D               	goto	l4342
  1734  01AD                     l4466:	
  1735  01AD  0855               	movf	main@ucLoaderStep2,w
  1736                           
  1737                           ; Switch size 1, requested type "space"
  1738                           ; Number of cases is 6, Range of values is 0 to 5
  1739                           ; switch strategies available:
  1740                           ; Name         Instructions Cycles
  1741                           ; direct_byte           19     7 (fixed)
  1742                           ; simple_byte           19    10 (average)
  1743                           ; jumptable            260     6 (fixed)
  1744                           ; rangetable            10     6 (fixed)
  1745                           ; spacedrange           18     9 (fixed)
  1746                           ; locatedrange           6     3 (fixed)
  1747                           ;	Chosen strategy is direct_byte
  1748  01AE  0084               	movwf	4
  1749  01AF  3006               	movlw	6
  1750  01B0  0204               	subwf	4,w
  1751  01B1  1803               	skipnc
  1752  01B2  2840               	goto	l4176
  1753  01B3  3005               	movlw	high S4926
  1754  01B4  008A               	movwf	10
  1755  01B5  1003               	clrc
  1756  01B6  0D04               	rlf	4,w
  1757  01B7  3EBC               	addlw	low S4926
  1758  01B8  0082               	movwf	2
  1759  01B9                     l844:	
  1760                           ;main.c: 710: {
  1761                           ;main.c: 711: case 0:
  1762                           
  1763                           
  1764                           ;main.c: 712: {
  1765                           ;main.c: 713: PB0 = 1;
  1766  01B9  1406               	bsf	6,0
  1767                           
  1768                           ;main.c: 714: PA0 = 1;
  1769  01BA  1405               	bsf	5,0
  1770                           
  1771                           ;main.c: 715: PA1 = 1;
  1772  01BB  1485               	bsf	5,1
  1773  01BC                     l4468:	
  1774                           
  1775                           ;main.c: 716: ucLoaderStep3++;
  1776  01BC  0AD6               	incf	main@ucLoaderStep3,f
  1777                           
  1778                           ;main.c: 717: break;
  1779  01BD  2840               	goto	l4176
  1780  01BE                     l4470:	
  1781                           
  1782                           ;main.c: 721: {
  1783                           ;main.c: 722: if(ucTimerDelay3 >= 5)
  1784  01BE  3005               	movlw	5
  1785  01BF  025E               	subwf	main@ucTimerDelay3,w
  1786  01C0  1C03               	skipc
  1787  01C1  29C5               	goto	l4478
  1788                           
  1789                           ;main.c: 723: {
  1790                           ;main.c: 724: PA2 = 1;
  1791  01C2  1505               	bsf	5,2
  1792  01C3                     l4474:	
  1793                           
  1794                           ;main.c: 725: ucTimerDelay3 = 0;
  1795  01C3  01DE               	clrf	main@ucTimerDelay3
  1796  01C4  29BC               	goto	l4468
  1797  01C5                     l4478:	
  1798                           
  1799                           ;main.c: 728: else
  1800                           ;main.c: 729: ucTimerDelay3++;
  1801  01C5  0ADE               	incf	main@ucTimerDelay3,f
  1802  01C6  2840               	goto	l4176
  1803  01C7                     l4480:	
  1804                           
  1805                           ;main.c: 734: {
  1806                           ;main.c: 735: if(ucTimerDelay3 >= 5)
  1807  01C7  3005               	movlw	5
  1808  01C8  025E               	subwf	main@ucTimerDelay3,w
  1809  01C9  1C03               	skipc
  1810  01CA  29C5               	goto	l4478
  1811                           
  1812                           ;main.c: 736: {
  1813                           ;main.c: 737: PA3 = 1;
  1814  01CB  1585               	bsf	5,3
  1815  01CC  29C3               	goto	l4474
  1816  01CD                     l4490:	
  1817                           
  1818                           ;main.c: 748: {
  1819                           ;main.c: 749: if(ucTimerDelay3 >= 5)
  1820  01CD  3005               	movlw	5
  1821  01CE  025E               	subwf	main@ucTimerDelay3,w
  1822  01CF  1C03               	skipc
  1823  01D0  29C5               	goto	l4478
  1824                           
  1825                           ;main.c: 750: {
  1826                           ;main.c: 752: PA2 = 0;
  1827  01D1  1105               	bcf	5,2
  1828                           
  1829                           ;main.c: 753: PA3 = 0;
  1830  01D2  1185               	bcf	5,3
  1831  01D3  29C3               	goto	l4474
  1832  01D4                     l4500:	
  1833                           
  1834                           ;main.c: 763: {
  1835                           ;main.c: 764: if(ucTimerDelay3 >= 2)
  1836  01D4  3002               	movlw	2
  1837  01D5  025E               	subwf	main@ucTimerDelay3,w
  1838  01D6  1C03               	skipc
  1839  01D7  29C5               	goto	l4478
  1840                           
  1841                           ;main.c: 765: {
  1842                           ;main.c: 766: ucTimerDelay3 = 0;
  1843  01D8  01DE               	clrf	main@ucTimerDelay3
  1844                           
  1845                           ;main.c: 768: ucLoaderStep3 = 0;
  1846  01D9  01D6               	clrf	main@ucLoaderStep3
  1847  01DA  293D               	goto	l4342
  1848  01DB                     l4510:	
  1849  01DB  0856               	movf	main@ucLoaderStep3,w
  1850                           
  1851                           ; Switch size 1, requested type "space"
  1852                           ; Number of cases is 5, Range of values is 0 to 4
  1853                           ; switch strategies available:
  1854                           ; Name         Instructions Cycles
  1855                           ; simple_byte           16     9 (average)
  1856                           ; direct_byte           17     7 (fixed)
  1857                           ; jumptable            260     6 (fixed)
  1858                           ; rangetable             9     6 (fixed)
  1859                           ; spacedrange           16     9 (fixed)
  1860                           ; locatedrange           5     3 (fixed)
  1861                           ;	Chosen strategy is simple_byte
  1862  01DC  3A00               	xorlw	0	; case 0
  1863  01DD  1903               	skipnz
  1864  01DE  29B9               	goto	l844
  1865  01DF  3A01               	xorlw	1	; case 1
  1866  01E0  1903               	skipnz
  1867  01E1  29BE               	goto	l4470
  1868  01E2  3A03               	xorlw	3	; case 2
  1869  01E3  1903               	skipnz
  1870  01E4  29C7               	goto	l4480
  1871  01E5  3A01               	xorlw	1	; case 3
  1872  01E6  1903               	skipnz
  1873  01E7  29CD               	goto	l4490
  1874  01E8  3A07               	xorlw	7	; case 4
  1875  01E9  1903               	skipnz
  1876  01EA  29D4               	goto	l4500
  1877  01EB  2863               	goto	l706
  1878  01EC                     l865:	
  1879                           ;main.c: 790: {
  1880                           ;main.c: 791: case 0:
  1881                           
  1882                           
  1883                           ;main.c: 792: {
  1884                           ;main.c: 793: PB0 = 1;
  1885  01EC  1406               	bsf	6,0
  1886                           
  1887                           ;main.c: 794: PA0 = 1;
  1888  01ED  1405               	bsf	5,0
  1889                           
  1890                           ;main.c: 795: PA1 = 1;
  1891  01EE  1485               	bsf	5,1
  1892                           
  1893                           ;main.c: 796: PA2 = 1;
  1894  01EF  1505               	bsf	5,2
  1895  01F0                     l4512:	
  1896                           
  1897                           ;main.c: 797: ucLoaderStep4++;
  1898  01F0  0AD7               	incf	main@ucLoaderStep4,f
  1899                           
  1900                           ;main.c: 798: break;
  1901  01F1  2840               	goto	l4176
  1902  01F2                     l4514:	
  1903                           
  1904                           ;main.c: 802: {
  1905                           ;main.c: 803: if(ucTimerDelay4 >= 5)
  1906  01F2  3005               	movlw	5
  1907  01F3  025F               	subwf	main@ucTimerDelay4,w
  1908  01F4  1C03               	skipc
  1909  01F5  29F9               	goto	l4522
  1910                           
  1911                           ;main.c: 804: {
  1912                           ;main.c: 805: PA3 = 1;
  1913  01F6  1585               	bsf	5,3
  1914  01F7                     l4518:	
  1915                           
  1916                           ;main.c: 806: ucTimerDelay4 = 0;
  1917  01F7  01DF               	clrf	main@ucTimerDelay4
  1918  01F8  29F0               	goto	l4512
  1919  01F9                     l4522:	
  1920                           
  1921                           ;main.c: 809: else
  1922                           ;main.c: 810: ucTimerDelay4++;
  1923  01F9  0ADF               	incf	main@ucTimerDelay4,f
  1924  01FA  2840               	goto	l4176
  1925  01FB                     l4524:	
  1926                           
  1927                           ;main.c: 815: {
  1928                           ;main.c: 816: if(ucTimerDelay4 >= 5)
  1929  01FB  3005               	movlw	5
  1930  01FC  025F               	subwf	main@ucTimerDelay4,w
  1931  01FD  1C03               	skipc
  1932  01FE  29F9               	goto	l4522
  1933                           
  1934                           ;main.c: 817: {
  1935                           ;main.c: 818: PA3 = 0;
  1936  01FF  1185               	bcf	5,3
  1937  0200  29F7               	goto	l4518
  1938  0201                     l4534:	
  1939                           
  1940                           ;main.c: 828: {
  1941                           ;main.c: 829: if(ucTimerDelay4 >= 2)
  1942  0201  3002               	movlw	2
  1943  0202  025F               	subwf	main@ucTimerDelay4,w
  1944  0203  1C03               	skipc
  1945  0204  29F9               	goto	l4522
  1946                           
  1947                           ;main.c: 830: {
  1948                           ;main.c: 831: ucTimerDelay4 = 0;
  1949  0205  01DF               	clrf	main@ucTimerDelay4
  1950                           
  1951                           ;main.c: 833: ucLoaderStep4 = 0;
  1952  0206  01D7               	clrf	main@ucLoaderStep4
  1953  0207  293D               	goto	l4342
  1954  0208                     l4544:	
  1955  0208  0857               	movf	main@ucLoaderStep4,w
  1956                           
  1957                           ; Switch size 1, requested type "space"
  1958                           ; Number of cases is 4, Range of values is 0 to 3
  1959                           ; switch strategies available:
  1960                           ; Name         Instructions Cycles
  1961                           ; simple_byte           13     7 (average)
  1962                           ; direct_byte           15     7 (fixed)
  1963                           ; jumptable            260     6 (fixed)
  1964                           ; rangetable             8     6 (fixed)
  1965                           ; spacedrange           14     9 (fixed)
  1966                           ; locatedrange           4     3 (fixed)
  1967                           ;	Chosen strategy is simple_byte
  1968  0209  3A00               	xorlw	0	; case 0
  1969  020A  1903               	skipnz
  1970  020B  29EC               	goto	l865
  1971  020C  3A01               	xorlw	1	; case 1
  1972  020D  1903               	skipnz
  1973  020E  29F2               	goto	l4514
  1974  020F  3A03               	xorlw	3	; case 2
  1975  0210  1903               	skipnz
  1976  0211  29FB               	goto	l4524
  1977  0212  3A01               	xorlw	1	; case 3
  1978  0213  1903               	skipnz
  1979  0214  2A01               	goto	l4534
  1980  0215  2863               	goto	l706
  1981  0216                     l4548:	
  1982  0216  0852               	movf	main@ucChannel4Type,w
  1983                           
  1984                           ; Switch size 1, requested type "space"
  1985                           ; Number of cases is 5, Range of values is 0 to 4
  1986                           ; switch strategies available:
  1987                           ; Name         Instructions Cycles
  1988                           ; simple_byte           16     9 (average)
  1989                           ; direct_byte           17     7 (fixed)
  1990                           ; jumptable            260     6 (fixed)
  1991                           ; rangetable             9     6 (fixed)
  1992                           ; spacedrange           16     9 (fixed)
  1993                           ; locatedrange           5     3 (fixed)
  1994                           ;	Chosen strategy is simple_byte
  1995  0217  3A00               	xorlw	0	; case 0
  1996  0218  1903               	skipnz
  1997  0219  293F               	goto	l4348
  1998  021A  3A01               	xorlw	1	; case 1
  1999  021B  1903               	skipnz
  2000  021C  2979               	goto	l4412
  2001  021D  3A03               	xorlw	3	; case 2
  2002  021E  1903               	skipnz
  2003  021F  29AD               	goto	l4466
  2004  0220  3A01               	xorlw	1	; case 3
  2005  0221  1903               	skipnz
  2006  0222  29DB               	goto	l4510
  2007  0223  3A07               	xorlw	7	; case 4
  2008  0224  1903               	skipnz
  2009  0225  2A08               	goto	l4544
  2010  0226  2863               	goto	l706
  2011  0227                     l4550:	
  2012                           
  2013                           ;main.c: 857: {
  2014                           ;main.c: 858: static unsigned char ucTimerDelayP5s = 0;
  2015                           ;main.c: 860: if(isFinishedTwentySecondsTimer())
  2016  0227  118A  25FB  118A   	fcall	_isFinishedTwentySecondsTimer
  2017  022A  3A00               	xorlw	0
  2018  022B  1903               	skipnz
  2019  022C  28D6               	goto	l4266
  2020                           
  2021                           ;main.c: 861: {
  2022                           ;main.c: 862: PBOD6 =0;
  2023  022D  1703               	bsf	3,6	;RP1=1, select bank3
  2024  022E  1308               	bcf	8,6
  2025                           
  2026                           ;main.c: 863: PB6 = 1;
  2027  022F  1283               	bcf	3,5	;RP0=0, select bank0
  2028  0230  3005               	movlw	5
  2029  0231  1303               	bcf	3,6	;RP1=0, select bank0
  2030  0232  1706               	bsf	6,6
  2031                           
  2032                           ;main.c: 864: PA6 = 0;
  2033  0233  1305               	bcf	5,6
  2034                           
  2035                           ;main.c: 871: if(ucTimerDelayP5s < 5)
  2036  0234  0260               	subwf	main@ucTimerDelayP5s,w
  2037  0235  1803               	skipnc
  2038  0236  2A39               	goto	l4558
  2039                           
  2040                           ;main.c: 872: {
  2041                           ;main.c: 873: ucTimerDelayP5s++;
  2042  0237  0AE0               	incf	main@ucTimerDelayP5s,f
  2043                           
  2044                           ;main.c: 874: }
  2045  0238  2840               	goto	l4176
  2046  0239                     l4558:	
  2047                           
  2048                           ;main.c: 875: else
  2049                           ;main.c: 876: {
  2050                           ;main.c: 878: ucTimerDelayP5s = 0;
  2051  0239  01E0               	clrf	main@ucTimerDelayP5s
  2052                           
  2053                           ;main.c: 880: if((getAdOriginalCh14Value() > 2800))
  2054  023A  118A  243D  118A   	fcall	_getAdOriginalCh14Value
  2055  023D  300A               	movlw	10
  2056  023E  0248               	subwf	?_getAdOriginalCh14Value+1,w
  2057  023F  30F1               	movlw	241
  2058  0240  1903               	skipnz
  2059  0241  0247               	subwf	?_getAdOriginalCh14Value,w
  2060  0242  1C03               	skipc
  2061  0243  2A46               	goto	l4564
  2062                           
  2063                           ;main.c: 881: DACR0=0x0F;
  2064  0244  300F               	movlw	15
  2065  0245  2A47               	goto	L8
  2066  0246                     l4564:	
  2067                           
  2068                           ;main.c: 882: else
  2069                           ;main.c: 883: DACR0=0x07;
  2070  0246  3007               	movlw	7
  2071  0247                     L8:	
  2072  0247  1683               	bsf	3,5	;RP0=1, select bank1
  2073  0248  0088               	movwf	8	;volatile
  2074                           
  2075                           ;main.c: 885: ucADC4_Step = ADC4_STEP_FOURTH;
  2076  0249  3004               	movlw	4
  2077  024A  1283               	bcf	3,5	;RP0=0, select bank0
  2078  024B                     L7:	
  2079  024B  00D1               	movwf	main@ucADC4_Step
  2080  024C  2840               	goto	l4176
  2081  024D                     l4566:	
  2082                           
  2083                           ;main.c: 895: {
  2084                           ;main.c: 896: static unsigned char ucTimer1s = 0;
  2085                           ;main.c: 898: static unsigned char ucTimerSeond1s = 0;
  2086                           ;main.c: 900: if(ucTimerSeond1s < 5)
  2087  024D  3005               	movlw	5
  2088  024E  0267               	subwf	main@ucTimerSeond1s,w
  2089  024F  1803               	skipnc
  2090  0250  2A53               	goto	l4570
  2091                           
  2092                           ;main.c: 901: {
  2093                           ;main.c: 902: ucTimerSeond1s++;
  2094  0251  0AE7               	incf	main@ucTimerSeond1s,f
  2095                           
  2096                           ;main.c: 903: }
  2097  0252  2840               	goto	l4176
  2098  0253                     l4570:	
  2099  0253  3005               	movlw	5
  2100                           
  2101                           ;main.c: 904: else
  2102                           ;main.c: 905: {
  2103                           ;main.c: 906: ucTimerSeond1s = 0;
  2104  0254  01E7               	clrf	main@ucTimerSeond1s
  2105                           
  2106                           ;main.c: 908: if(ucTimer1s < 5)
  2107  0255  0258               	subwf	main@ucTimer1s,w
  2108  0256  1803               	skipnc
  2109  0257  2A5E               	goto	l4580
  2110                           
  2111                           ;main.c: 909: {
  2112                           ;main.c: 910: ucTimer1s++;
  2113  0258  0AD8               	incf	main@ucTimer1s,f
  2114                           
  2115                           ;main.c: 911: PB6 = 1;
  2116  0259  1706               	bsf	6,6
  2117                           
  2118                           ;main.c: 912: PBOD6 = 1;
  2119  025A  1683               	bsf	3,5	;RP0=1, select bank3
  2120  025B  1703               	bsf	3,6	;RP1=1, select bank3
  2121  025C  1708               	bsf	8,6
  2122                           
  2123                           ;main.c: 913: }
  2124  025D  2840               	goto	l4176
  2125  025E                     l4580:	
  2126                           
  2127                           ;main.c: 914: else
  2128                           ;main.c: 915: {
  2129                           ;main.c: 916: ucTimer1s = 0;
  2130  025E  01D8               	clrf	main@ucTimer1s
  2131                           
  2132                           ;main.c: 918: enumMainLoopStep = MAIN_LOOP_STEP_FIRST;
  2133  025F  01D0               	clrf	main@enumMainLoopStep
  2134  0260  0AD0               	incf	main@enumMainLoopStep,f
  2135                           
  2136                           ;main.c: 919: ucADC4_Step = ADC4_STEP_INIT;
  2137  0261  01D1               	clrf	main@ucADC4_Step
  2138  0262  2840               	goto	l4176
  2139  0263                     l4586:	
  2140  0263  1283               	bcf	3,5	;RP0=0, select bank0
  2141  0264  0851               	movf	main@ucADC4_Step,w
  2142                           
  2143                           ; Switch size 1, requested type "space"
  2144                           ; Number of cases is 5, Range of values is 0 to 4
  2145                           ; switch strategies available:
  2146                           ; Name         Instructions Cycles
  2147                           ; simple_byte           16     9 (average)
  2148                           ; direct_byte           17     7 (fixed)
  2149                           ; jumptable            260     6 (fixed)
  2150                           ; rangetable             9     6 (fixed)
  2151                           ; spacedrange           16     9 (fixed)
  2152                           ; locatedrange           5     3 (fixed)
  2153                           ;	Chosen strategy is simple_byte
  2154  0265  3A00               	xorlw	0	; case 0
  2155  0266  1903               	skipnz
  2156  0267  28D3               	goto	l4264
  2157  0268  3A01               	xorlw	1	; case 1
  2158  0269  1903               	skipnz
  2159  026A  28DA               	goto	l4268
  2160  026B  3A03               	xorlw	3	; case 2
  2161  026C  1903               	skipnz
  2162  026D  2A16               	goto	l4548
  2163  026E  3A01               	xorlw	1	; case 3
  2164  026F  1903               	skipnz
  2165  0270  2A27               	goto	l4550
  2166  0271  3A07               	xorlw	7	; case 4
  2167  0272  1903               	skipnz
  2168  0273  2A4D               	goto	l4566
  2169  0274  2863               	goto	l706
  2170  0275                     l901:	
  2171                           ;main.c: 946: {
  2172                           ;main.c: 947: case HOUR_3_BRANCH_STEP_FIRST:
  2173                           
  2174                           
  2175                           ;main.c: 948: {
  2176                           ;main.c: 949: PA7 = 1;
  2177  0275  1785               	bsf	5,7
  2178                           
  2179                           ;main.c: 950: PAOD7 = 1;
  2180  0276  1683               	bsf	3,5	;RP0=1, select bank3
  2181  0277  303C               	movlw	60
  2182  0278  1703               	bsf	3,6	;RP1=1, select bank3
  2183  0279  1787               	bsf	7,7
  2184                           
  2185                           ;main.c: 951: startThreeHoursTimer(60);
  2186  027A  1283               	bcf	3,5	;RP0=0, select bank0
  2187  027B  1303               	bcf	3,6	;RP1=0, select bank0
  2188  027C  00A0               	movwf	?_startThreeHoursTimer
  2189  027D  01A1               	clrf	?_startThreeHoursTimer+1
  2190  027E  118A  25A0  118A   	fcall	_startThreeHoursTimer
  2191                           
  2192                           ;main.c: 953: PB0 = 1;
  2193  0281  1283               	bcf	3,5	;RP0=0, select bank0
  2194  0282  1406               	bsf	6,0
  2195                           
  2196                           ;main.c: 954: PA0 = 1;
  2197  0283  1405               	bsf	5,0
  2198                           
  2199                           ;main.c: 955: PA1 = 1;
  2200  0284  1485               	bsf	5,1
  2201                           
  2202                           ;main.c: 956: PA2 = 1;
  2203  0285  1505               	bsf	5,2
  2204                           
  2205                           ;main.c: 957: PA3 = 1;
  2206  0286  1585               	bsf	5,3
  2207                           
  2208                           ;main.c: 959: enumBranchStep = HOUR_3_BRANCH_STEP_SECOND;
  2209  0287  01CE               	clrf	main@enumBranchStep
  2210  0288  0ACE               	incf	main@enumBranchStep,f
  2211                           
  2212                           ;main.c: 960: break;
  2213  0289  2840               	goto	l4176
  2214  028A                     l4602:	
  2215                           
  2216                           ;main.c: 964: {
  2217                           ;main.c: 965: static unsigned char ucTimer20s = 0;
  2218                           ;main.c: 967: if(ucTimer20s < 200)
  2219  028A  30C8               	movlw	200
  2220  028B  0259               	subwf	main@ucTimer20s,w
  2221  028C  1803               	skipnc
  2222  028D  2A90               	goto	l4606
  2223                           
  2224                           ;main.c: 968: {
  2225                           ;main.c: 969: ucTimer20s++;
  2226  028E  0AD9               	incf	main@ucTimer20s,f
  2227                           
  2228                           ;main.c: 971: }
  2229  028F  2840               	goto	l4176
  2230  0290                     l4606:	
  2231  0290  3002               	movlw	2
  2232                           
  2233                           ;main.c: 972: else
  2234                           ;main.c: 973: {
  2235                           ;main.c: 975: ucTimer20s = 0;
  2236  0291  01D9               	clrf	main@ucTimer20s
  2237                           
  2238                           ;main.c: 977: enumBranchStep = HOUR_3_BRANCH_STEP_THIRD;
  2239  0292  00CE               	movwf	main@enumBranchStep
  2240                           
  2241                           ;main.c: 979: PA6 = 0;
  2242  0293  1305               	bcf	5,6
  2243  0294  2840               	goto	l4176
  2244  0295                     l4612:	
  2245                           
  2246                           ;main.c: 985: {
  2247                           ;main.c: 986: if(isFinishedThreeHoursTimer())
  2248  0295  118A  25F5  118A   	fcall	_isFinishedThreeHoursTimer
  2249  0298  3A00               	xorlw	0
  2250  0299  1903               	skipnz
  2251  029A  2A9E               	goto	l4618
  2252                           
  2253                           ;main.c: 987: {
  2254                           ;main.c: 988: enumBranchStep = HOUR_3_BRANCH_STEP_FIRST;
  2255  029B  1283               	bcf	3,5	;RP0=0, select bank0
  2256  029C  01CE               	clrf	main@enumBranchStep
  2257  029D  28D0               	goto	l4262
  2258  029E                     l4618:	
  2259                           
  2260                           ;main.c: 991: else
  2261                           ;main.c: 992: {
  2262                           ;main.c: 993: static unsigned char ucTimerX1P5s = 0;
  2263                           ;main.c: 995: static unsigned char ucTimerLessX1P5s = 0;
  2264                           ;main.c: 997: if(getAdOriginalCh1Value() < 130)
  2265  029E  118A  2436  118A   	fcall	_getAdOriginalCh1Value
  2266  02A1  3000               	movlw	0
  2267  02A2  0248               	subwf	?_getAdOriginalCh1Value+1,w
  2268  02A3  3082               	movlw	130
  2269  02A4  1903               	skipnz
  2270  02A5  0247               	subwf	?_getAdOriginalCh1Value,w
  2271  02A6  1803               	skipnc
  2272  02A7  2AAB               	goto	l4624
  2273                           
  2274                           ;main.c: 998: {
  2275                           ;main.c: 999: ucTimerX1P5s = 0;
  2276  02A8  01E8               	clrf	main@ucTimerX1P5s
  2277                           
  2278                           ;main.c: 1000: ucTimerLessX1P5s++;
  2279  02A9  0AE2               	incf	main@ucTimerLessX1P5s,f
  2280                           
  2281                           ;main.c: 1001: }
  2282  02AA  2AAD               	goto	l4628
  2283  02AB                     l4624:	
  2284                           
  2285                           ;main.c: 1002: else
  2286                           ;main.c: 1003: {
  2287                           ;main.c: 1004: ucTimerX1P5s++;
  2288  02AB  0AE8               	incf	main@ucTimerX1P5s,f
  2289                           
  2290                           ;main.c: 1005: ucTimerLessX1P5s = 0;
  2291  02AC  01E2               	clrf	main@ucTimerLessX1P5s
  2292  02AD                     l4628:	
  2293                           
  2294                           ;main.c: 1006: }
  2295                           ;main.c: 1008: if(ucTimerX1P5s >= 5)
  2296  02AD  3005               	movlw	5
  2297  02AE  0268               	subwf	main@ucTimerX1P5s,w
  2298  02AF  1C03               	skipc
  2299  02B0  2AC0               	goto	l4642
  2300                           
  2301                           ;main.c: 1009: {
  2302                           ;main.c: 1010: ucTimerX1P5s = 0;
  2303  02B1  01E8               	clrf	main@ucTimerX1P5s
  2304                           
  2305                           ;main.c: 1011: PAOD7 = 0;
  2306  02B2  1683               	bsf	3,5	;RP0=1, select bank3
  2307  02B3  1703               	bsf	3,6	;RP1=1, select bank3
  2308  02B4  1387               	bcf	7,7
  2309                           
  2310                           ;main.c: 1012: PA7 = 0;
  2311  02B5  1283               	bcf	3,5	;RP0=0, select bank0
  2312  02B6  1303               	bcf	3,6	;RP1=0, select bank0
  2313  02B7  1385               	bcf	5,7
  2314                           
  2315                           ;main.c: 1013: clearThreeHoursTimer();
  2316  02B8  118A  2558  118A   	fcall	_clearThreeHoursTimer
  2317                           
  2318                           ;main.c: 1015: enumBranchStep = HOUR_3_BRANCH_STEP_FIRST;
  2319  02BB  1283               	bcf	3,5	;RP0=0, select bank0
  2320  02BC  3002               	movlw	2
  2321  02BD  01CE               	clrf	main@enumBranchStep
  2322  02BE                     L4:	
  2323                           ;main.c: 1017: enumMainLoopStep = MAIN_LOOP_STEP_SECOND;
  2324                           
  2325  02BE  00D0               	movwf	main@enumMainLoopStep
  2326                           
  2327                           ;main.c: 1018: }
  2328  02BF  2840               	goto	l4176
  2329  02C0                     l4642:	
  2330                           
  2331                           ;main.c: 1019: else if(ucTimerLessX1P5s >= 5)
  2332  02C0  3005               	movlw	5
  2333  02C1  0262               	subwf	main@ucTimerLessX1P5s,w
  2334  02C2  1C03               	skipc
  2335  02C3  2840               	goto	l4176
  2336                           
  2337                           ;main.c: 1020: {
  2338                           ;main.c: 1021: static unsigned char ucTimerX2P5s = 0;
  2339                           ;main.c: 1023: static unsigned char ucTimerLessX2P5s = 0;
  2340                           ;main.c: 1025: if(getAdOriginalCh14Value() >= 1950)
  2341  02C4  118A  243D  118A   	fcall	_getAdOriginalCh14Value
  2342  02C7  3007               	movlw	7
  2343  02C8  0248               	subwf	?_getAdOriginalCh14Value+1,w
  2344  02C9  309E               	movlw	158
  2345  02CA  1903               	skipnz
  2346  02CB  0247               	subwf	?_getAdOriginalCh14Value,w
  2347  02CC  1C03               	skipc
  2348  02CD  2AD1               	goto	l4650
  2349                           
  2350                           ;main.c: 1026: {
  2351                           ;main.c: 1027: ucTimerX2P5s++;
  2352  02CE  0AE9               	incf	main@ucTimerX2P5s,f
  2353                           
  2354                           ;main.c: 1028: ucTimerLessX2P5s = 0;
  2355  02CF  01E3               	clrf	main@ucTimerLessX2P5s
  2356                           
  2357                           ;main.c: 1029: }
  2358  02D0  2AD3               	goto	l4654
  2359  02D1                     l4650:	
  2360                           
  2361                           ;main.c: 1030: else
  2362                           ;main.c: 1031: {
  2363                           ;main.c: 1032: ucTimerX2P5s = 0;
  2364  02D1  01E9               	clrf	main@ucTimerX2P5s
  2365                           
  2366                           ;main.c: 1033: ucTimerLessX2P5s++;
  2367  02D2  0AE3               	incf	main@ucTimerLessX2P5s,f
  2368  02D3                     l4654:	
  2369                           
  2370                           ;main.c: 1034: }
  2371                           ;main.c: 1036: if(ucTimerX2P5s >= 5)
  2372  02D3  3005               	movlw	5
  2373  02D4  0269               	subwf	main@ucTimerX2P5s,w
  2374  02D5  1C03               	skipc
  2375  02D6  2AD9               	goto	l4658
  2376                           
  2377                           ;main.c: 1037: {
  2378                           ;main.c: 1038: ucTimerX2P5s = 0;
  2379  02D7  01E9               	clrf	main@ucTimerX2P5s
  2380                           
  2381                           ;main.c: 1039: }
  2382  02D8  2840               	goto	l4176
  2383  02D9                     l4658:	
  2384                           
  2385                           ;main.c: 1040: else if(ucTimerLessX2P5s >= 5)
  2386  02D9  3005               	movlw	5
  2387  02DA  0263               	subwf	main@ucTimerLessX2P5s,w
  2388  02DB  1C03               	skipc
  2389  02DC  2840               	goto	l4176
  2390                           
  2391                           ;main.c: 1041: {
  2392                           ;main.c: 1042: clearPinPortAndTimer();
  2393  02DD  118A  2543  118A   	fcall	_clearPinPortAndTimer
  2394  02E0  2860               	goto	l4194
  2395  02E1                     l4666:	
  2396  02E1  084E               	movf	main@enumBranchStep,w
  2397                           
  2398                           ; Switch size 1, requested type "space"
  2399                           ; Number of cases is 3, Range of values is 0 to 2
  2400                           ; switch strategies available:
  2401                           ; Name         Instructions Cycles
  2402                           ; simple_byte           10     6 (average)
  2403                           ; direct_byte           13     7 (fixed)
  2404                           ; jumptable            260     6 (fixed)
  2405                           ; rangetable             7     6 (fixed)
  2406                           ; spacedrange           12     9 (fixed)
  2407                           ; locatedrange           3     3 (fixed)
  2408                           ;	Chosen strategy is simple_byte
  2409  02E2  3A00               	xorlw	0	; case 0
  2410  02E3  1903               	skipnz
  2411  02E4  2A75               	goto	l901
  2412  02E5  3A01               	xorlw	1	; case 1
  2413  02E6  1903               	skipnz
  2414  02E7  2A8A               	goto	l4602
  2415  02E8  3A03               	xorlw	3	; case 2
  2416  02E9  1903               	skipnz
  2417  02EA  2A95               	goto	l4612
  2418  02EB  2863               	goto	l706
  2419  02EC                     l936:	
  2420                           ;main.c: 1080: {
  2421                           ;main.c: 1081: case INTERNAL_FIRST_STEP:
  2422                           
  2423                           
  2424                           ;main.c: 1082: {
  2425                           ;main.c: 1083: PB0 = 0;
  2426  02EC  1006               	bcf	6,0
  2427                           
  2428                           ;main.c: 1084: PB1 = 0;
  2429  02ED  1086               	bcf	6,1
  2430                           
  2431                           ;main.c: 1085: PA0 = 0;
  2432  02EE  1005               	bcf	5,0
  2433                           
  2434                           ;main.c: 1086: PA1 = 0;
  2435  02EF  1085               	bcf	5,1
  2436                           
  2437                           ;main.c: 1087: PA2 = 0;
  2438  02F0  1105               	bcf	5,2
  2439                           
  2440                           ;main.c: 1088: PA3 = 0;
  2441  02F1  1185               	bcf	5,3
  2442                           
  2443                           ;main.c: 1089: PBOD6 = 0;
  2444  02F2  1683               	bsf	3,5	;RP0=1, select bank3
  2445  02F3  1703               	bsf	3,6	;RP1=1, select bank3
  2446  02F4  1308               	bcf	8,6
  2447                           
  2448                           ;main.c: 1090: PB6 = 1;
  2449  02F5  1283               	bcf	3,5	;RP0=0, select bank0
  2450  02F6  1303               	bcf	3,6	;RP1=0, select bank0
  2451  02F7  1706               	bsf	6,6
  2452                           
  2453                           ;main.c: 1091: PA6 =0;
  2454  02F8  1305               	bcf	5,6
  2455                           
  2456                           ;main.c: 1093: enumInteralStep = INTERNAL_SECOND_STEP;
  2457  02F9  01CF               	clrf	main@enumInteralStep
  2458  02FA  0ACF               	incf	main@enumInteralStep,f
  2459                           
  2460                           ;main.c: 1094: break;
  2461  02FB  2840               	goto	l4176
  2462  02FC                     l4668:	
  2463                           
  2464                           ;main.c: 1098: {
  2465                           ;main.c: 1099: static unsigned char ucTimer1s = 0;
  2466                           ;main.c: 1101: if(getAdOriginalCh14Value() <= 1000)
  2467  02FC  118A  243D  118A   	fcall	_getAdOriginalCh14Value
  2468  02FF  3003               	movlw	3
  2469  0300  0248               	subwf	?_getAdOriginalCh14Value+1,w
  2470  0301  30E9               	movlw	233
  2471  0302  1903               	skipnz
  2472  0303  0247               	subwf	?_getAdOriginalCh14Value,w
  2473  0304  1803               	skipnc
  2474  0305  2B08               	goto	l4672
  2475                           
  2476                           ;main.c: 1102: {
  2477                           ;main.c: 1103: ucTimer1s++;
  2478  0306  0ACD               	incf	main@cTimer1s_815,f
  2479                           
  2480                           ;main.c: 1104: }
  2481  0307  2B09               	goto	l4674
  2482  0308                     l4672:	
  2483                           
  2484                           ;main.c: 1105: else
  2485                           ;main.c: 1106: ucTimer1s = 0;
  2486  0308  01CD               	clrf	main@cTimer1s_815
  2487  0309                     l4674:	
  2488                           
  2489                           ;main.c: 1108: if(ucTimer1s >= 10)
  2490  0309  300A               	movlw	10
  2491  030A  024D               	subwf	main@cTimer1s_815,w
  2492  030B  1C03               	skipc
  2493  030C  2840               	goto	l4176
  2494                           
  2495                           ;main.c: 1109: {
  2496                           ;main.c: 1110: enumInteralStep = INTERNAL_THIRD_STEP;
  2497  030D  3002               	movlw	2
  2498  030E  00CF               	movwf	main@enumInteralStep
  2499                           
  2500                           ;main.c: 1111: ucTimer1s = 0;
  2501  030F  01CD               	clrf	main@cTimer1s_815
  2502  0310  2840               	goto	l4176
  2503  0311                     l4680:	
  2504                           
  2505                           ;main.c: 1117: {
  2506                           ;main.c: 1118: static unsigned char ucTimerP3s = 0;
  2507                           ;main.c: 1120: if(getAdOriginalCh14Value() >= 1950)
  2508  0311  118A  243D  118A   	fcall	_getAdOriginalCh14Value
  2509  0314  3007               	movlw	7
  2510  0315  0248               	subwf	?_getAdOriginalCh14Value+1,w
  2511  0316  309E               	movlw	158
  2512  0317  1903               	skipnz
  2513  0318  0247               	subwf	?_getAdOriginalCh14Value,w
  2514  0319  1C03               	skipc
  2515  031A  2B1D               	goto	l4684
  2516                           
  2517                           ;main.c: 1121: {
  2518                           ;main.c: 1122: ucTimerP3s++;
  2519  031B  0AE4               	incf	main@ucTimerP3s,f
  2520                           
  2521                           ;main.c: 1123: }
  2522  031C  2B1E               	goto	l4686
  2523  031D                     l4684:	
  2524                           
  2525                           ;main.c: 1124: else
  2526                           ;main.c: 1125: ucTimerP3s = 0;
  2527  031D  01E4               	clrf	main@ucTimerP3s
  2528  031E                     l4686:	
  2529                           
  2530                           ;main.c: 1127: if(ucTimerP3s >= 3)
  2531  031E  3003               	movlw	3
  2532  031F  0264               	subwf	main@ucTimerP3s,w
  2533  0320  1C03               	skipc
  2534  0321  2840               	goto	l4176
  2535                           
  2536                           ;main.c: 1128: {
  2537                           ;main.c: 1129: enumInteralStep = INTERNAL_FIRST_STEP;
  2538  0322  01CF               	clrf	main@enumInteralStep
  2539                           
  2540                           ;main.c: 1130: ucTimerP3s = 0;
  2541  0323  01E4               	clrf	main@ucTimerP3s
  2542                           
  2543                           ;main.c: 1131: clearAllTimer();
  2544  0324  118A  254F  118A   	fcall	_clearAllTimer
  2545                           
  2546                           ;main.c: 1133: DACR0=0x0F;
  2547  0327  300F               	movlw	15
  2548  0328  0088               	movwf	8	;volatile
  2549                           
  2550                           ;main.c: 1134: initPin();
  2551  0329  118A  255F  118A   	fcall	_initPin
  2552                           
  2553                           ;main.c: 1137: enumMainLoopStep = MAIN_LOOP_STEP_INIT;
  2554  032C  1283               	bcf	3,5	;RP0=0, select bank0
  2555  032D  1303               	bcf	3,6	;RP1=0, select bank0
  2556  032E  01D0               	clrf	main@enumMainLoopStep
  2557  032F  2840               	goto	l4176
  2558  0330                     l4700:	
  2559  0330  084F               	movf	main@enumInteralStep,w
  2560                           
  2561                           ; Switch size 1, requested type "space"
  2562                           ; Number of cases is 3, Range of values is 0 to 2
  2563                           ; switch strategies available:
  2564                           ; Name         Instructions Cycles
  2565                           ; simple_byte           10     6 (average)
  2566                           ; direct_byte           13     7 (fixed)
  2567                           ; jumptable            260     6 (fixed)
  2568                           ; rangetable             7     6 (fixed)
  2569                           ; spacedrange           12     9 (fixed)
  2570                           ; locatedrange           3     3 (fixed)
  2571                           ;	Chosen strategy is simple_byte
  2572  0331  3A00               	xorlw	0	; case 0
  2573  0332  1903               	skipnz
  2574  0333  2AEC               	goto	l936
  2575  0334  3A01               	xorlw	1	; case 1
  2576  0335  1903               	skipnz
  2577  0336  2AFC               	goto	l4668
  2578  0337  3A03               	xorlw	3	; case 2
  2579  0338  1903               	skipnz
  2580  0339  2B11               	goto	l4680
  2581  033A  2863               	goto	l706
  2582  033B                     l4704:	
  2583  033B  0850               	movf	main@enumMainLoopStep,w
  2584                           
  2585                           ; Switch size 1, requested type "space"
  2586                           ; Number of cases is 8, Range of values is 0 to 9
  2587                           ; switch strategies available:
  2588                           ; Name         Instructions Cycles
  2589                           ; simple_byte           25    13 (average)
  2590                           ; direct_byte           27     7 (fixed)
  2591                           ; jumptable            260     6 (fixed)
  2592                           ; rangetable            14     6 (fixed)
  2593                           ; spacedrange           26     9 (fixed)
  2594                           ; locatedrange          10     3 (fixed)
  2595                           ;	Chosen strategy is simple_byte
  2596  033C  3A00               	xorlw	0	; case 0
  2597  033D  1903               	skipnz
  2598  033E  284E               	goto	l4184
  2599  033F  3A01               	xorlw	1	; case 1
  2600  0340  1903               	skipnz
  2601  0341  2864               	goto	l4196
  2602  0342  3A03               	xorlw	3	; case 2
  2603  0343  1903               	skipnz
  2604  0344  287C               	goto	l714
  2605  0345  3A01               	xorlw	1	; case 3
  2606  0346  1903               	skipnz
  2607  0347  2886               	goto	l4218
  2608  0348  3A07               	xorlw	7	; case 4
  2609  0349  1903               	skipnz
  2610  034A  28C1               	goto	l4256
  2611  034B  3A01               	xorlw	1	; case 5
  2612  034C  1903               	skipnz
  2613  034D  28CA               	goto	l4260
  2614  034E  3A0D               	xorlw	13	; case 8
  2615  034F  1903               	skipnz
  2616  0350  2AE1               	goto	l4666
  2617  0351  3A01               	xorlw	1	; case 9
  2618  0352  1903               	skipnz
  2619  0353  2B30               	goto	l4700
  2620  0354  2863               	goto	l706
  2621  0355  118A  2811         	ljmp	start
  2622  0357                     __end_of_main:	
  2623                           
  2624                           	psect	swtext1
  2625  0584                     __pswtext1:	
  2626  0584                     S4922:	
  2627  0584  118A  290F         	ljmp	l765
  2628  0586  118A  2912         	ljmp	l4288
  2629  0588  118A  291B         	ljmp	l4298
  2630  058A  118A  2921         	ljmp	l4308
  2631  058C  118A  2927         	ljmp	l4318
  2632  058E  118A  292D         	ljmp	l4328
  2633  0590  118A  2937         	ljmp	l4338
  2634                           
  2635                           	psect	swtext2
  2636  0592                     __pswtext2:	
  2637  0592                     S4924:	
  2638  0592  118A  294B         	ljmp	l793
  2639  0594  118A  294E         	ljmp	l4352
  2640  0596  118A  2957         	ljmp	l4362
  2641  0598  118A  295D         	ljmp	l4372
  2642  059A  118A  2963         	ljmp	l4382
  2643  059C  118A  2969         	ljmp	l4392
  2644  059E  118A  2972         	ljmp	l4402
  2645                           
  2646                           	psect	swtext3
  2647  05BC                     __pswtext3:	
  2648  05BC                     S4926:	
  2649  05BC  118A  2985         	ljmp	l820
  2650  05BE  118A  2989         	ljmp	l4416
  2651  05C0  118A  2992         	ljmp	l4426
  2652  05C2  118A  2998         	ljmp	l4436
  2653  05C4  118A  299E         	ljmp	l4446
  2654  05C6  118A  29A6         	ljmp	l4456
  2655                           
  2656                           	psect	text734
  2657  0543                     __ptext734:	
  2658 ;; =============== function _main ends ============
  2659                           
  2660                           
  2661 ;; *************** function _clearPinPortAndTimer *****************
  2662 ;; Defined at:
  2663 ;;		line 92 in file "C:\190604\AK7030-OTP\main.c"
  2664 ;; Parameters:    Size  Location     Type
  2665 ;;		None
  2666 ;; Auto vars:     Size  Location     Type
  2667 ;;		None
  2668 ;; Return value:  Size  Location     Type
  2669 ;;		None               void
  2670 ;; Registers used:
  2671 ;;		status,2, status,0, pclath, cstack
  2672 ;; Tracked objects:
  2673 ;;		On entry : 160/0
  2674 ;;		On exit  : 160/20
  2675 ;;		Unchanged: FFE9F/0
  2676 ;; Data sizes:     COMMON   BANK0   BANK1   BANK3   BANK2
  2677 ;;      Params:         0       0       0       0       0
  2678 ;;      Locals:         0       0       0       0       0
  2679 ;;      Temps:          0       0       0       0       0
  2680 ;;      Totals:         0       0       0       0       0
  2681 ;;Total ram usage:        0 bytes
  2682 ;; Hardware stack levels used:    1
  2683 ;; Hardware stack levels required when called:    4
  2684 ;; This function calls:
  2685 ;;		_clearAllTimer
  2686 ;; This function is called by:
  2687 ;;		_main
  2688 ;; This function uses a non-reentrant model
  2689 ;;
  2690  0543                     _clearPinPortAndTimer:	
  2691                           
  2692                           ;main.c: 93: PB0 = 0;
  2693                           
  2694                           ; Regs used in _clearPinPortAndTimer: [status,2+status,0+pclath+cstack]
  2695  0543  1006               	bcf	6,0
  2696                           
  2697                           ;main.c: 94: PA0 = 0;
  2698  0544  1005               	bcf	5,0
  2699                           
  2700                           ;main.c: 95: PA1 = 0;
  2701  0545  1085               	bcf	5,1
  2702                           
  2703                           ;main.c: 96: PA2 = 0;
  2704  0546  1105               	bcf	5,2
  2705                           
  2706                           ;main.c: 97: PA3 = 0;
  2707  0547  1185               	bcf	5,3
  2708                           
  2709                           ;main.c: 98: PAOD7 = 0;
  2710  0548  1683               	bsf	3,5	;RP0=1, select bank3
  2711  0549  1703               	bsf	3,6	;RP1=1, select bank3
  2712  054A  1387               	bcf	7,7
  2713                           
  2714                           ;main.c: 99: PA7 = 0;
  2715  054B  1283               	bcf	3,5	;RP0=0, select bank0
  2716  054C  1303               	bcf	3,6	;RP1=0, select bank0
  2717  054D  1385               	bcf	5,7
  2718                           
  2719                           ;main.c: 100: clearAllTimer();
  2720  054E  2D4F               	ljmp	l4120
  2721  054F                     __end_of_clearPinPortAndTimer:	
  2722  054F                     __ptext739:	
  2723 ;; =============== function _process_AD_Converter_Value ends ============
  2724                           
  2725                           
  2726 ;; *************** function _clearAllTimer *****************
  2727 ;; Defined at:
  2728 ;;		line 83 in file "C:\190604\AK7030-OTP\main.c"
  2729 ;; Parameters:    Size  Location     Type
  2730 ;;		None
  2731 ;; Auto vars:     Size  Location     Type
  2732 ;;		None
  2733 ;; Return value:  Size  Location     Type
  2734 ;;		None               void
  2735 ;; Registers used:
  2736 ;;		status,2, status,0, pclath, cstack
  2737 ;; Tracked objects:
  2738 ;;		On entry : 160/0
  2739 ;;		On exit  : 160/20
  2740 ;;		Unchanged: FFE9F/0
  2741 ;; Data sizes:     COMMON   BANK0   BANK1   BANK3   BANK2
  2742 ;;      Params:         0       0       0       0       0
  2743 ;;      Locals:         0       0       0       0       0
  2744 ;;      Temps:          0       0       0       0       0
  2745 ;;      Totals:         0       0       0       0       0
  2746 ;;Total ram usage:        0 bytes
  2747 ;; Hardware stack levels used:    1
  2748 ;; Hardware stack levels required when called:    3
  2749 ;; This function calls:
  2750 ;;		_clearTwelveHoursTimer
  2751 ;;		_clearThreeHoursTimer
  2752 ;;		_clearTwentySecondsTimer
  2753 ;; This function is called by:
  2754 ;;		_clearPinPortAndTimer
  2755 ;;		_main
  2756 ;; This function uses a non-reentrant model
  2757 ;;
  2758  054F                     _clearAllTimer:	
  2759  054F                     l4120:	
  2760                           ; Regs used in _clearAllTimer: [status,2+status,0+pclath+cstack]
  2761                           
  2762                           
  2763                           ;main.c: 84: clearTwelveHoursTimer();
  2764  054F  2554  118A         	fcall	_clearTwelveHoursTimer
  2765                           
  2766                           ;main.c: 85: clearThreeHoursTimer();
  2767  0551  2558  118A         	fcall	_clearThreeHoursTimer
  2768                           
  2769                           ;main.c: 86: clearTwentySecondsTimer();
  2770  0553  2D5C               	ljmp	l3850
  2771  0554                     __end_of_clearAllTimer:	
  2772  0554                     __ptext763:	
  2773 ;; =============== function _clearThreeHoursTimer ends ============
  2774                           
  2775                           
  2776 ;; *************** function _clearTwelveHoursTimer *****************
  2777 ;; Defined at:
  2778 ;;		line 365 in file "C:\190604\AK7030-OTP\common.c"
  2779 ;; Parameters:    Size  Location     Type
  2780 ;;		None
  2781 ;; Auto vars:     Size  Location     Type
  2782 ;;		None
  2783 ;; Return value:  Size  Location     Type
  2784 ;;		None               void
  2785 ;; Registers used:
  2786 ;;		status,2
  2787 ;; Tracked objects:
  2788 ;;		On entry : 160/0
  2789 ;;		On exit  : 160/20
  2790 ;;		Unchanged: FFE9F/0
  2791 ;; Data sizes:     COMMON   BANK0   BANK1   BANK3   BANK2
  2792 ;;      Params:         0       0       0       0       0
  2793 ;;      Locals:         0       0       0       0       0
  2794 ;;      Temps:          0       0       0       0       0
  2795 ;;      Totals:         0       0       0       0       0
  2796 ;;Total ram usage:        0 bytes
  2797 ;; Hardware stack levels used:    1
  2798 ;; Hardware stack levels required when called:    2
  2799 ;; This function calls:
  2800 ;;		Nothing
  2801 ;; This function is called by:
  2802 ;;		_clearAllTimer
  2803 ;; This function uses a non-reentrant model
  2804 ;;
  2805  0554                     _clearTwelveHoursTimer:	
  2806                           
  2807                           ;common.c: 366: uiBigTimer = 0;
  2808                           
  2809                           ; Regs used in _clearTwelveHoursTimer: [status,2]
  2810  0554  1683               	bsf	3,5	;RP0=1, select bank1
  2811  0555  01A0               	clrf	_uiBigTimer^(0+128)
  2812  0556  01A1               	clrf	(_uiBigTimer+1)^(0+128)
  2813  0557  0008               	return
  2814  0558                     __end_of_clearTwelveHoursTimer:	
  2815  0558                     __ptext762:	
  2816 ;; =============== function _clearTwentySecondsTimer ends ============
  2817                           
  2818                           
  2819 ;; *************** function _clearThreeHoursTimer *****************
  2820 ;; Defined at:
  2821 ;;		line 371 in file "C:\190604\AK7030-OTP\common.c"
  2822 ;; Parameters:    Size  Location     Type
  2823 ;;		None
  2824 ;; Auto vars:     Size  Location     Type
  2825 ;;		None
  2826 ;; Return value:  Size  Location     Type
  2827 ;;		None               void
  2828 ;; Registers used:
  2829 ;;		status,2
  2830 ;; Tracked objects:
  2831 ;;		On entry : 140/0
  2832 ;;		On exit  : 160/20
  2833 ;;		Unchanged: FFE9F/0
  2834 ;; Data sizes:     COMMON   BANK0   BANK1   BANK3   BANK2
  2835 ;;      Params:         0       0       0       0       0
  2836 ;;      Locals:         0       0       0       0       0
  2837 ;;      Temps:          0       0       0       0       0
  2838 ;;      Totals:         0       0       0       0       0
  2839 ;;Total ram usage:        0 bytes
  2840 ;; Hardware stack levels used:    1
  2841 ;; Hardware stack levels required when called:    2
  2842 ;; This function calls:
  2843 ;;		Nothing
  2844 ;; This function is called by:
  2845 ;;		_clearAllTimer
  2846 ;;		_main
  2847 ;; This function uses a non-reentrant model
  2848 ;;
  2849  0558                     _clearThreeHoursTimer:	
  2850                           
  2851                           ;common.c: 372: uiSmallTimer = 0;
  2852                           
  2853                           ; Regs used in _clearThreeHoursTimer: [status,2]
  2854  0558  1683               	bsf	3,5	;RP0=1, select bank1
  2855  0559  01A2               	clrf	_uiSmallTimer^(0+128)
  2856  055A  01A3               	clrf	(_uiSmallTimer+1)^(0+128)
  2857  055B  0008               	return
  2858  055C                     __end_of_clearThreeHoursTimer:	
  2859  055C                     __ptext761:	
  2860 ;; =============== function _initPin ends ============
  2861                           
  2862                           
  2863 ;; *************** function _clearTwentySecondsTimer *****************
  2864 ;; Defined at:
  2865 ;;		line 376 in file "C:\190604\AK7030-OTP\common.c"
  2866 ;; Parameters:    Size  Location     Type
  2867 ;;		None
  2868 ;; Auto vars:     Size  Location     Type
  2869 ;;		None
  2870 ;; Return value:  Size  Location     Type
  2871 ;;		None               void
  2872 ;; Registers used:
  2873 ;;		status,2
  2874 ;; Tracked objects:
  2875 ;;		On entry : 160/20
  2876 ;;		On exit  : 160/20
  2877 ;;		Unchanged: FFE9F/0
  2878 ;; Data sizes:     COMMON   BANK0   BANK1   BANK3   BANK2
  2879 ;;      Params:         0       0       0       0       0
  2880 ;;      Locals:         0       0       0       0       0
  2881 ;;      Temps:          0       0       0       0       0
  2882 ;;      Totals:         0       0       0       0       0
  2883 ;;Total ram usage:        0 bytes
  2884 ;; Hardware stack levels used:    1
  2885 ;; Hardware stack levels required when called:    2
  2886 ;; This function calls:
  2887 ;;		Nothing
  2888 ;; This function is called by:
  2889 ;;		_clearAllTimer
  2890 ;; This function uses a non-reentrant model
  2891 ;;
  2892  055C                     _clearTwentySecondsTimer:	
  2893  055C                     l3850:	
  2894                           ; Regs used in _clearTwentySecondsTimer: [status,2]
  2895                           
  2896                           
  2897                           ;common.c: 377: uiTwentySecondsTimer = 0;
  2898  055C  01A4               	clrf	_uiTwentySecondsTimer^(0+128)
  2899  055D  01A5               	clrf	(_uiTwentySecondsTimer+1)^(0+128)
  2900  055E  0008               	return
  2901  055F                     __end_of_clearTwentySecondsTimer:	
  2902                           
  2903                           	psect	text735
  2904  042F                     __ptext735:	
  2905 ;; =============== function _clearPinPortAndTimer ends ============
  2906                           
  2907                           
  2908 ;; *************** function _getAdOriginaCh4Value *****************
  2909 ;; Defined at:
  2910 ;;		line 229 in file "C:\190604\AK7030-OTP\common.c"
  2911 ;; Parameters:    Size  Location     Type
  2912 ;;		None
  2913 ;; Auto vars:     Size  Location     Type
  2914 ;;		None
  2915 ;; Return value:  Size  Location     Type
  2916 ;;                  2   39[BANK0 ] unsigned int 
  2917 ;; Registers used:
  2918 ;;		wreg, fsr0l, fsr0h, status,2, status,0, btemp+1, pclath, cstack
  2919 ;; Tracked objects:
  2920 ;;		On entry : 60/0
  2921 ;;		On exit  : 160/0
  2922 ;;		Unchanged: FFE00/0
  2923 ;; Data sizes:     COMMON   BANK0   BANK1   BANK3   BANK2
  2924 ;;      Params:         0       2       0       0       0
  2925 ;;      Locals:         0       0       0       0       0
  2926 ;;      Temps:          0       0       0       0       0
  2927 ;;      Totals:         0       2       0       0       0
  2928 ;;Total ram usage:        2 bytes
  2929 ;; Hardware stack levels used:    1
  2930 ;; Hardware stack levels required when called:    3
  2931 ;; This function calls:
  2932 ;;		_Filter
  2933 ;; This function is called by:
  2934 ;;		_main
  2935 ;; This function uses a non-reentrant model
  2936 ;;
  2937  042F                     _getAdOriginaCh4Value:	
  2938                           
  2939                           ;common.c: 231: return Filter(uiSampleChannelFourth);
  2940                           
  2941                           ; Regs used in _getAdOriginaCh4Value: [wreg-fsr0h+status,2+status,0+btemp+1+pclath+cstac
      +                          k]
  2942  042F  30D6               	movlw	_uiSampleChannelFourth& (0+255)
  2943  0430  2444               	fcall	_Filter
  2944  0431  0821               	movf	?_Filter+1,w
  2945  0432  00C8               	movwf	?_getAdOriginaCh4Value+1
  2946  0433  0820               	movf	?_Filter,w
  2947  0434  00C7               	movwf	?_getAdOriginaCh4Value
  2948  0435  0008               	return
  2949  0436                     __end_of_getAdOriginaCh4Value:	
  2950  0436                     __ptext736:	
  2951 ;; =============== function _getAdOriginaCh4Value ends ============
  2952                           
  2953                           
  2954 ;; *************** function _getAdOriginalCh1Value *****************
  2955 ;; Defined at:
  2956 ;;		line 217 in file "C:\190604\AK7030-OTP\common.c"
  2957 ;; Parameters:    Size  Location     Type
  2958 ;;		None
  2959 ;; Auto vars:     Size  Location     Type
  2960 ;;		None
  2961 ;; Return value:  Size  Location     Type
  2962 ;;                  2   39[BANK0 ] unsigned int 
  2963 ;; Registers used:
  2964 ;;		wreg, fsr0l, fsr0h, status,2, status,0, btemp+1, pclath, cstack
  2965 ;; Tracked objects:
  2966 ;;		On entry : 40/0
  2967 ;;		On exit  : 160/0
  2968 ;;		Unchanged: FFE00/0
  2969 ;; Data sizes:     COMMON   BANK0   BANK1   BANK3   BANK2
  2970 ;;      Params:         0       2       0       0       0
  2971 ;;      Locals:         0       0       0       0       0
  2972 ;;      Temps:          0       0       0       0       0
  2973 ;;      Totals:         0       2       0       0       0
  2974 ;;Total ram usage:        2 bytes
  2975 ;; Hardware stack levels used:    1
  2976 ;; Hardware stack levels required when called:    3
  2977 ;; This function calls:
  2978 ;;		_Filter
  2979 ;; This function is called by:
  2980 ;;		_main
  2981 ;; This function uses a non-reentrant model
  2982 ;;
  2983  0436                     _getAdOriginalCh1Value:	
  2984                           
  2985                           ;common.c: 220: return Filter(uiSampleChannelFirst);
  2986                           
  2987                           ; Regs used in _getAdOriginalCh1Value: [wreg-fsr0h+status,2+status,0+btemp+1+pclath+csta
      +                          ck]
  2988  0436  30A6               	movlw	_uiSampleChannelFirst& (0+255)
  2989  0437  2444               	fcall	_Filter
  2990  0438  0821               	movf	?_Filter+1,w
  2991  0439  00C8               	movwf	?_getAdOriginalCh1Value+1
  2992  043A  0820               	movf	?_Filter,w
  2993  043B  00C7               	movwf	?_getAdOriginalCh1Value
  2994  043C  0008               	return
  2995  043D                     __end_of_getAdOriginalCh1Value:	
  2996  043D                     __ptext737:	
  2997 ;; =============== function _getAdOriginalCh1Value ends ============
  2998                           
  2999                           
  3000 ;; *************** function _getAdOriginalCh14Value *****************
  3001 ;; Defined at:
  3002 ;;		line 240 in file "C:\190604\AK7030-OTP\common.c"
  3003 ;; Parameters:    Size  Location     Type
  3004 ;;		None
  3005 ;; Auto vars:     Size  Location     Type
  3006 ;;		None
  3007 ;; Return value:  Size  Location     Type
  3008 ;;                  2   39[BANK0 ] unsigned int 
  3009 ;; Registers used:
  3010 ;;		wreg, fsr0l, fsr0h, status,2, status,0, btemp+1, pclath, cstack
  3011 ;; Tracked objects:
  3012 ;;		On entry : 60/0
  3013 ;;		On exit  : 160/0
  3014 ;;		Unchanged: FFE00/0
  3015 ;; Data sizes:     COMMON   BANK0   BANK1   BANK3   BANK2
  3016 ;;      Params:         0       2       0       0       0
  3017 ;;      Locals:         0       0       0       0       0
  3018 ;;      Temps:          0       0       0       0       0
  3019 ;;      Totals:         0       2       0       0       0
  3020 ;;Total ram usage:        2 bytes
  3021 ;; Hardware stack levels used:    1
  3022 ;; Hardware stack levels required when called:    3
  3023 ;; This function calls:
  3024 ;;		_Filter
  3025 ;; This function is called by:
  3026 ;;		_main
  3027 ;; This function uses a non-reentrant model
  3028 ;;
  3029  043D                     _getAdOriginalCh14Value:	
  3030                           
  3031                           ;common.c: 242: return Filter(uiSampleChannelFourteenth);
  3032                           
  3033                           ; Regs used in _getAdOriginalCh14Value: [wreg-fsr0h+status,2+status,0+btemp+1+pclath+cst
      +                          ack]
  3034  043D  30BE               	movlw	_uiSampleChannelFourteenth& (0+255)
  3035  043E  2444               	fcall	_Filter
  3036  043F  0821               	movf	?_Filter+1,w
  3037  0440  00C8               	movwf	?_getAdOriginalCh14Value+1
  3038  0441  0820               	movf	?_Filter,w
  3039  0442  00C7               	movwf	?_getAdOriginalCh14Value
  3040  0443  0008               	return
  3041  0444                     __end_of_getAdOriginalCh14Value:	
  3042  0444                     __ptext743:	
  3043 ;; =============== function _getAD_ConvertFlag ends ============
  3044                           
  3045                           
  3046 ;; *************** function _Filter *****************
  3047 ;; Defined at:
  3048 ;;		line 51 in file "C:\190604\AK7030-OTP\common.c"
  3049 ;; Parameters:    Size  Location     Type
  3050 ;;  tmpValue        1    wreg     PTR int 
  3051 ;;		 -> uiSampleChannelFourteenth(24), uiSampleChannelFourth(24), uiSampleChannelFirst(24), 
  3052 ;; Auto vars:     Size  Location     Type
  3053 ;;  tmpValue        1   34[BANK0 ] PTR int 
  3054 ;;		 -> uiSampleChannelFourteenth(24), uiSampleChannelFourth(24), uiSampleChannelFirst(24), 
  3055 ;;  cir             2   35[BANK0 ] int 
  3056 ;;  filter_buf     24    6[BANK0 ] unsigned int [12]
  3057 ;;  filter_sum      2   32[BANK0 ] unsigned int 
  3058 ;;  filter_temp     2   30[BANK0 ] unsigned int 
  3059 ;;  i               1   38[BANK0 ] unsigned char 
  3060 ;;  j               1   37[BANK0 ] unsigned char 
  3061 ;; Return value:  Size  Location     Type
  3062 ;;                  2    0[BANK0 ] unsigned int 
  3063 ;; Registers used:
  3064 ;;		wreg, fsr0l, fsr0h, status,2, status,0, btemp+1
  3065 ;; Tracked objects:
  3066 ;;		On entry : 40/0
  3067 ;;		On exit  : 160/0
  3068 ;;		Unchanged: FFE00/0
  3069 ;; Data sizes:     COMMON   BANK0   BANK1   BANK3   BANK2
  3070 ;;      Params:         0       2       0       0       0
  3071 ;;      Locals:         0      33       0       0       0
  3072 ;;      Temps:          0       4       0       0       0
  3073 ;;      Totals:         0      39       0       0       0
  3074 ;;Total ram usage:       39 bytes
  3075 ;; Hardware stack levels used:    1
  3076 ;; Hardware stack levels required when called:    2
  3077 ;; This function calls:
  3078 ;;		Nothing
  3079 ;; This function is called by:
  3080 ;;		_getAdOriginalCh1Value
  3081 ;;		_getAdOriginaCh4Value
  3082 ;;		_getAdOriginalCh14Value
  3083 ;; This function uses a non-reentrant model
  3084 ;;
  3085  0444                     _Filter:	
  3086                           
  3087                           ; Regs used in _Filter: [wreg-fsr0h+status,2+status,0+btemp+1]
  3088                           ;Filter@tmpValue stored from wreg
  3089  0444  1283               	bcf	3,5	;RP0=0, select bank0
  3090  0445  00C2               	movwf	Filter@tmpValue
  3091  0446  01C5               	clrf	Filter@j
  3092                           
  3093                           ;common.c: 55: unsigned int filter_temp = 0, filter_sum = 0;
  3094  0447  01BE               	clrf	Filter@filter_temp
  3095  0448  01BF               	clrf	Filter@filter_temp+1
  3096  0449  01C0               	clrf	Filter@filter_sum
  3097  044A  01C1               	clrf	Filter@filter_sum+1
  3098                           
  3099                           ;common.c: 57: unsigned int filter_buf[12];
  3100                           ;common.c: 59: for(int cir = 0;cir < 12; cir++)
  3101  044B  01C3               	clrf	Filter@cir
  3102  044C  01C4               	clrf	Filter@cir+1
  3103  044D                     l3960:	
  3104                           
  3105                           ;common.c: 60: filter_buf[cir] = *tmpValue++;
  3106  044D  1283               	bcf	3,5	;RP0=0, select bank0
  3107  044E  1303               	bcf	3,6	;RP1=0, select bank0
  3108  044F  0842               	movf	Filter@tmpValue,w
  3109  0450  24D3  118A         	fcall	PL3	;call to abstracted procedure
  3110  0452  1003               	clrc
  3111  0453  0D43               	rlf	Filter@cir,w
  3112  0454  24DB  118A         	fcall	PL5	;call to abstracted procedure
  3113  0456  0AC2               	incf	Filter@tmpValue,f
  3114  0457  0AC2               	incf	Filter@tmpValue,f
  3115  0458  0AC3               	incf	Filter@cir,f
  3116  0459  1903               	skipnz
  3117  045A  0AC4               	incf	Filter@cir+1,f
  3118  045B  0844               	movf	Filter@cir+1,w
  3119  045C  3A80               	xorlw	128
  3120  045D  00FF               	movwf	127
  3121  045E  3080               	movlw	128
  3122  045F  027F               	subwf	127,w
  3123  0460  1D03               	skipz
  3124  0461  2C64               	goto	u1025
  3125  0462  300C               	movlw	12
  3126  0463  0243               	subwf	Filter@cir,w
  3127  0464                     u1025:	
  3128  0464  1C03               	skipc
  3129  0465  2C4D               	goto	l3960
  3130                           
  3131                           ;common.c: 63: for(j = 0; j < 12 - 1; j++)
  3132  0466  1283               	bcf	3,5	;RP0=0, select bank0
  3133  0467  1303               	bcf	3,6	;RP1=0, select bank0
  3134  0468  01C5               	clrf	Filter@j
  3135  0469                     l3974:	
  3136                           
  3137                           ;common.c: 64: {
  3138                           ;common.c: 65: for(i = 0; i < 12 - 1 - j; i++)
  3139  0469  01C6               	clrf	Filter@i
  3140  046A                     l3982:	
  3141  046A  01A3               	clrf	??_Filter+1
  3142  046B  0845               	movf	Filter@j,w
  3143  046C  3C0B               	sublw	11
  3144  046D  00A2               	movwf	??_Filter
  3145  046E  1C03               	skipc
  3146  046F  03A3               	decf	??_Filter+1,f
  3147  0470  0823               	movf	??_Filter+1,w
  3148  0471  3A80               	xorlw	128
  3149  0472  3C80               	sublw	128
  3150  0473  1D03               	skipz
  3151  0474  2C77               	goto	u1045
  3152  0475  0822               	movf	??_Filter,w
  3153  0476  0246               	subwf	Filter@i,w
  3154  0477                     u1045:	
  3155  0477  1803               	btfsc	3,0
  3156  0478  2CAC               	goto	l3984
  3157                           
  3158                           ;common.c: 66: {
  3159                           ;common.c: 67: if(filter_buf[i] > filter_buf[i + 1])
  3160  0479  1283               	bcf	3,5	;RP0=0, select bank0
  3161  047A  1303               	bcf	3,6	;RP1=0, select bank0
  3162  047B  1003               	clrc
  3163  047C  0D46               	rlf	Filter@i,w
  3164  047D  3E26               	addlw	Filter@filter_buf& (0+255)
  3165  047E  24D3  118A         	fcall	PL3	;call to abstracted procedure
  3166  0480  24E3  118A         	fcall	PL6	;call to abstracted procedure
  3167  0482  0800               	movf	0,w
  3168  0483  00A4               	movwf	??_Filter+2
  3169  0484  0A84               	incf	4,f
  3170  0485  0800               	movf	0,w
  3171  0486  00A5               	movwf	??_Filter+3
  3172  0487  0823               	movf	??_Filter+1,w
  3173  0488  0225               	subwf	??_Filter+3,w
  3174  0489  1D03               	skipz
  3175  048A  2C8D               	goto	u1035
  3176  048B  0822               	movf	??_Filter,w
  3177  048C  0224               	subwf	??_Filter+2,w
  3178  048D                     u1035:	
  3179  048D  1803               	skipnc
  3180  048E  2CAA               	goto	l3980
  3181                           
  3182                           ;common.c: 68: {
  3183                           ;common.c: 70: filter_temp = filter_buf[i];
  3184  048F  1003               	clrc
  3185  0490  0D46               	rlf	Filter@i,w
  3186  0491  3E26               	addlw	Filter@filter_buf& (0+255)
  3187  0492  0084               	movwf	4
  3188  0493  0800               	movf	0,w
  3189  0494  00BE               	movwf	Filter@filter_temp
  3190  0495  0A84               	incf	4,f
  3191  0496  0800               	movf	0,w
  3192  0497  00BF               	movwf	Filter@filter_temp+1
  3193                           
  3194                           ;common.c: 72: filter_buf[i] = filter_buf[i + 1];
  3195  0498  24E3  118A         	fcall	PL6	;call to abstracted procedure
  3196  049A  0800               	movf	0,w
  3197  049B  00A2               	movwf	??_Filter
  3198  049C  0A84               	incf	4,f
  3199  049D  0800               	movf	0,w
  3200  049E  00A3               	movwf	??_Filter+1
  3201  049F  1003               	clrc
  3202  04A0  0D46               	rlf	Filter@i,w
  3203  04A1  24DB  118A         	fcall	PL5	;call to abstracted procedure
  3204                           
  3205                           ;common.c: 74: filter_buf[i + 1] = filter_temp;
  3206  04A3  24E3  118A         	fcall	PL6	;call to abstracted procedure
  3207  04A5  083E               	movf	Filter@filter_temp,w
  3208  04A6  0080               	movwf	0
  3209  04A7  0A84               	incf	4,f
  3210  04A8  083F               	movf	Filter@filter_temp+1,w
  3211  04A9  0080               	movwf	0
  3212  04AA                     l3980:	
  3213  04AA  0AC6               	incf	Filter@i,f
  3214  04AB  2C6A               	goto	l3982
  3215  04AC                     l3984:	
  3216  04AC  1283               	bcf	3,5	;RP0=0, select bank0
  3217  04AD  300B               	movlw	11
  3218  04AE  1303               	bcf	3,6	;RP1=0, select bank0
  3219  04AF  0AC5               	incf	Filter@j,f
  3220  04B0  0245               	subwf	Filter@j,w
  3221  04B1  1C03               	skipc
  3222  04B2  2C69               	goto	l3974
  3223                           
  3224                           ;common.c: 75: }
  3225                           ;common.c: 76: }
  3226                           ;common.c: 77: }
  3227                           ;common.c: 79: for(i = 2; i < 12 - 2; i++)
  3228  04B3  3002               	movlw	2
  3229  04B4  00C6               	movwf	Filter@i
  3230                           
  3231                           ;common.c: 80: {
  3232                           ;common.c: 81: filter_sum += filter_buf[i];
  3233  04B5  1003               	clrc
  3234  04B6                     L11:	
  3235  04B6  0D46               	rlf	Filter@i,w
  3236  04B7  3E26               	addlw	Filter@filter_buf& (0+255)
  3237  04B8  24D3  118A         	fcall	PL3	;call to abstracted procedure
  3238  04BA  0822               	movf	??_Filter,w
  3239  04BB  07C0               	addwf	Filter@filter_sum,f
  3240  04BC  1803               	skipnc
  3241  04BD  0AC1               	incf	Filter@filter_sum+1,f
  3242  04BE  0823               	movf	??_Filter+1,w
  3243  04BF  07C1               	addwf	Filter@filter_sum+1,f
  3244  04C0  300A               	movlw	10
  3245  04C1  0AC6               	incf	Filter@i,f
  3246  04C2  0246               	subwf	Filter@i,w
  3247  04C3  1C03               	skipc
  3248  04C4  2CB6               	goto	L11
  3249                           
  3250                           ;common.c: 82: }
  3251                           ;common.c: 84: return (filter_sum >> 3);
  3252  04C5  0841               	movf	Filter@filter_sum+1,w
  3253  04C6  00A1               	movwf	?_Filter+1
  3254  04C7  0840               	movf	Filter@filter_sum,w
  3255  04C8  00A0               	movwf	?_Filter
  3256  04C9  1003               	clrc
  3257  04CA  0CA1               	rrf	?_Filter+1,f
  3258  04CB  0CA0               	rrf	?_Filter,f
  3259  04CC  1003               	clrc
  3260  04CD  0CA1               	rrf	?_Filter+1,f
  3261  04CE  0CA0               	rrf	?_Filter,f
  3262  04CF  1003               	clrc
  3263  04D0  0CA1               	rrf	?_Filter+1,f
  3264  04D1  0CA0               	rrf	?_Filter,f
  3265  04D2  0008               	return
  3266  04D3                     __end_of_Filter:	
  3267  04D3                     PL3:	
  3268  04D3  0084               	movwf	4
  3269  04D4  1383               	bcf	3,7	;select IRP bank0
  3270  04D5  0800               	movf	0,w
  3271  04D6  00A2               	movwf	??_Filter
  3272  04D7  0A84               	incf	4,f
  3273  04D8  0800               	movf	0,w
  3274  04D9  00A3               	movwf	??_Filter+1
  3275  04DA  0008               	return
  3276  04DB                     PL5:	
  3277  04DB  3E26               	addlw	Filter@filter_buf& (0+255)
  3278  04DC  0084               	movwf	4
  3279  04DD  0822               	movf	??_Filter,w
  3280  04DE  0080               	movwf	0
  3281  04DF  0A84               	incf	4,f
  3282  04E0  0823               	movf	??_Filter+1,w
  3283  04E1  0080               	movwf	0
  3284  04E2  0008               	return
  3285  04E3                     PL6:	
  3286  04E3  1003               	clrc
  3287  04E4  0D46               	rlf	Filter@i,w
  3288  04E5  3E02               	addlw	2
  3289  04E6  3E26               	addlw	Filter@filter_buf& (0+255)
  3290  04E7  0084               	movwf	4
  3291  04E8  0008               	return
  3292                           
  3293                           	psect	text738
  3294  04E9                     __ptext738:	
  3295 ;; =============== function _getAdOriginalCh14Value ends ============
  3296                           
  3297                           
  3298 ;; *************** function _process_AD_Converter_Value *****************
  3299 ;; Defined at:
  3300 ;;		line 251 in file "C:\190604\AK7030-OTP\common.c"
  3301 ;; Parameters:    Size  Location     Type
  3302 ;;		None
  3303 ;; Auto vars:     Size  Location     Type
  3304 ;;		None
  3305 ;; Return value:  Size  Location     Type
  3306 ;;		None               void
  3307 ;; Registers used:
  3308 ;;		wreg, status,2, status,0, pclath, cstack
  3309 ;; Tracked objects:
  3310 ;;		On entry : 0/0
  3311 ;;		On exit  : 60/0
  3312 ;;		Unchanged: FFF9F/0
  3313 ;; Data sizes:     COMMON   BANK0   BANK1   BANK3   BANK2
  3314 ;;      Params:         0       0       0       0       0
  3315 ;;      Locals:         0       0       0       0       0
  3316 ;;      Temps:          0       0       0       0       0
  3317 ;;      Totals:         0       0       0       0       0
  3318 ;;Total ram usage:        0 bytes
  3319 ;; Hardware stack levels used:    1
  3320 ;; Hardware stack levels required when called:    3
  3321 ;; This function calls:
  3322 ;;		_getAD_ConvertFlag
  3323 ;;		_setAD_ConvertFlag
  3324 ;;		_AD_Sample
  3325 ;;		_adc_test_init
  3326 ;;		_adc_start
  3327 ;; This function is called by:
  3328 ;;		_main
  3329 ;; This function uses a non-reentrant model
  3330 ;;
  3331  04E9                     _process_AD_Converter_Value:	
  3332                           
  3333                           ;common.c: 252: if(getAD_ConvertFlag())
  3334                           
  3335                           ; Regs used in _process_AD_Converter_Value: [wreg+status,2+status,0+pclath+cstack]
  3336  04E9  2507  118A         	fcall	_getAD_ConvertFlag
  3337  04EB  3A00               	xorlw	0
  3338  04EC  1903               	skipnz
  3339  04ED  0008               	return
  3340                           
  3341                           ;common.c: 253: {
  3342                           ;common.c: 254: setAD_ConvertFlag(0);
  3343  04EE  3000               	movlw	0
  3344  04EF  250B  118A         	fcall	_setAD_ConvertFlag
  3345                           
  3346                           ;common.c: 255: AD_Sample();
  3347  04F1  250E  118A         	fcall	_AD_Sample
  3348                           
  3349                           ;common.c: 256: if(4 == sampleChannelSelect)
  3350  04F3  086E               	movf	_sampleChannelSelect,w
  3351  04F4  3A04               	xorlw	4
  3352  04F5  1D03               	skipz
  3353  04F6  2CFB               	goto	l4130
  3354                           
  3355                           ;common.c: 257: adc_test_init(4,3);
  3356  04F7  3003               	movlw	3
  3357  04F8  00A0               	movwf	?_adc_test_init
  3358  04F9  3004               	movlw	4
  3359  04FA  2D04               	goto	L10
  3360  04FB                     l4130:	
  3361                           
  3362                           ;common.c: 258: else if(1 == sampleChannelSelect)
  3363  04FB  0B6E               	decfsz	_sampleChannelSelect,w
  3364  04FC  2D01               	goto	l4134
  3365                           
  3366                           ;common.c: 259: adc_test_init(1,3);
  3367  04FD  3003               	movlw	3
  3368  04FE  00A0               	movwf	?_adc_test_init
  3369  04FF  3001               	movlw	1
  3370  0500  2D04               	goto	L10
  3371  0501                     l4134:	
  3372                           
  3373                           ;common.c: 260: else
  3374                           ;common.c: 261: adc_test_init(14,3);
  3375  0501  3003               	movlw	3
  3376  0502  00A0               	movwf	?_adc_test_init
  3377  0503  300E               	movlw	14
  3378  0504                     L10:	
  3379  0504  252B  118A         	fcall	_adc_test_init
  3380                           
  3381                           ;common.c: 263: adc_start();
  3382  0506  2D40               	ljmp	l3892
  3383  0507                     __end_of_process_AD_Converter_Value:	
  3384  0507                     __ptext742:	
  3385 ;; =============== function _setAD_ConvertFlag ends ============
  3386                           
  3387                           
  3388 ;; *************** function _getAD_ConvertFlag *****************
  3389 ;; Defined at:
  3390 ;;		line 200 in file "C:\190604\AK7030-OTP\common.c"
  3391 ;; Parameters:    Size  Location     Type
  3392 ;;		None
  3393 ;; Auto vars:     Size  Location     Type
  3394 ;;		None
  3395 ;; Return value:  Size  Location     Type
  3396 ;;                  1    wreg      unsigned char 
  3397 ;; Registers used:
  3398 ;;		wreg
  3399 ;; Tracked objects:
  3400 ;;		On entry : 0/0
  3401 ;;		On exit  : 60/0
  3402 ;;		Unchanged: FFF9F/0
  3403 ;; Data sizes:     COMMON   BANK0   BANK1   BANK3   BANK2
  3404 ;;      Params:         0       0       0       0       0
  3405 ;;      Locals:         0       0       0       0       0
  3406 ;;      Temps:          0       0       0       0       0
  3407 ;;      Totals:         0       0       0       0       0
  3408 ;;Total ram usage:        0 bytes
  3409 ;; Hardware stack levels used:    1
  3410 ;; Hardware stack levels required when called:    2
  3411 ;; This function calls:
  3412 ;;		Nothing
  3413 ;; This function is called by:
  3414 ;;		_process_AD_Converter_Value
  3415 ;; This function uses a non-reentrant model
  3416 ;;
  3417  0507                     _getAD_ConvertFlag:	
  3418                           
  3419                           ;common.c: 201: return adc_convert_flag;
  3420                           
  3421                           ; Regs used in _getAD_ConvertFlag: [wreg]
  3422  0507  1283               	bcf	3,5	;RP0=0, select bank0
  3423  0508  1303               	bcf	3,6	;RP1=0, select bank0
  3424  0509  084A               	movf	_adc_convert_flag,w
  3425  050A  0008               	return
  3426  050B                     __end_of_getAD_ConvertFlag:	
  3427  050B                     __ptext741:	
  3428 ;; =============== function _AD_Sample ends ============
  3429                           
  3430                           
  3431 ;; *************** function _setAD_ConvertFlag *****************
  3432 ;; Defined at:
  3433 ;;		line 206 in file "C:\190604\AK7030-OTP\common.c"
  3434 ;; Parameters:    Size  Location     Type
  3435 ;;  flag            1    wreg     unsigned char 
  3436 ;; Auto vars:     Size  Location     Type
  3437 ;;  flag            1    0[BANK0 ] unsigned char 
  3438 ;; Return value:  Size  Location     Type
  3439 ;;		None               void
  3440 ;; Registers used:
  3441 ;;		wreg
  3442 ;; Tracked objects:
  3443 ;;		On entry : 60/0
  3444 ;;		On exit  : 60/0
  3445 ;;		Unchanged: FFF9F/0
  3446 ;; Data sizes:     COMMON   BANK0   BANK1   BANK3   BANK2
  3447 ;;      Params:         0       0       0       0       0
  3448 ;;      Locals:         0       1       0       0       0
  3449 ;;      Temps:          0       0       0       0       0
  3450 ;;      Totals:         0       1       0       0       0
  3451 ;;Total ram usage:        1 bytes
  3452 ;; Hardware stack levels used:    1
  3453 ;; Hardware stack levels required when called:    2
  3454 ;; This function calls:
  3455 ;;		Nothing
  3456 ;; This function is called by:
  3457 ;;		_process_AD_Converter_Value
  3458 ;; This function uses a non-reentrant model
  3459 ;;
  3460  050B                     _setAD_ConvertFlag:	
  3461                           
  3462                           ; Regs used in _setAD_ConvertFlag: [wreg]
  3463                           ;setAD_ConvertFlag@flag stored from wreg
  3464  050B  00A0               	movwf	setAD_ConvertFlag@flag
  3465                           
  3466                           ;common.c: 207: adc_convert_flag = flag;
  3467  050C  00CA               	movwf	_adc_convert_flag
  3468  050D  0008               	return
  3469  050E                     __end_of_setAD_ConvertFlag:	
  3470  050E                     __ptext740:	
  3471 ;; =============== function _clearAllTimer ends ============
  3472                           
  3473                           
  3474 ;; *************** function _AD_Sample *****************
  3475 ;; Defined at:
  3476 ;;		line 277 in file "C:\190604\AK7030-OTP\common.c"
  3477 ;; Parameters:    Size  Location     Type
  3478 ;;		None
  3479 ;; Auto vars:     Size  Location     Type
  3480 ;;		None
  3481 ;; Return value:  Size  Location     Type
  3482 ;;		None               void
  3483 ;; Registers used:
  3484 ;;		wreg, status,2, status,0
  3485 ;; Tracked objects:
  3486 ;;		On entry : 60/0
  3487 ;;		On exit  : 60/0
  3488 ;;		Unchanged: FFF9F/0
  3489 ;; Data sizes:     COMMON   BANK0   BANK1   BANK3   BANK2
  3490 ;;      Params:         0       0       0       0       0
  3491 ;;      Locals:         0       0       0       0       0
  3492 ;;      Temps:          0       0       0       0       0
  3493 ;;      Totals:         0       0       0       0       0
  3494 ;;Total ram usage:        0 bytes
  3495 ;; Hardware stack levels used:    1
  3496 ;; Hardware stack levels required when called:    2
  3497 ;; This function calls:
  3498 ;;		Nothing
  3499 ;; This function is called by:
  3500 ;;		_process_AD_Converter_Value
  3501 ;; This function uses a non-reentrant model
  3502 ;;
  3503  050E                     _AD_Sample:	
  3504                           
  3505                           ;common.c: 278: if(sampleTimes < 12)
  3506                           
  3507                           ; Regs used in _AD_Sample: [wreg+status,2+status,0]
  3508  050E  300C               	movlw	12
  3509  050F  024B               	subwf	_sampleTimes,w
  3510  0510  1803               	skipnc
  3511  0511  0008               	return
  3512  0512  300C               	movlw	12
  3513                           
  3514                           ;common.c: 279: {
  3515                           ;common.c: 300: sampleTimes++;
  3516  0513  0ACB               	incf	_sampleTimes,f
  3517                           
  3518                           ;common.c: 302: if(sampleTimes >= 12)
  3519  0514  024B               	subwf	_sampleTimes,w
  3520  0515  1C03               	skipc
  3521  0516  0008               	return
  3522                           
  3523                           ;common.c: 303: {
  3524                           ;common.c: 304: sampleTimes = 0;
  3525  0517  01CB               	clrf	_sampleTimes
  3526                           
  3527                           ;common.c: 306: if(sampleChannelSelect == 14)
  3528  0518  086E               	movf	_sampleChannelSelect,w
  3529  0519  3A0E               	xorlw	14
  3530  051A  1D03               	skipz
  3531  051B  2D1F               	goto	l4070
  3532                           
  3533                           ;common.c: 307: {
  3534                           ;common.c: 310: sampleChannelSelect = 1;
  3535  051C  01EE               	clrf	_sampleChannelSelect
  3536  051D  0AEE               	incf	_sampleChannelSelect,f
  3537                           
  3538                           ;common.c: 311: }
  3539  051E  0008               	return
  3540  051F                     l4070:	
  3541                           
  3542                           ;common.c: 312: else if(sampleChannelSelect == 4)
  3543  051F  086E               	movf	_sampleChannelSelect,w
  3544  0520  3A04               	xorlw	4
  3545  0521  1D03               	skipz
  3546  0522  2D26               	goto	l4074
  3547  0523                     l4072:	
  3548                           
  3549                           ;common.c: 313: {
  3550                           ;common.c: 315: sampleChannelSelect = 14;
  3551  0523  300E               	movlw	14
  3552  0524  00EE               	movwf	_sampleChannelSelect
  3553                           
  3554                           ;common.c: 316: }
  3555  0525  0008               	return
  3556  0526                     l4074:	
  3557                           
  3558                           ;common.c: 317: else if(sampleChannelSelect == 1)
  3559  0526  0B6E               	decfsz	_sampleChannelSelect,w
  3560  0527  2D23               	goto	l4072
  3561                           
  3562                           ;common.c: 318: {
  3563                           ;common.c: 320: sampleChannelSelect = 4;
  3564  0528  3004               	movlw	4
  3565  0529  00EE               	movwf	_sampleChannelSelect
  3566                           
  3567                           ;common.c: 321: }
  3568  052A  0008               	return
  3569  052B                     __end_of_AD_Sample:	
  3570  052B                     __ptext756:	
  3571 ;; =============== function _dac_init ends ============
  3572                           
  3573                           
  3574 ;; *************** function _adc_test_init *****************
  3575 ;; Defined at:
  3576 ;;		line 85 in file "C:\190604\AK7030-OTP\periph.c"
  3577 ;; Parameters:    Size  Location     Type
  3578 ;;  channel         1    wreg     unsigned char 
  3579 ;;  ref             1    0[BANK0 ] unsigned char 
  3580 ;; Auto vars:     Size  Location     Type
  3581 ;;  channel         1    2[BANK0 ] unsigned char 
  3582 ;; Return value:  Size  Location     Type
  3583 ;;		None               void
  3584 ;; Registers used:
  3585 ;;		wreg, status,2, status,0
  3586 ;; Tracked objects:
  3587 ;;		On entry : 60/0
  3588 ;;		On exit  : 60/20
  3589 ;;		Unchanged: FFF9F/0
  3590 ;; Data sizes:     COMMON   BANK0   BANK1   BANK3   BANK2
  3591 ;;      Params:         0       1       0       0       0
  3592 ;;      Locals:         0       1       0       0       0
  3593 ;;      Temps:          0       1       0       0       0
  3594 ;;      Totals:         0       3       0       0       0
  3595 ;;Total ram usage:        3 bytes
  3596 ;; Hardware stack levels used:    1
  3597 ;; Hardware stack levels required when called:    2
  3598 ;; This function calls:
  3599 ;;		Nothing
  3600 ;; This function is called by:
  3601 ;;		_main
  3602 ;;		_process_AD_Converter_Value
  3603 ;; This function uses a non-reentrant model
  3604 ;;
  3605  052B                     _adc_test_init:	
  3606                           
  3607                           ; Regs used in _adc_test_init: [wreg+status,2+status,0]
  3608                           ;adc_test_init@channel stored from wreg
  3609  052B  00A2               	movwf	adc_test_init@channel
  3610                           
  3611                           ;periph.c: 86: ADCON0 = 0x00;
  3612  052C  019F               	clrf	31	;volatile
  3613                           
  3614                           ;periph.c: 87: ADCON0|=channel<<2;
  3615  052D  00A1               	movwf	??_adc_test_init
  3616  052E  1003               	clrc
  3617  052F  0DA1               	rlf	??_adc_test_init,f
  3618  0530  1003               	clrc
  3619  0531  0D21               	rlf	??_adc_test_init,w
  3620  0532  049F               	iorwf	31,f	;volatile
  3621                           
  3622                           ;periph.c: 88: ADCON1|=ref<<6;
  3623  0533  0820               	movf	adc_test_init@ref,w
  3624  0534  00A1               	movwf	??_adc_test_init
  3625  0535  0CA1               	rrf	??_adc_test_init,f
  3626  0536  0CA1               	rrf	??_adc_test_init,f
  3627  0537  0C21               	rrf	??_adc_test_init,w
  3628  0538  39C0               	andlw	192
  3629  0539  1683               	bsf	3,5	;RP0=1, select bank1
  3630  053A  049F               	iorwf	31,f	;volatile
  3631                           
  3632                           ;periph.c: 89: ADON=1;
  3633  053B  1283               	bcf	3,5	;RP0=0, select bank0
  3634  053C  141F               	bsf	31,0
  3635                           
  3636                           ;periph.c: 90: ADIE=1;
  3637  053D  1683               	bsf	3,5	;RP0=1, select bank1
  3638  053E  150D               	bsf	13,2
  3639  053F  0008               	return
  3640  0540                     __end_of_adc_test_init:	
  3641  0540                     __ptext752:	
  3642 ;; =============== function _isPermitSampleTime ends ============
  3643                           
  3644                           
  3645 ;; *************** function _adc_start *****************
  3646 ;; Defined at:
  3647 ;;		line 100 in file "C:\190604\AK7030-OTP\periph.c"
  3648 ;; Parameters:    Size  Location     Type
  3649 ;;		None
  3650 ;; Auto vars:     Size  Location     Type
  3651 ;;		None
  3652 ;; Return value:  Size  Location     Type
  3653 ;;		None               void
  3654 ;; Registers used:
  3655 ;;		None
  3656 ;; Tracked objects:
  3657 ;;		On entry : 60/20
  3658 ;;		On exit  : 60/0
  3659 ;;		Unchanged: FFF9F/0
  3660 ;; Data sizes:     COMMON   BANK0   BANK1   BANK3   BANK2
  3661 ;;      Params:         0       0       0       0       0
  3662 ;;      Locals:         0       0       0       0       0
  3663 ;;      Temps:          0       0       0       0       0
  3664 ;;      Totals:         0       0       0       0       0
  3665 ;;Total ram usage:        0 bytes
  3666 ;; Hardware stack levels used:    1
  3667 ;; Hardware stack levels required when called:    2
  3668 ;; This function calls:
  3669 ;;		Nothing
  3670 ;; This function is called by:
  3671 ;;		_main
  3672 ;;		_process_AD_Converter_Value
  3673 ;; This function uses a non-reentrant model
  3674 ;;
  3675  0540                     _adc_start:	
  3676  0540                     l3892:	
  3677                           ; Regs used in _adc_start: []
  3678                           
  3679                           
  3680                           ;periph.c: 101: GO=1;
  3681  0540  1283               	bcf	3,5	;RP0=0, select bank0
  3682  0541  149F               	bsf	31,1
  3683  0542  0008               	return
  3684  0543                     __end_of_adc_start:	
  3685                           
  3686                           	psect	text744
  3687  05F5                     __ptext744:	
  3688 ;; =============== function _Filter ends ============
  3689                           
  3690                           
  3691 ;; *************** function _isFinishedThreeHoursTimer *****************
  3692 ;; Defined at:
  3693 ;;		line 416 in file "C:\190604\AK7030-OTP\common.c"
  3694 ;; Parameters:    Size  Location     Type
  3695 ;;		None
  3696 ;; Auto vars:     Size  Location     Type
  3697 ;;		None
  3698 ;; Return value:  Size  Location     Type
  3699 ;;                  1    wreg      unsigned char 
  3700 ;; Registers used:
  3701 ;;		wreg, status,2, status,0
  3702 ;; Tracked objects:
  3703 ;;		On entry : 60/0
  3704 ;;		On exit  : 60/20
  3705 ;;		Unchanged: FFF9F/0
  3706 ;; Data sizes:     COMMON   BANK0   BANK1   BANK3   BANK2
  3707 ;;      Params:         0       0       0       0       0
  3708 ;;      Locals:         0       0       0       0       0
  3709 ;;      Temps:          0       0       0       0       0
  3710 ;;      Totals:         0       0       0       0       0
  3711 ;;Total ram usage:        0 bytes
  3712 ;; Hardware stack levels used:    1
  3713 ;; Hardware stack levels required when called:    2
  3714 ;; This function calls:
  3715 ;;		Nothing
  3716 ;; This function is called by:
  3717 ;;		_main
  3718 ;; This function uses a non-reentrant model
  3719 ;;
  3720  05F5                     _isFinishedThreeHoursTimer:	
  3721                           
  3722                           ;common.c: 417: if(uiSmallTimer == 0)
  3723                           
  3724                           ; Regs used in _isFinishedThreeHoursTimer: [wreg+status,2+status,0]
  3725  05F5  1683               	bsf	3,5	;RP0=1, select bank1
  3726  05F6  0823               	movf	(_uiSmallTimer+1)^(0+128),w
  3727  05F7  0422               	iorwf	_uiSmallTimer^(0+128),w
  3728  05F8  1903               	btfsc	3,2
  3729                           
  3730                           ;common.c: 418: return 1;
  3731  05F9  3401               	retlw	1
  3732                           
  3733                           ;common.c: 419: else
  3734                           ;common.c: 420: return 0;
  3735  05FA  3400               	retlw	0
  3736  05FB                     __end_of_isFinishedThreeHoursTimer:	
  3737                           
  3738                           	psect	text745
  3739  05A0                     __ptext745:	
  3740 ;; =============== function _isFinishedThreeHoursTimer ends ============
  3741                           
  3742                           
  3743 ;; *************** function _startThreeHoursTimer *****************
  3744 ;; Defined at:
  3745 ;;		line 382 in file "C:\190604\AK7030-OTP\common.c"
  3746 ;; Parameters:    Size  Location     Type
  3747 ;;  uiSetTime       2    0[BANK0 ] unsigned int 
  3748 ;; Auto vars:     Size  Location     Type
  3749 ;;		None
  3750 ;; Return value:  Size  Location     Type
  3751 ;;		None               void
  3752 ;; Registers used:
  3753 ;;		wreg, status,2, status,0
  3754 ;; Tracked objects:
  3755 ;;		On entry : 60/0
  3756 ;;		On exit  : 60/20
  3757 ;;		Unchanged: FFF9F/0
  3758 ;; Data sizes:     COMMON   BANK0   BANK1   BANK3   BANK2
  3759 ;;      Params:         0       2       0       0       0
  3760 ;;      Locals:         0       0       0       0       0
  3761 ;;      Temps:          0       0       0       0       0
  3762 ;;      Totals:         0       2       0       0       0
  3763 ;;Total ram usage:        2 bytes
  3764 ;; Hardware stack levels used:    1
  3765 ;; Hardware stack levels required when called:    2
  3766 ;; This function calls:
  3767 ;;		Nothing
  3768 ;; This function is called by:
  3769 ;;		_main
  3770 ;; This function uses a non-reentrant model
  3771 ;;
  3772  05A0                     _startThreeHoursTimer:	
  3773                           
  3774                           ;common.c: 383: if(0 == uiSmallTimer)
  3775                           
  3776                           ; Regs used in _startThreeHoursTimer: [wreg+status,2+status,0]
  3777  05A0  1683               	bsf	3,5	;RP0=1, select bank1
  3778  05A1  0823               	movf	(_uiSmallTimer+1)^(0+128),w
  3779  05A2  0422               	iorwf	_uiSmallTimer^(0+128),w
  3780  05A3  1D03               	skipz
  3781  05A4  0008               	return
  3782                           
  3783                           ;common.c: 384: uiSmallTimer = uiSetTime;
  3784  05A5  1283               	bcf	3,5	;RP0=0, select bank0
  3785  05A6  0821               	movf	startThreeHoursTimer@uiSetTime+1,w
  3786  05A7  1683               	bsf	3,5	;RP0=1, select bank1
  3787  05A8  00A3               	movwf	(_uiSmallTimer+1)^(0+128)
  3788  05A9  1283               	bcf	3,5	;RP0=0, select bank0
  3789  05AA  0820               	movf	startThreeHoursTimer@uiSetTime,w
  3790  05AB  1683               	bsf	3,5	;RP0=1, select bank1
  3791  05AC  00A2               	movwf	_uiSmallTimer^(0+128)
  3792  05AD  0008               	return
  3793  05AE                     __end_of_startThreeHoursTimer:	
  3794                           
  3795                           	psect	text746
  3796  05FB                     __ptext746:	
  3797 ;; =============== function _startThreeHoursTimer ends ============
  3798                           
  3799                           
  3800 ;; *************** function _isFinishedTwentySecondsTimer *****************
  3801 ;; Defined at:
  3802 ;;		line 399 in file "C:\190604\AK7030-OTP\common.c"
  3803 ;; Parameters:    Size  Location     Type
  3804 ;;		None
  3805 ;; Auto vars:     Size  Location     Type
  3806 ;;		None
  3807 ;; Return value:  Size  Location     Type
  3808 ;;                  1    wreg      unsigned char 
  3809 ;; Registers used:
  3810 ;;		wreg, status,2, status,0
  3811 ;; Tracked objects:
  3812 ;;		On entry : 60/0
  3813 ;;		On exit  : 60/20
  3814 ;;		Unchanged: FFF9F/0
  3815 ;; Data sizes:     COMMON   BANK0   BANK1   BANK3   BANK2
  3816 ;;      Params:         0       0       0       0       0
  3817 ;;      Locals:         0       0       0       0       0
  3818 ;;      Temps:          0       0       0       0       0
  3819 ;;      Totals:         0       0       0       0       0
  3820 ;;Total ram usage:        0 bytes
  3821 ;; Hardware stack levels used:    1
  3822 ;; Hardware stack levels required when called:    2
  3823 ;; This function calls:
  3824 ;;		Nothing
  3825 ;; This function is called by:
  3826 ;;		_main
  3827 ;; This function uses a non-reentrant model
  3828 ;;
  3829  05FB                     _isFinishedTwentySecondsTimer:	
  3830                           
  3831                           ;common.c: 400: if(0 == uiTwentySecondsTimer)
  3832                           
  3833                           ; Regs used in _isFinishedTwentySecondsTimer: [wreg+status,2+status,0]
  3834  05FB  1683               	bsf	3,5	;RP0=1, select bank1
  3835  05FC  0825               	movf	(_uiTwentySecondsTimer+1)^(0+128),w
  3836  05FD  0424               	iorwf	_uiTwentySecondsTimer^(0+128),w
  3837  05FE  1903               	btfsc	3,2
  3838                           
  3839                           ;common.c: 401: return 1;
  3840  05FF  3401               	retlw	1
  3841                           
  3842                           ;common.c: 402: else
  3843                           ;common.c: 403: return 0;
  3844  0600  3400               	retlw	0
  3845  0601                     __end_of_isFinishedTwentySecondsTimer:	
  3846                           
  3847                           	psect	text747
  3848  0607                     __ptext747:	
  3849 ;; =============== function _isFinishedTwentySecondsTimer ends ============
  3850                           
  3851                           
  3852 ;; *************** function _startTwentySecondsTimer *****************
  3853 ;; Defined at:
  3854 ;;		line 393 in file "C:\190604\AK7030-OTP\common.c"
  3855 ;; Parameters:    Size  Location     Type
  3856 ;;		None
  3857 ;; Auto vars:     Size  Location     Type
  3858 ;;		None
  3859 ;; Return value:  Size  Location     Type
  3860 ;;		None               void
  3861 ;; Registers used:
  3862 ;;		wreg
  3863 ;; Tracked objects:
  3864 ;;		On entry : 60/0
  3865 ;;		On exit  : 60/20
  3866 ;;		Unchanged: FFF9F/0
  3867 ;; Data sizes:     COMMON   BANK0   BANK1   BANK3   BANK2
  3868 ;;      Params:         0       0       0       0       0
  3869 ;;      Locals:         0       0       0       0       0
  3870 ;;      Temps:          0       0       0       0       0
  3871 ;;      Totals:         0       0       0       0       0
  3872 ;;Total ram usage:        0 bytes
  3873 ;; Hardware stack levels used:    1
  3874 ;; Hardware stack levels required when called:    2
  3875 ;; This function calls:
  3876 ;;		Nothing
  3877 ;; This function is called by:
  3878 ;;		_main
  3879 ;; This function uses a non-reentrant model
  3880 ;;
  3881  0607                     _startTwentySecondsTimer:	
  3882                           
  3883                           ;common.c: 394: uiTwentySecondsTimer = 20;
  3884                           
  3885                           ; Regs used in _startTwentySecondsTimer: [wreg]
  3886  0607  3014               	movlw	20
  3887  0608  1683               	bsf	3,5	;RP0=1, select bank1
  3888  0609  00A4               	movwf	_uiTwentySecondsTimer^(0+128)
  3889  060A  01A5               	clrf	(_uiTwentySecondsTimer+1)^(0+128)
  3890  060B  0008               	return
  3891  060C                     __end_of_startTwentySecondsTimer:	
  3892                           
  3893                           	psect	text748
  3894  0601                     __ptext748:	
  3895 ;; =============== function _startTwentySecondsTimer ends ============
  3896                           
  3897                           
  3898 ;; *************** function _isFinishedTwelveHoursTimer *****************
  3899 ;; Defined at:
  3900 ;;		line 408 in file "C:\190604\AK7030-OTP\common.c"
  3901 ;; Parameters:    Size  Location     Type
  3902 ;;		None
  3903 ;; Auto vars:     Size  Location     Type
  3904 ;;		None
  3905 ;; Return value:  Size  Location     Type
  3906 ;;                  1    wreg      unsigned char 
  3907 ;; Registers used:
  3908 ;;		wreg, status,2, status,0
  3909 ;; Tracked objects:
  3910 ;;		On entry : 60/0
  3911 ;;		On exit  : 60/20
  3912 ;;		Unchanged: FFF9F/0
  3913 ;; Data sizes:     COMMON   BANK0   BANK1   BANK3   BANK2
  3914 ;;      Params:         0       0       0       0       0
  3915 ;;      Locals:         0       0       0       0       0
  3916 ;;      Temps:          0       0       0       0       0
  3917 ;;      Totals:         0       0       0       0       0
  3918 ;;Total ram usage:        0 bytes
  3919 ;; Hardware stack levels used:    1
  3920 ;; Hardware stack levels required when called:    2
  3921 ;; This function calls:
  3922 ;;		Nothing
  3923 ;; This function is called by:
  3924 ;;		_main
  3925 ;; This function uses a non-reentrant model
  3926 ;;
  3927  0601                     _isFinishedTwelveHoursTimer:	
  3928                           
  3929                           ;common.c: 409: if(uiBigTimer == 0)
  3930                           
  3931                           ; Regs used in _isFinishedTwelveHoursTimer: [wreg+status,2+status,0]
  3932  0601  1683               	bsf	3,5	;RP0=1, select bank1
  3933  0602  0821               	movf	(_uiBigTimer+1)^(0+128),w
  3934  0603  0420               	iorwf	_uiBigTimer^(0+128),w
  3935  0604  1903               	btfsc	3,2
  3936                           
  3937                           ;common.c: 410: return 1;
  3938  0605  3401               	retlw	1
  3939                           
  3940                           ;common.c: 411: else
  3941                           ;common.c: 412: return 0;
  3942  0606  3400               	retlw	0
  3943  0607                     __end_of_isFinishedTwelveHoursTimer:	
  3944                           
  3945                           	psect	text749
  3946  05AE                     __ptext749:	
  3947 ;; =============== function _isFinishedTwelveHoursTimer ends ============
  3948                           
  3949                           
  3950 ;; *************** function _startTwelveHourTimer *****************
  3951 ;; Defined at:
  3952 ;;		line 354 in file "C:\190604\AK7030-OTP\common.c"
  3953 ;; Parameters:    Size  Location     Type
  3954 ;;  uiSetTime       2    0[BANK0 ] unsigned int 
  3955 ;; Auto vars:     Size  Location     Type
  3956 ;;		None
  3957 ;; Return value:  Size  Location     Type
  3958 ;;		None               void
  3959 ;; Registers used:
  3960 ;;		wreg, status,2, status,0
  3961 ;; Tracked objects:
  3962 ;;		On entry : 60/0
  3963 ;;		On exit  : 60/20
  3964 ;;		Unchanged: FFF9F/0
  3965 ;; Data sizes:     COMMON   BANK0   BANK1   BANK3   BANK2
  3966 ;;      Params:         0       2       0       0       0
  3967 ;;      Locals:         0       0       0       0       0
  3968 ;;      Temps:          0       0       0       0       0
  3969 ;;      Totals:         0       2       0       0       0
  3970 ;;Total ram usage:        2 bytes
  3971 ;; Hardware stack levels used:    1
  3972 ;; Hardware stack levels required when called:    2
  3973 ;; This function calls:
  3974 ;;		Nothing
  3975 ;; This function is called by:
  3976 ;;		_main
  3977 ;; This function uses a non-reentrant model
  3978 ;;
  3979  05AE                     _startTwelveHourTimer:	
  3980                           
  3981                           ;common.c: 355: if(0 == uiBigTimer)
  3982                           
  3983                           ; Regs used in _startTwelveHourTimer: [wreg+status,2+status,0]
  3984  05AE  1683               	bsf	3,5	;RP0=1, select bank1
  3985  05AF  0821               	movf	(_uiBigTimer+1)^(0+128),w
  3986  05B0  0420               	iorwf	_uiBigTimer^(0+128),w
  3987  05B1  1D03               	skipz
  3988  05B2  0008               	return
  3989                           
  3990                           ;common.c: 356: uiBigTimer = uiSetTime;
  3991  05B3  1283               	bcf	3,5	;RP0=0, select bank0
  3992  05B4  0821               	movf	startTwelveHourTimer@uiSetTime+1,w
  3993  05B5  1683               	bsf	3,5	;RP0=1, select bank1
  3994  05B6  00A1               	movwf	(_uiBigTimer+1)^(0+128)
  3995  05B7  1283               	bcf	3,5	;RP0=0, select bank0
  3996  05B8  0820               	movf	startTwelveHourTimer@uiSetTime,w
  3997  05B9  1683               	bsf	3,5	;RP0=1, select bank1
  3998  05BA  00A0               	movwf	_uiBigTimer^(0+128)
  3999  05BB  0008               	return
  4000  05BC                     __end_of_startTwelveHourTimer:	
  4001                           
  4002                           	psect	text750
  4003  0619                     __ptext750:	
  4004 ;; =============== function _startTwelveHourTimer ends ============
  4005                           
  4006                           
  4007 ;; *************** function _clrSampeTime *****************
  4008 ;; Defined at:
  4009 ;;		line 434 in file "C:\190604\AK7030-OTP\common.c"
  4010 ;; Parameters:    Size  Location     Type
  4011 ;;		None
  4012 ;; Auto vars:     Size  Location     Type
  4013 ;;		None
  4014 ;; Return value:  Size  Location     Type
  4015 ;;		None               void
  4016 ;; Registers used:
  4017 ;;		status,2
  4018 ;; Tracked objects:
  4019 ;;		On entry : 60/0
  4020 ;;		On exit  : 60/0
  4021 ;;		Unchanged: FFF9F/0
  4022 ;; Data sizes:     COMMON   BANK0   BANK1   BANK3   BANK2
  4023 ;;      Params:         0       0       0       0       0
  4024 ;;      Locals:         0       0       0       0       0
  4025 ;;      Temps:          0       0       0       0       0
  4026 ;;      Totals:         0       0       0       0       0
  4027 ;;Total ram usage:        0 bytes
  4028 ;; Hardware stack levels used:    1
  4029 ;; Hardware stack levels required when called:    2
  4030 ;; This function calls:
  4031 ;;		Nothing
  4032 ;; This function is called by:
  4033 ;;		_main
  4034 ;; This function uses a non-reentrant model
  4035 ;;
  4036  0619                     _clrSampeTime:	
  4037                           
  4038                           ;common.c: 435: timer.timer10msStopWatch = 0;
  4039                           
  4040                           ; Regs used in _clrSampeTime: [status,2]
  4041  0619  01CC               	clrf	_timer
  4042  061A  0008               	return
  4043  061B                     __end_of_clrSampeTime:	
  4044                           
  4045                           	psect	text751
  4046  060C                     __ptext751:	
  4047 ;; =============== function _clrSampeTime ends ============
  4048                           
  4049                           
  4050 ;; *************** function _isPermitSampleTime *****************
  4051 ;; Defined at:
  4052 ;;		line 424 in file "C:\190604\AK7030-OTP\common.c"
  4053 ;; Parameters:    Size  Location     Type
  4054 ;;		None
  4055 ;; Auto vars:     Size  Location     Type
  4056 ;;		None
  4057 ;; Return value:  Size  Location     Type
  4058 ;;                  1    wreg      unsigned char 
  4059 ;; Registers used:
  4060 ;;		wreg
  4061 ;; Tracked objects:
  4062 ;;		On entry : 60/0
  4063 ;;		On exit  : 60/0
  4064 ;;		Unchanged: FFF9F/0
  4065 ;; Data sizes:     COMMON   BANK0   BANK1   BANK3   BANK2
  4066 ;;      Params:         0       0       0       0       0
  4067 ;;      Locals:         0       0       0       0       0
  4068 ;;      Temps:          0       0       0       0       0
  4069 ;;      Totals:         0       0       0       0       0
  4070 ;;Total ram usage:        0 bytes
  4071 ;; Hardware stack levels used:    1
  4072 ;; Hardware stack levels required when called:    2
  4073 ;; This function calls:
  4074 ;;		Nothing
  4075 ;; This function is called by:
  4076 ;;		_main
  4077 ;; This function uses a non-reentrant model
  4078 ;;
  4079  060C                     _isPermitSampleTime:	
  4080                           
  4081                           ;common.c: 425: if(timer.timer10msStopWatch >= 10)
  4082                           
  4083                           ; Regs used in _isPermitSampleTime: [wreg]
  4084  060C  300A               	movlw	10
  4085  060D  024C               	subwf	_timer,w
  4086  060E  1803               	btfsc	3,0
  4087                           
  4088                           ;common.c: 426: {
  4089                           ;common.c: 427: return 1;
  4090  060F  3401               	retlw	1
  4091                           
  4092                           ;common.c: 429: else
  4093                           ;common.c: 430: return 0;
  4094  0610  3400               	retlw	0
  4095  0611                     __end_of_isPermitSampleTime:	
  4096                           
  4097                           	psect	text753
  4098  05E5                     __ptext753:	
  4099 ;; =============== function _adc_start ends ============
  4100                           
  4101                           
  4102 ;; *************** function _op2_init *****************
  4103 ;; Defined at:
  4104 ;;		line 45 in file "C:\190604\AK7030-OTP\periph.c"
  4105 ;; Parameters:    Size  Location     Type
  4106 ;;		None
  4107 ;; Auto vars:     Size  Location     Type
  4108 ;;		None
  4109 ;; Return value:  Size  Location     Type
  4110 ;;		None               void
  4111 ;; Registers used:
  4112 ;;		wreg
  4113 ;; Tracked objects:
  4114 ;;		On entry : 17F/20
  4115 ;;		On exit  : 17F/20
  4116 ;;		Unchanged: FFE80/0
  4117 ;; Data sizes:     COMMON   BANK0   BANK1   BANK3   BANK2
  4118 ;;      Params:         0       0       0       0       0
  4119 ;;      Locals:         0       0       0       0       0
  4120 ;;      Temps:          0       0       0       0       0
  4121 ;;      Totals:         0       0       0       0       0
  4122 ;;Total ram usage:        0 bytes
  4123 ;; Hardware stack levels used:    1
  4124 ;; Hardware stack levels required when called:    2
  4125 ;; This function calls:
  4126 ;;		Nothing
  4127 ;; This function is called by:
  4128 ;;		_main
  4129 ;; This function uses a non-reentrant model
  4130 ;;
  4131  05E5                     _op2_init:	
  4132                           
  4133                           ;periph.c: 52: OP2CON1=0x10;
  4134                           
  4135                           ; Regs used in _op2_init: [wreg]
  4136  05E5  3010               	movlw	16
  4137  05E6  009C               	movwf	28	;volatile
  4138                           
  4139                           ;periph.c: 54: OP2CON2=0x10;
  4140  05E7  009D               	movwf	29	;volatile
  4141                           
  4142                           ;periph.c: 55: OP2CON0=0x80;
  4143  05E8  3080               	movlw	128
  4144  05E9  009B               	movwf	27	;volatile
  4145                           
  4146                           ;periph.c: 58: TRISA7=0;
  4147  05EA  1385               	bcf	5,7
  4148                           
  4149                           ;periph.c: 60: TRISB7 = 1;
  4150  05EB  1786               	bsf	6,7
  4151  05EC  0008               	return
  4152  05ED                     __end_of_op2_init:	
  4153                           
  4154                           	psect	text754
  4155  05C8                     __ptext754:	
  4156 ;; =============== function _op2_init ends ============
  4157                           
  4158                           
  4159 ;; *************** function _op1_init *****************
  4160 ;; Defined at:
  4161 ;;		line 26 in file "C:\190604\AK7030-OTP\periph.c"
  4162 ;; Parameters:    Size  Location     Type
  4163 ;;		None
  4164 ;; Auto vars:     Size  Location     Type
  4165 ;;		None
  4166 ;; Return value:  Size  Location     Type
  4167 ;;		None               void
  4168 ;; Registers used:
  4169 ;;		wreg
  4170 ;; Tracked objects:
  4171 ;;		On entry : 17F/20
  4172 ;;		On exit  : 17F/20
  4173 ;;		Unchanged: FFE80/0
  4174 ;; Data sizes:     COMMON   BANK0   BANK1   BANK3   BANK2
  4175 ;;      Params:         0       0       0       0       0
  4176 ;;      Locals:         0       0       0       0       0
  4177 ;;      Temps:          0       0       0       0       0
  4178 ;;      Totals:         0       0       0       0       0
  4179 ;;Total ram usage:        0 bytes
  4180 ;; Hardware stack levels used:    1
  4181 ;; Hardware stack levels required when called:    2
  4182 ;; This function calls:
  4183 ;;		Nothing
  4184 ;; This function is called by:
  4185 ;;		_main
  4186 ;; This function uses a non-reentrant model
  4187 ;;
  4188  05C8                     _op1_init:	
  4189                           
  4190                           ;periph.c: 33: OP1CON1=0x02;
  4191                           
  4192                           ; Regs used in _op1_init: [wreg]
  4193  05C8  3002               	movlw	2
  4194  05C9  1283               	bcf	3,5	;RP0=0, select bank0
  4195  05CA  009C               	movwf	28	;volatile
  4196                           
  4197                           ;periph.c: 34: OP1CON2=0xA0;
  4198  05CB  30A0               	movlw	160
  4199  05CC  009D               	movwf	29	;volatile
  4200                           
  4201                           ;periph.c: 35: OP1CON0=0x80;
  4202  05CD  3080               	movlw	128
  4203  05CE  009B               	movwf	27	;volatile
  4204                           
  4205                           ;periph.c: 38: TRISB3=1;
  4206  05CF  1683               	bsf	3,5	;RP0=1, select bank1
  4207  05D0  1586               	bsf	6,3
  4208                           
  4209                           ;periph.c: 40: TRISB5=0;
  4210  05D1  1286               	bcf	6,5
  4211  05D2  0008               	return
  4212  05D3                     __end_of_op1_init:	
  4213                           
  4214                           	psect	text755
  4215  0611                     __ptext755:	
  4216 ;; =============== function _op1_init ends ============
  4217                           
  4218                           
  4219 ;; *************** function _dac_init *****************
  4220 ;; Defined at:
  4221 ;;		line 14 in file "C:\190604\AK7030-OTP\periph.c"
  4222 ;; Parameters:    Size  Location     Type
  4223 ;;		None
  4224 ;; Auto vars:     Size  Location     Type
  4225 ;;		None
  4226 ;; Return value:  Size  Location     Type
  4227 ;;		None               void
  4228 ;; Registers used:
  4229 ;;		wreg
  4230 ;; Tracked objects:
  4231 ;;		On entry : 17F/20
  4232 ;;		On exit  : 17F/20
  4233 ;;		Unchanged: FFE80/0
  4234 ;; Data sizes:     COMMON   BANK0   BANK1   BANK3   BANK2
  4235 ;;      Params:         0       0       0       0       0
  4236 ;;      Locals:         0       0       0       0       0
  4237 ;;      Temps:          0       0       0       0       0
  4238 ;;      Totals:         0       0       0       0       0
  4239 ;;Total ram usage:        0 bytes
  4240 ;; Hardware stack levels used:    1
  4241 ;; Hardware stack levels required when called:    2
  4242 ;; This function calls:
  4243 ;;		Nothing
  4244 ;; This function is called by:
  4245 ;;		_main
  4246 ;; This function uses a non-reentrant model
  4247 ;;
  4248  0611                     _dac_init:	
  4249                           
  4250                           ;periph.c: 15: DACCON|=1;
  4251                           
  4252                           ; Regs used in _dac_init: [wreg]
  4253  0611  1407               	bsf	7,0	;volatile
  4254                           
  4255                           ;periph.c: 17: DACR0=0x0F;
  4256  0612  300F               	movlw	15
  4257  0613  0088               	movwf	8	;volatile
  4258                           
  4259                           ;periph.c: 18: DACCON|=(1)<<2;
  4260  0614  1507               	bsf	7,2	;volatile
  4261  0615  0008               	return
  4262  0616                     __end_of_dac_init:	
  4263                           
  4264                           	psect	text757
  4265  0616                     __ptext757:	
  4266 ;; =============== function _adc_test_init ends ============
  4267                           
  4268                           
  4269 ;; *************** function _timer1_interrupt_config *****************
  4270 ;; Defined at:
  4271 ;;		line 192 in file "C:\190604\AK7030-OTP\common.c"
  4272 ;; Parameters:    Size  Location     Type
  4273 ;;		None
  4274 ;; Auto vars:     Size  Location     Type
  4275 ;;		None
  4276 ;; Return value:  Size  Location     Type
  4277 ;;		None               void
  4278 ;; Registers used:
  4279 ;;		None
  4280 ;; Tracked objects:
  4281 ;;		On entry : 17F/20
  4282 ;;		On exit  : 17F/20
  4283 ;;		Unchanged: FFE80/0
  4284 ;; Data sizes:     COMMON   BANK0   BANK1   BANK3   BANK2
  4285 ;;      Params:         0       0       0       0       0
  4286 ;;      Locals:         0       0       0       0       0
  4287 ;;      Temps:          0       0       0       0       0
  4288 ;;      Totals:         0       0       0       0       0
  4289 ;;Total ram usage:        0 bytes
  4290 ;; Hardware stack levels used:    1
  4291 ;; Hardware stack levels required when called:    2
  4292 ;; This function calls:
  4293 ;;		Nothing
  4294 ;; This function is called by:
  4295 ;;		_main
  4296 ;; This function uses a non-reentrant model
  4297 ;;
  4298  0616                     _timer1_interrupt_config:	
  4299                           
  4300                           ;common.c: 193: GIE = 1;
  4301                           
  4302                           ; Regs used in _timer1_interrupt_config: []
  4303  0616  178B               	bsf	11,7
  4304                           
  4305                           ;common.c: 194: PEIE = 1;
  4306  0617  170B               	bsf	11,6
  4307  0618  0008               	return
  4308  0619                     __end_of_timer1_interrupt_config:	
  4309                           
  4310                           	psect	text758
  4311  05D3                     __ptext758:	
  4312 ;; =============== function _timer1_interrupt_config ends ============
  4313                           
  4314                           
  4315 ;; *************** function _timer1_config *****************
  4316 ;; Defined at:
  4317 ;;		line 180 in file "C:\190604\AK7030-OTP\common.c"
  4318 ;; Parameters:    Size  Location     Type
  4319 ;;		None
  4320 ;; Auto vars:     Size  Location     Type
  4321 ;;		None
  4322 ;; Return value:  Size  Location     Type
  4323 ;;		None               void
  4324 ;; Registers used:
  4325 ;;		wreg
  4326 ;; Tracked objects:
  4327 ;;		On entry : 17F/40
  4328 ;;		On exit  : 17F/20
  4329 ;;		Unchanged: FFE80/0
  4330 ;; Data sizes:     COMMON   BANK0   BANK1   BANK3   BANK2
  4331 ;;      Params:         0       0       0       0       0
  4332 ;;      Locals:         0       0       0       0       0
  4333 ;;      Temps:          0       0       0       0       0
  4334 ;;      Totals:         0       0       0       0       0
  4335 ;;Total ram usage:        0 bytes
  4336 ;; Hardware stack levels used:    1
  4337 ;; Hardware stack levels required when called:    2
  4338 ;; This function calls:
  4339 ;;		Nothing
  4340 ;; This function is called by:
  4341 ;;		_main
  4342 ;; This function uses a non-reentrant model
  4343 ;;
  4344  05D3                     _timer1_config:	
  4345                           
  4346                           ;common.c: 182: TMR1H=0xCF;
  4347                           
  4348                           ; Regs used in _timer1_config: [wreg]
  4349  05D3  30CF               	movlw	207
  4350  05D4  1303               	bcf	3,6	;RP1=0, select bank0
  4351  05D5  008F               	movwf	15	;volatile
  4352                           
  4353                           ;common.c: 183: TMR1L=0x2C;
  4354  05D6  302C               	movlw	44
  4355  05D7  008E               	movwf	14	;volatile
  4356                           
  4357                           ;common.c: 184: T1CON=0xE1;
  4358  05D8  30E1               	movlw	225
  4359  05D9  0090               	movwf	16	;volatile
  4360                           
  4361                           ;common.c: 185: TMR1IE=1;
  4362  05DA  1683               	bsf	3,5	;RP0=1, select bank1
  4363  05DB  140C               	bsf	12,0
  4364  05DC  0008               	return
  4365  05DD                     __end_of_timer1_config:	
  4366                           
  4367                           	psect	text759
  4368  05ED                     __ptext759:	
  4369 ;; =============== function _timer1_config ends ============
  4370                           
  4371                           
  4372 ;; *************** function _clock_config *****************
  4373 ;; Defined at:
  4374 ;;		line 172 in file "C:\190604\AK7030-OTP\common.c"
  4375 ;; Parameters:    Size  Location     Type
  4376 ;;		None
  4377 ;; Auto vars:     Size  Location     Type
  4378 ;;		None
  4379 ;; Return value:  Size  Location     Type
  4380 ;;		None               void
  4381 ;; Registers used:
  4382 ;;		wreg, status,2
  4383 ;; Tracked objects:
  4384 ;;		On entry : 17F/20
  4385 ;;		On exit  : 17F/40
  4386 ;;		Unchanged: FFE80/0
  4387 ;; Data sizes:     COMMON   BANK0   BANK1   BANK3   BANK2
  4388 ;;      Params:         0       0       0       0       0
  4389 ;;      Locals:         0       0       0       0       0
  4390 ;;      Temps:          0       0       0       0       0
  4391 ;;      Totals:         0       0       0       0       0
  4392 ;;Total ram usage:        0 bytes
  4393 ;; Hardware stack levels used:    1
  4394 ;; Hardware stack levels required when called:    2
  4395 ;; This function calls:
  4396 ;;		Nothing
  4397 ;; This function is called by:
  4398 ;;		_main
  4399 ;; This function uses a non-reentrant model
  4400 ;;
  4401  05ED                     _clock_config:	
  4402                           
  4403                           ;common.c: 174: CLKPR = 0x80;
  4404                           
  4405                           ; Regs used in _clock_config: [wreg+status,2]
  4406  05ED  3080               	movlw	128
  4407  05EE  1283               	bcf	3,5	;RP0=0, select bank2
  4408  05EF  1703               	bsf	3,6	;RP1=1, select bank2
  4409  05F0  0088               	movwf	8	;volatile
  4410                           
  4411                           ;common.c: 175: CLKPR = 0x00;
  4412  05F1  0188               	clrf	8	;volatile
  4413  05F2                     l1649:	
  4414                           ;common.c: 176: while(CLKPCE);
  4415                           
  4416  05F2  1F88               	btfss	8,7
  4417  05F3  0008               	return
  4418  05F4  2DF2               	goto	l1649
  4419  05F5                     __end_of_clock_config:	
  4420                           
  4421                           	psect	text760
  4422  055F                     __ptext760:	
  4423 ;; =============== function _clock_config ends ============
  4424                           
  4425                           
  4426 ;; *************** function _initPin *****************
  4427 ;; Defined at:
  4428 ;;		line 105 in file "C:\190604\AK7030-OTP\main.c"
  4429 ;; Parameters:    Size  Location     Type
  4430 ;;		None
  4431 ;; Auto vars:     Size  Location     Type
  4432 ;;		None
  4433 ;; Return value:  Size  Location     Type
  4434 ;;		None               void
  4435 ;; Registers used:
  4436 ;;		None
  4437 ;; Tracked objects:
  4438 ;;		On entry : 160/20
  4439 ;;		On exit  : 160/60
  4440 ;;		Unchanged: FFE9F/0
  4441 ;; Data sizes:     COMMON   BANK0   BANK1   BANK3   BANK2
  4442 ;;      Params:         0       0       0       0       0
  4443 ;;      Locals:         0       0       0       0       0
  4444 ;;      Temps:          0       0       0       0       0
  4445 ;;      Totals:         0       0       0       0       0
  4446 ;;Total ram usage:        0 bytes
  4447 ;; Hardware stack levels used:    1
  4448 ;; Hardware stack levels required when called:    2
  4449 ;; This function calls:
  4450 ;;		Nothing
  4451 ;; This function is called by:
  4452 ;;		_main
  4453 ;; This function uses a non-reentrant model
  4454 ;;
  4455  055F                     _initPin:	
  4456                           
  4457                           ;main.c: 106: PB6 = 1;
  4458                           
  4459                           ; Regs used in _initPin: []
  4460  055F  1283               	bcf	3,5	;RP0=0, select bank0
  4461  0560  1706               	bsf	6,6
  4462                           
  4463                           ;main.c: 107: PBOD6 = 1;
  4464  0561  1683               	bsf	3,5	;RP0=1, select bank3
  4465  0562  1703               	bsf	3,6	;RP1=1, select bank3
  4466  0563  1708               	bsf	8,6
  4467                           
  4468                           ;main.c: 111: PA0 = 0;
  4469  0564  1283               	bcf	3,5	;RP0=0, select bank0
  4470  0565  1303               	bcf	3,6	;RP1=0, select bank0
  4471  0566  1005               	bcf	5,0
  4472                           
  4473                           ;main.c: 112: PA1 = 0;
  4474  0567  1085               	bcf	5,1
  4475                           
  4476                           ;main.c: 113: PA2 = 0;
  4477  0568  1105               	bcf	5,2
  4478                           
  4479                           ;main.c: 114: PA3 = 0;
  4480  0569  1185               	bcf	5,3
  4481                           
  4482                           ;main.c: 115: PB0 = 0;
  4483  056A  1006               	bcf	6,0
  4484                           
  4485                           ;main.c: 116: PB1 = 1;
  4486  056B  1486               	bsf	6,1
  4487                           
  4488                           ;main.c: 117: PA6 = 0;
  4489  056C  1305               	bcf	5,6
  4490                           
  4491                           ;main.c: 118: PA7 = 0;
  4492  056D  1385               	bcf	5,7
  4493                           
  4494                           ;main.c: 119: PAOD7 = 0;
  4495  056E  1683               	bsf	3,5	;RP0=1, select bank3
  4496  056F  1703               	bsf	3,6	;RP1=1, select bank3
  4497  0570  1387               	bcf	7,7
  4498  0571  0008               	return
  4499  0572                     __end_of_initPin:	
  4500                           
  4501                           	psect	text764
  4502  0357                     __ptext764:	
  4503 ;; =============== function _clearTwelveHoursTimer ends ============
  4504                           
  4505                           
  4506 ;; *************** function _ISR *****************
  4507 ;; Defined at:
  4508 ;;		line 439 in file "C:\190604\AK7030-OTP\common.c"
  4509 ;; Parameters:    Size  Location     Type
  4510 ;;		None
  4511 ;; Auto vars:     Size  Location     Type
  4512 ;;		None
  4513 ;; Return value:  Size  Location     Type
  4514 ;;		None               void
  4515 ;; Registers used:
  4516 ;;		wreg, fsr0l, fsr0h, status,2, status,0, btemp+1, pclath, cstack
  4517 ;; Tracked objects:
  4518 ;;		On entry : 0/0
  4519 ;;		On exit  : 60/0
  4520 ;;		Unchanged: FFE00/0
  4521 ;; Data sizes:     COMMON   BANK0   BANK1   BANK3   BANK2
  4522 ;;      Params:         0       0       0       0       0
  4523 ;;      Locals:         0       0       0       0       0
  4524 ;;      Temps:          4       0       0       0       0
  4525 ;;      Totals:         4       0       0       0       0
  4526 ;;Total ram usage:        4 bytes
  4527 ;; Hardware stack levels used:    1
  4528 ;; Hardware stack levels required when called:    1
  4529 ;; This function calls:
  4530 ;;		i1_setAD_ConvertFlag
  4531 ;;		_adc_get
  4532 ;;		_vPutSampleDataIntoTable
  4533 ;; This function is called by:
  4534 ;;		Interrupt level 1
  4535 ;; This function uses a non-reentrant model
  4536 ;;
  4537  0357                     _ISR:	
  4538                           
  4539                           ;common.c: 440: static unsigned char ucTimer1sCnt = 0;
  4540                           ;common.c: 442: if(TMR1IF == 1)
  4541  0357  1C0C               	btfss	12,0
  4542  0358  2B80               	goto	i1l4098
  4543  0359  3064               	movlw	100
  4544                           
  4545                           ;common.c: 443: {
  4546                           ;common.c: 444: TMR1IF = 0 ;
  4547  035A  100C               	bcf	12,0
  4548                           
  4549                           ;common.c: 445: timer.timer10msStopWatch++;
  4550  035B  0ACC               	incf	_timer,f
  4551                           
  4552                           ;common.c: 446: ucTimer1sCnt++;
  4553  035C  0AC9               	incf	ISR@ucTimer1sCnt,f
  4554                           
  4555                           ;common.c: 448: if(ucTimer1sCnt >= 100)
  4556  035D  0249               	subwf	ISR@ucTimer1sCnt,w
  4557  035E  1C03               	skipc
  4558  035F  2B80               	goto	i1l4098
  4559                           
  4560                           ;common.c: 449: {
  4561                           ;common.c: 450: ucTimer1sCnt = 0;
  4562  0360  01C9               	clrf	ISR@ucTimer1sCnt
  4563                           
  4564                           ;common.c: 451: if(uiBigTimer > 0)
  4565  0361  1683               	bsf	3,5	;RP0=1, select bank1
  4566  0362  0821               	movf	(_uiBigTimer+1)^(0+128),w
  4567  0363  0420               	iorwf	_uiBigTimer^(0+128),w
  4568  0364  1903               	skipnz
  4569  0365  2B6C               	goto	i1l1745
  4570                           
  4571                           ;common.c: 452: uiBigTimer--;
  4572  0366  3001               	movlw	1
  4573  0367  02A0               	subwf	_uiBigTimer^(0+128),f
  4574  0368  3000               	movlw	0
  4575  0369  1C03               	skipc
  4576  036A  03A1               	decf	(_uiBigTimer+1)^(0+128),f
  4577  036B  02A1               	subwf	(_uiBigTimer+1)^(0+128),f
  4578  036C                     i1l1745:	
  4579                           
  4580                           ;common.c: 454: if(uiSmallTimer)
  4581  036C  0823               	movf	(_uiSmallTimer+1)^(0+128),w
  4582  036D  0422               	iorwf	_uiSmallTimer^(0+128),w
  4583  036E  1903               	skipnz
  4584  036F  2B76               	goto	i1l1746
  4585                           
  4586                           ;common.c: 455: uiSmallTimer--;
  4587  0370  3001               	movlw	1
  4588  0371  02A2               	subwf	_uiSmallTimer^(0+128),f
  4589  0372  3000               	movlw	0
  4590  0373  1C03               	skipc
  4591  0374  03A3               	decf	(_uiSmallTimer+1)^(0+128),f
  4592  0375  02A3               	subwf	(_uiSmallTimer+1)^(0+128),f
  4593  0376                     i1l1746:	
  4594                           
  4595                           ;common.c: 457: if(uiTwentySecondsTimer)
  4596  0376  0825               	movf	(_uiTwentySecondsTimer+1)^(0+128),w
  4597  0377  0424               	iorwf	_uiTwentySecondsTimer^(0+128),w
  4598  0378  1903               	skipnz
  4599  0379  2B80               	goto	i1l4098
  4600                           
  4601                           ;common.c: 458: uiTwentySecondsTimer--;
  4602  037A  3001               	movlw	1
  4603  037B  02A4               	subwf	_uiTwentySecondsTimer^(0+128),f
  4604  037C  3000               	movlw	0
  4605  037D  1C03               	skipc
  4606  037E  03A5               	decf	(_uiTwentySecondsTimer+1)^(0+128),f
  4607  037F  02A5               	subwf	(_uiTwentySecondsTimer+1)^(0+128),f
  4608  0380                     i1l4098:	
  4609                           
  4610                           ;common.c: 459: }
  4611                           ;common.c: 460: }
  4612                           ;common.c: 462: if(ADIF)
  4613  0380  1283               	bcf	3,5	;RP0=0, select bank0
  4614  0381  1D0D               	btfss	13,2
  4615  0382  2BA7               	goto	i1l1753
  4616  0383  3001               	movlw	1
  4617                           
  4618                           ;common.c: 463: {
  4619                           ;common.c: 464: ADIF=0;
  4620  0384  110D               	bcf	13,2
  4621                           
  4622                           ;common.c: 465: setAD_ConvertFlag(1);
  4623  0385  241C  118A         	fcall	i1_setAD_ConvertFlag
  4624                           
  4625                           ;common.c: 467: if(sampleChannelSelect == 4)
  4626  0387  086E               	movf	_sampleChannelSelect,w
  4627  0388  3A04               	xorlw	4
  4628  0389  1D03               	skipz
  4629  038A  2B93               	goto	i1l4108
  4630                           
  4631                           ;common.c: 468: {
  4632                           ;common.c: 471: vPutSampleDataIntoTable(adc_get(),4);
  4633  038B  23B4  118A         	fcall	_adc_get
  4634  038D  0871               	movf	?_adc_get+1,w
  4635  038E  00F5               	movwf	?_vPutSampleDataIntoTable+1
  4636  038F  0870               	movf	?_adc_get,w
  4637  0390  00F4               	movwf	?_vPutSampleDataIntoTable
  4638  0391  3004               	movlw	4
  4639  0392  2BA5               	goto	L12
  4640  0393                     i1l4108:	
  4641                           ;common.c: 475: }
  4642                           
  4643                           
  4644                           ;common.c: 476: else if(sampleChannelSelect == 1)
  4645  0393  0B6E               	decfsz	_sampleChannelSelect,w
  4646  0394  2B9E               	goto	i1l4112
  4647                           
  4648                           ;common.c: 477: {
  4649                           ;common.c: 479: vPutSampleDataIntoTable(adc_get(),1);
  4650  0395  23B4  118A         	fcall	_adc_get
  4651  0397  0871               	movf	?_adc_get+1,w
  4652  0398  00F5               	movwf	?_vPutSampleDataIntoTable+1
  4653  0399  0870               	movf	?_adc_get,w
  4654  039A  00F4               	movwf	?_vPutSampleDataIntoTable
  4655  039B  01F6               	clrf	?_vPutSampleDataIntoTable+2
  4656  039C  0AF6               	incf	?_vPutSampleDataIntoTable+2,f
  4657  039D  2BA6               	goto	L13
  4658  039E                     i1l4112:	
  4659                           ;common.c: 484: }
  4660                           
  4661                           
  4662                           ;common.c: 485: else
  4663                           ;common.c: 486: {
  4664                           ;common.c: 490: vPutSampleDataIntoTable(adc_get(),14);
  4665  039E  23B4  118A         	fcall	_adc_get
  4666  03A0  0871               	movf	?_adc_get+1,w
  4667  03A1  00F5               	movwf	?_vPutSampleDataIntoTable+1
  4668  03A2  0870               	movf	?_adc_get,w
  4669  03A3  00F4               	movwf	?_vPutSampleDataIntoTable
  4670  03A4  300E               	movlw	14
  4671  03A5                     L12:	
  4672  03A5  00F6               	movwf	?_vPutSampleDataIntoTable+2
  4673  03A6                     L13:	
  4674  03A6  23BF               	fcall	_vPutSampleDataIntoTable
  4675  03A7                     i1l1753:	
  4676  03A7  087C               	movf	??_ISR+3,w
  4677  03A8  1283               	bcf	3,5	;RP0=0, select bank0
  4678  03A9  1303               	bcf	3,6	;RP1=0, select bank0
  4679  03AA  00FF               	movwf	127
  4680  03AB  087B               	movf	??_ISR+2,w
  4681  03AC  008A               	movwf	10
  4682  03AD  087A               	movf	??_ISR+1,w
  4683  03AE  0084               	movwf	4
  4684  03AF  0E79               	swapf	??_ISR^(0+-128),w
  4685  03B0  0083               	movwf	3
  4686  03B1  0EFE               	swapf	126,f
  4687  03B2  0E7E               	swapf	126,w
  4688  03B3  0009               	retfie
  4689  03B4                     __end_of_ISR:	
  4690  03B4                     __ptext766:	
  4691 ;; =============== function i1_setAD_ConvertFlag ends ============
  4692                           
  4693                           
  4694 ;; *************** function _adc_get *****************
  4695 ;; Defined at:
  4696 ;;		line 105 in file "C:\190604\AK7030-OTP\periph.c"
  4697 ;; Parameters:    Size  Location     Type
  4698 ;;		None
  4699 ;; Auto vars:     Size  Location     Type
  4700 ;;  val             2    2[COMMON] unsigned int 
  4701 ;; Return value:  Size  Location     Type
  4702 ;;                  2    0[COMMON] unsigned int 
  4703 ;; Registers used:
  4704 ;;		wreg
  4705 ;; Tracked objects:
  4706 ;;		On entry : 60/0
  4707 ;;		On exit  : 60/20
  4708 ;;		Unchanged: FFF9F/0
  4709 ;; Data sizes:     COMMON   BANK0   BANK1   BANK3   BANK2
  4710 ;;      Params:         2       0       0       0       0
  4711 ;;      Locals:         2       0       0       0       0
  4712 ;;      Temps:          0       0       0       0       0
  4713 ;;      Totals:         4       0       0       0       0
  4714 ;;Total ram usage:        4 bytes
  4715 ;; Hardware stack levels used:    1
  4716 ;; This function calls:
  4717 ;;		Nothing
  4718 ;; This function is called by:
  4719 ;;		_ISR
  4720 ;; This function uses a non-reentrant model
  4721 ;;
  4722  03B4                     _adc_get:	
  4723                           
  4724                           ;periph.c: 106: unsigned int val;
  4725                           ;periph.c: 107: val = (ADRESH<<8) | ADRESL;
  4726                           
  4727                           ; Regs used in _adc_get: [wreg]
  4728  03B4  081E               	movf	30,w	;volatile
  4729  03B5  00F3               	movwf	adc_get@val+1
  4730  03B6  01F2               	clrf	adc_get@val
  4731  03B7  1683               	bsf	3,5	;RP0=1, select bank1
  4732  03B8  081E               	movf	30,w	;volatile
  4733  03B9  04F2               	iorwf	adc_get@val,f
  4734                           
  4735                           ;periph.c: 108: return val;
  4736  03BA  0873               	movf	adc_get@val+1,w
  4737  03BB  00F1               	movwf	?_adc_get+1
  4738  03BC  0872               	movf	adc_get@val,w
  4739  03BD  00F0               	movwf	?_adc_get
  4740  03BE  0008               	return
  4741  03BF                     __end_of_adc_get:	
  4742  03BF                     __ptext767:	
  4743 ;; =============== function _adc_get ends ============
  4744                           
  4745                           
  4746 ;; *************** function _vPutSampleDataIntoTable *****************
  4747 ;; Defined at:
  4748 ;;		line 97 in file "C:\190604\AK7030-OTP\common.c"
  4749 ;; Parameters:    Size  Location     Type
  4750 ;;  uiSampleData    2    4[COMMON] unsigned int 
  4751 ;;  channel         1    6[COMMON] unsigned char 
  4752 ;; Auto vars:     Size  Location     Type
  4753 ;;  i               2    7[COMMON] int 
  4754 ;; Return value:  Size  Location     Type
  4755 ;;		None               void
  4756 ;; Registers used:
  4757 ;;		wreg, fsr0l, fsr0h, status,2, status,0, btemp+1
  4758 ;; Tracked objects:
  4759 ;;		On entry : 60/20
  4760 ;;		On exit  : 0/0
  4761 ;;		Unchanged: FFE00/0
  4762 ;; Data sizes:     COMMON   BANK0   BANK1   BANK3   BANK2
  4763 ;;      Params:         3       0       0       0       0
  4764 ;;      Locals:         2       0       0       0       0
  4765 ;;      Temps:          0       0       0       0       0
  4766 ;;      Totals:         5       0       0       0       0
  4767 ;;Total ram usage:        5 bytes
  4768 ;; Hardware stack levels used:    1
  4769 ;; This function calls:
  4770 ;;		Nothing
  4771 ;; This function is called by:
  4772 ;;		_ISR
  4773 ;; This function uses a non-reentrant model
  4774 ;;
  4775  03BF                     _vPutSampleDataIntoTable:	
  4776                           
  4777                           ;common.c: 99: static unsigned char ucChannelFirstLength = 0;
  4778                           ;common.c: 101: static unsigned char ucChannelFourthLength = 0;
  4779                           ;common.c: 103: static unsigned char ucChannelFourteenthLength = 0;
  4780                           ;common.c: 105: if(channel == 1)
  4781                           
  4782                           ; Regs used in _vPutSampleDataIntoTable: [wreg-fsr0h+status,2+status,0+btemp+1]
  4783  03BF  0B76               	decfsz	vPutSampleDataIntoTable@channel,w
  4784  03C0  2BD1               	goto	i1l4016
  4785                           
  4786                           ;common.c: 106: {
  4787                           ;common.c: 107: if(ucChannelFirstLength < 12)
  4788  03C1  300C               	movlw	12
  4789  03C2  027D               	subwf	vPutSampleDataIntoTable@ucChannelFirstLength,w
  4790  03C3  1803               	skipnc
  4791  03C4  2BCB               	goto	i1l4012
  4792                           
  4793                           ;common.c: 108: {
  4794                           ;common.c: 109: uiSampleChannelFirst[ucChannelFirstLength] = uiSampleData;
  4795  03C5  1003               	clrc
  4796  03C6  0D7D               	rlf	vPutSampleDataIntoTable@ucChannelFirstLength,w
  4797  03C7  3EA6               	addlw	_uiSampleChannelFirst& (0+255)
  4798  03C8  241F               	fcall	PL2	;call to abstracted procedure
  4799                           
  4800                           ;common.c: 111: ucChannelFirstLength++;
  4801  03C9  0AFD               	incf	vPutSampleDataIntoTable@ucChannelFirstLength,f
  4802                           
  4803                           ;common.c: 112: }
  4804  03CA  0008               	return
  4805  03CB                     i1l4012:	
  4806                           
  4807                           ;common.c: 113: else
  4808                           ;common.c: 114: {
  4809                           ;common.c: 115: ucChannelFirstLength = 0;
  4810  03CB  01FD               	clrf	vPutSampleDataIntoTable@ucChannelFirstLength
  4811                           
  4812                           ;common.c: 117: uiSampleChannelFirst[ucChannelFirstLength] = uiSampleData;
  4813  03CC  1003               	clrc
  4814  03CD  0D7D               	rlf	vPutSampleDataIntoTable@ucChannelFirstLength,w
  4815  03CE  3EA6               	addlw	_uiSampleChannelFirst& (0+255)
  4816  03CF  241F               	fcall	PL2	;call to abstracted procedure
  4817  03D0  0008               	return
  4818  03D1                     i1l4016:	
  4819                           
  4820                           ;common.c: 120: else if(channel == 4)
  4821  03D1  0876               	movf	vPutSampleDataIntoTable@channel,w
  4822  03D2  3A04               	xorlw	4
  4823  03D3  1D03               	skipz
  4824  03D4  2BE6               	goto	i1l4028
  4825                           
  4826                           ;common.c: 121: {
  4827                           ;common.c: 122: if(ucChannelFourthLength < 12)
  4828  03D5  300C               	movlw	12
  4829  03D6  1283               	bcf	3,5	;RP0=0, select bank0
  4830  03D7  026D               	subwf	vPutSampleDataIntoTable@ucChannelFourthLength,w
  4831  03D8  1803               	skipnc
  4832  03D9  2BE0               	goto	i1l4024
  4833                           
  4834                           ;common.c: 123: {
  4835                           ;common.c: 124: uiSampleChannelFourth[ucChannelFourthLength] = uiSampleData;
  4836  03DA  1003               	clrc
  4837  03DB  0D6D               	rlf	vPutSampleDataIntoTable@ucChannelFourthLength,w
  4838  03DC  3ED6               	addlw	_uiSampleChannelFourth& (0+255)
  4839  03DD  241F               	fcall	PL2	;call to abstracted procedure
  4840                           
  4841                           ;common.c: 126: ucChannelFourthLength++;
  4842  03DE  0AED               	incf	vPutSampleDataIntoTable@ucChannelFourthLength,f
  4843                           
  4844                           ;common.c: 127: }
  4845  03DF  0008               	return
  4846  03E0                     i1l4024:	
  4847                           
  4848                           ;common.c: 128: else
  4849                           ;common.c: 129: {
  4850                           ;common.c: 130: ucChannelFourthLength = 0;
  4851  03E0  01ED               	clrf	vPutSampleDataIntoTable@ucChannelFourthLength
  4852                           
  4853                           ;common.c: 132: uiSampleChannelFourth[ucChannelFourthLength] = uiSampleData;
  4854  03E1  1003               	clrc
  4855  03E2  0D6D               	rlf	vPutSampleDataIntoTable@ucChannelFourthLength,w
  4856  03E3  3ED6               	addlw	_uiSampleChannelFourth& (0+255)
  4857  03E4  241F               	fcall	PL2	;call to abstracted procedure
  4858  03E5  0008               	return
  4859  03E6                     i1l4028:	
  4860                           
  4861                           ;common.c: 135: else if(channel == 14)
  4862  03E6  0876               	movf	vPutSampleDataIntoTable@channel,w
  4863  03E7  3A0E               	xorlw	14
  4864  03E8  1D03               	skipz
  4865  03E9  2BFB               	goto	i1l4040
  4866                           
  4867                           ;common.c: 136: {
  4868                           ;common.c: 137: if(ucChannelFourteenthLength < 12)
  4869  03EA  300C               	movlw	12
  4870  03EB  1283               	bcf	3,5	;RP0=0, select bank0
  4871  03EC  026C               	subwf	vPutSampleDataIntoTable@ucChannelFourteenthLength,w
  4872  03ED  1803               	skipnc
  4873  03EE  2BF5               	goto	i1l4036
  4874                           
  4875                           ;common.c: 138: {
  4876                           ;common.c: 139: uiSampleChannelFourteenth[ucChannelFourteenthLength] = uiSampleData;
  4877  03EF  1003               	clrc
  4878  03F0  0D6C               	rlf	vPutSampleDataIntoTable@ucChannelFourteenthLength,w
  4879  03F1  3EBE               	addlw	_uiSampleChannelFourteenth& (0+255)
  4880  03F2  241F               	fcall	PL2	;call to abstracted procedure
  4881                           
  4882                           ;common.c: 141: ucChannelFourteenthLength++;
  4883  03F3  0AEC               	incf	vPutSampleDataIntoTable@ucChannelFourteenthLength,f
  4884                           
  4885                           ;common.c: 142: }
  4886  03F4  0008               	return
  4887  03F5                     i1l4036:	
  4888                           
  4889                           ;common.c: 143: else
  4890                           ;common.c: 144: {
  4891                           ;common.c: 145: ucChannelFourteenthLength = 0;
  4892  03F5  01EC               	clrf	vPutSampleDataIntoTable@ucChannelFourteenthLength
  4893                           
  4894                           ;common.c: 147: uiSampleChannelFourth[ucChannelFourteenthLength] = uiSampleData;
  4895  03F6  1003               	clrc
  4896  03F7  0D6C               	rlf	vPutSampleDataIntoTable@ucChannelFourteenthLength,w
  4897  03F8  3ED6               	addlw	_uiSampleChannelFourth& (0+255)
  4898  03F9  241F               	fcall	PL2	;call to abstracted procedure
  4899  03FA  0008               	return
  4900  03FB                     i1l4040:	
  4901                           
  4902                           ;common.c: 150: else
  4903                           ;common.c: 151: {
  4904                           ;common.c: 152: ucChannelFirstLength = 0;
  4905  03FB  01FD               	clrf	vPutSampleDataIntoTable@ucChannelFirstLength
  4906                           
  4907                           ;common.c: 154: ucChannelFourthLength = 0;
  4908  03FC  1283               	bcf	3,5	;RP0=0, select bank0
  4909  03FD  01ED               	clrf	vPutSampleDataIntoTable@ucChannelFourthLength
  4910                           
  4911                           ;common.c: 156: ucChannelFourteenthLength = 0;
  4912  03FE  01EC               	clrf	vPutSampleDataIntoTable@ucChannelFourteenthLength
  4913                           
  4914                           ;common.c: 158: for(int i = 0;i < 12; i++)
  4915  03FF  01F7               	clrf	vPutSampleDataIntoTable@i
  4916  0400  01F8               	clrf	vPutSampleDataIntoTable@i+1
  4917  0401                     i1l4046:	
  4918                           
  4919                           ;common.c: 159: {
  4920                           ;common.c: 160: uiSampleChannelFirst[i] = 0;
  4921  0401  1003               	clrc
  4922  0402  0D77               	rlf	vPutSampleDataIntoTable@i,w
  4923  0403  3EA6               	addlw	_uiSampleChannelFirst& (0+255)
  4924  0404  0084               	movwf	4
  4925  0405  1383               	bcf	3,7	;select IRP bank1
  4926  0406  0180               	clrf	0
  4927                           
  4928                           ;common.c: 162: uiSampleChannelFourth[i] = 0;
  4929  0407  2427  118A         	fcall	PL4	;call to abstracted procedure
  4930                           
  4931                           ;common.c: 164: uiSampleChannelFourth[i] = 0;
  4932  0409  2427  118A         	fcall	PL4	;call to abstracted procedure
  4933  040B  0A84               	incf	4,f
  4934  040C  0180               	clrf	0
  4935  040D  0AF7               	incf	vPutSampleDataIntoTable@i,f
  4936  040E  1903               	skipnz
  4937  040F  0AF8               	incf	vPutSampleDataIntoTable@i+1,f
  4938  0410  0878               	movf	vPutSampleDataIntoTable@i+1,w
  4939  0411  3A80               	xorlw	128
  4940  0412  00FF               	movwf	127
  4941  0413  3080               	movlw	128
  4942  0414  027F               	subwf	127,w
  4943  0415  1D03               	skipz
  4944  0416  2C19               	goto	u113_25
  4945  0417  300C               	movlw	12
  4946  0418  0277               	subwf	vPutSampleDataIntoTable@i,w
  4947  0419                     u113_25:	
  4948  0419  1803               	btfsc	3,0
  4949  041A  0008               	return
  4950  041B  2C01               	goto	i1l4046
  4951  041C                     __end_of_vPutSampleDataIntoTable:	
  4952  041C                     __ptext765:	
  4953 ;; =============== function _ISR ends ============
  4954                           
  4955                           
  4956 ;; *************** function i1_setAD_ConvertFlag *****************
  4957 ;; Defined at:
  4958 ;;		line 206 in file "C:\190604\AK7030-OTP\common.c"
  4959 ;; Parameters:    Size  Location     Type
  4960 ;;  setAD_Conver    1    wreg     unsigned char 
  4961 ;; Auto vars:     Size  Location     Type
  4962 ;;  setAD_Conver    1    0[COMMON] unsigned char 
  4963 ;; Return value:  Size  Location     Type
  4964 ;;		None               void
  4965 ;; Registers used:
  4966 ;;		wreg
  4967 ;; Tracked objects:
  4968 ;;		On entry : 60/0
  4969 ;;		On exit  : 60/0
  4970 ;;		Unchanged: FFF9F/0
  4971 ;; Data sizes:     COMMON   BANK0   BANK1   BANK3   BANK2
  4972 ;;      Params:         0       0       0       0       0
  4973 ;;      Locals:         1       0       0       0       0
  4974 ;;      Temps:          0       0       0       0       0
  4975 ;;      Totals:         1       0       0       0       0
  4976 ;;Total ram usage:        1 bytes
  4977 ;; Hardware stack levels used:    1
  4978 ;; This function calls:
  4979 ;;		Nothing
  4980 ;; This function is called by:
  4981 ;;		_ISR
  4982 ;; This function uses a non-reentrant model
  4983 ;;
  4984  041C                     i1_setAD_ConvertFlag:	
  4985                           
  4986                           ; Regs used in i1_setAD_ConvertFlag: [wreg]
  4987                           ;i1setAD_ConvertFlag@flag stored from wreg
  4988  041C  00F0               	movwf	i1setAD_ConvertFlag@flag
  4989                           
  4990                           ;common.c: 207: adc_convert_flag = flag;
  4991  041D  00CA               	movwf	_adc_convert_flag
  4992  041E  0008               	return
  4993  041F                     __end_ofi1_setAD_ConvertFlag:	
  4994  041F                     PL2:	
  4995  041F  0084               	movwf	4
  4996  0420  0874               	movf	vPutSampleDataIntoTable@uiSampleData,w
  4997  0421  1383               	bcf	3,7	;select IRP bank1
  4998  0422  0080               	movwf	0
  4999  0423  0A84               	incf	4,f
  5000  0424  0875               	movf	vPutSampleDataIntoTable@uiSampleData+1,w
  5001  0425  0080               	movwf	0
  5002  0426  0008               	return
  5003  0427                     PL4:	
  5004  0427  0A84               	incf	4,f
  5005  0428  0180               	clrf	0
  5006  0429  1003               	clrc
  5007  042A  0D77               	rlf	vPutSampleDataIntoTable@i,w
  5008  042B  3ED6               	addlw	_uiSampleChannelFourth& (0+255)
  5009  042C  0084               	movwf	4
  5010  042D  0180               	clrf	0
  5011  042E  0008               	return
  5012                           
  5013                           	psect	intentry
  5014  0004                     __pintentry:	
  5015                           ; Regs used in _ISR: [wreg-fsr0h+status,2+status,0+btemp+1+pclath+cstack]
  5016                           
  5017  0004                     interrupt_function:	
  5018  007E                     saved_w	set	btemp
  5019  0004  00FE               	movwf	btemp
  5020  0005  0E03               	swapf	3,w
  5021  0006  00F9               	movwf	??_ISR
  5022  0007  0804               	movf	4,w
  5023  0008  00FA               	movwf	??_ISR+1
  5024  0009  080A               	movf	10,w
  5025  000A  00FB               	movwf	??_ISR+2
  5026  000B  1283               	bcf	3,5	;RP0=0, select bank0
  5027  000C  1303               	bcf	3,6	;RP1=0, select bank0
  5028  000D  087F               	movf	btemp+1,w
  5029  000E  00FC               	movwf	??_ISR+3
  5030  000F  118A  2B57         	ljmp	_ISR
  5031                           
  5032                           	psect	text768
  5033  0000                     __ptext768:	
  5034 ;; =============== function _vPutSampleDataIntoTable ends ============
  5035                           
  5036  007E                     btemp	set	126	;btemp
  5037  007E                     wtemp0	set	126


HI-TECH Software PICC Macro Assembler V9.83 build 10920 
Symbol Table                                                                                   Tue Jun 25 15:43:57 2019

                                  ??_clock_config 0020                                                 pc 0002  
                                              _GO 00F9                                                fsr 0004  
                        ?_timer1_interrupt_config 0070                                               l714 007C  
                                             l706 0063                                               l820 0185  
                                             l901 0275                                               l750 010D  
                                             l680 0000                                               l683 0000  
                                             l844 01B9                                               l677 0000  
                                             l765 010F                                               l936 02EC  
                                             l865 01EC                                               l793 014B  
                                             _PA0 0028                                               _PA1 0029  
                                             _GIE 005F                                               _PB0 0030  
                                             _PA2 002A                                               _PB1 0031  
                                             _PA3 002B                                               _PA6 002E  
                                             _PA7 002F                                               _PB6 0036  
                                             _ISR 0357                                               fsr0 0004  
                                             indf 0000                            ??_startThreeHoursTimer 0022  
                                            S4922 0584                                              S4924 0592  
                                            S4926 05BC                                              ?_ISR 0070  
                              __size_of_AD_Sample 001D                            ?_getAdOriginalCh1Value 0047  
                                            l4000 0000                                              l2404 0000  
                                            l1702 0000                                              l1623 0000  
                                            l4120 054F                                              l4200 0000  
                                            l1705 0000                                              l4130 04FB  
                                            l4122 0000                                              l4210 0000  
                                            l4202 0072                                              l1715 0000  
                                            l1708 0000                                              l1652 0000  
                                            l4052 0000                                              l4132 0000  
                                            l4204 0000                                              l1661 0000  
                                            l2390 0000                                              l4070 051F  
                                            l4062 0000                                              l4134 0501  
                                            l4126 0000                                              l4142 0000  
                                            l1670 0000                                              l4150 0000  
                                            l4222 0000                                              l4214 0083  
                                            l1655 0000                                              l2384 0000  
                                            l1664 0000                                              l4056 0000  
                                            l4072 0523                                              l4152 0000  
                                            l4232 0000                                              l4224 0093  
                                            l4216 0000                                              l4208 0000  
                                            l4160 0000                                              l1649 05F2  
                                            l1673 0000                                              l1658 0000  
                                            l1738 0000                                              l4074 0526  
                                            l4066 0000                                              l4058 0000  
                                            l4138 0000                                              l4146 0000  
                                            l4402 0172                                              l4242 00AD  
                                            l4250 00B5                                              l4234 009C  
                                            l4226 0000                                              l4218 0086  
                                            l4170 0000                                              l4162 0000  
                                            l4154 0000                                              l2387 0000  
                                            l1667 0000                                              l4076 0000  
                                            l4500 01D4                                              l4420 018E  
                                            l4412 0179                                              l4308 0121  
                                            l4260 00CA                                              l4244 00AE  
                                            l4228 0095                                              l4180 0000  
                                            l4172 0000                                              l4164 0000  
                                            l4156 0000                                              l2398 0000  
                                            l4510 01DB                                              l4414 0187  
                                            l4350 014C                                              l4342 013D  
                                            l4318 0127                                              l4262 00D0  
                                            l4254 00BD                                              l4238 0000  
                                            l4190 005B                                              l4174 0000  
                                            l4166 0000                                              l4158 0000  
                                            l4600 0000                                              l4512 01F0  
                                            l4424 0190                                              l4416 0189  
                                            l4360 0155                                              l4352 014E  
                                            l4328 012D                                              l4280 00FF  
                                            l4272 00E6                                              l4264 00D3  
                                            l4256 00C1                                              l4248 0000  
                                            l4184 004E                                              l4176 0040  
                                            l4168 0000                                              l4610 0000  
                                            l4602 028A                                              l4522 01F9  
                                            l4514 01F2                                              l4426 0192  
                                            l4362 0157                                              l4338 0137  
                                            l4266 00D6                                              l4258 0000  
                                            l4194 0060                                              l4178 0000  
                                            l4700 0330                                              l4612 0295  
                                            l4524 01FB                                              l4436 0198  
                                            l4372 015D                                              l4356 0153  
                                            l4348 013F                                              l4292 0117  
                                            l4284 010B                                              l4276 00F3  
                                            l4268 00DA                                              l4196 0064  
                                            l4188 005A                                              l4622 0000  
                                            l4606 0290                                              l4550 0227  
                                            l4534 0201                                              l4518 01F7  
                                            l4470 01BE                                              l4446 019E  
                                            l4382 0163                                              l4286 0110  
                                            l3912 0000                                              l4640 0000  
                                            l4632 0000                                              l4624 02AB  
                                            l4608 0000                                              l4560 0000  
                                            l4544 0208                                              l4480 01C7  
                                            l4456 01A6                                              l4392 0169  
                                            l4296 0119                                              l4288 0112  
                                            l4704 033B                                              l3850 055C  
                                            l3906 0000                                              l4650 02D1  
                                            l4634 0000                                              l4642 02C0  
                                            l4626 0000                                              l4618 029E  
                                            l4570 0253                                              l4554 0000  
                                            l4490 01CD                                              l4474 01C3  
                                            l4466 01AD                                              l4298 011B  
                                            l3852 0000                                              l3860 0000  
                                            l3908 0000                                              l3924 0000  
                                            l4652 0000                                              l4636 0000  
                                            l4628 02AD                                              l4580 025E  
                                            l4572 0000                                              l4564 0246  
                                            l4548 0216                                              l4468 01BC  
                                            l3846 0000                                              l3854 0000  
                                            l3862 0000                                              l3870 0000  
                                            l3926 0000                                              l3942 0000  
                                            l4654 02D3                                              l4638 0000  
                                            l4590 0000                                              l4582 0000  
                                            l4566 024D                                              l4558 0239  
                                            l4478 01C5                                              l3848 0000  
                                            l3856 0000                                              l3872 0000  
                                            l3864 0000                                              l3880 0000  
                                            l3960 044D                                              l4680 0311  
                                            l4672 0308                                              l4648 0000  
                                            l4592 0000                                              l4576 0000  
                                            l3858 0000                                              l3866 0000  
                                            l3874 0000                                              l3882 0000  
                                            l3890 0000                                              l3938 0000  
                                            l3962 0000                                              l3954 0000  
                                            l4690 0000                                              l4674 0309  
                                            l4666 02E1                                              l4658 02D9  
                                            l4594 0000                                              l4578 0000  
                                            l4586 0263                                              l3868 0000  
                                            l3876 0000                                              l3884 0000  
                                            l3892 0540                                              l3980 04AA  
                                            l3964 0000                                              l4692 0000  
                                            l4684 031D                                              l4668 02FC  
                                            l4596 0000                                              l4588 0000  
                                            l3878 0000                                              l3886 0000  
                                            l3894 0000                                              l3982 046A  
                                            l3974 0469                                              l3966 0000  
                                            l4694 0000                                              l4686 031E  
                                            l4678 0000                                              l4598 0000  
                                            _ADIE 046A                                              l3888 0000  
                                            l3984 04AC                                              l4696 0000  
                                            _ADIF 006A                                              l3994 0000  
                                            l3986 0000                                              l3996 0000  
                                            _ADON 00F8                     startTwelveHourTimer@uiSetTime 0020  
                                            u1025 0464                                              u1035 048D  
                                            u1045 0477                                              _PEIE 005E  
                                            _main 0013                                              btemp 007E  
                         _clearTwentySecondsTimer 055C                                              start 0011  
                         ?_getAdOriginalCh14Value 0047                                 main@ucTimerDelay1 005C  
                               main@ucTimerDelay2 005D                                 main@ucTimerDelay3 005E  
                               main@ucTimerDelay4 005F                                             ??_ISR 0079  
                      __end_of_isPermitSampleTime 0611                               _sampleChannelSelect 006E  
                          ??_getAdOriginaCh4Value 0049                                             ?_main 0070  
                                           _DACR0 0088                                             _CLKPR 0108  
                                           _T1CON 0010                                   __end_of_adc_get 03BF  
                                           _PAOD7 0C3F                                             _PBOD6 0C46  
                                           _TMR1H 000F                                             _TMR1L 000E  
                           setAD_ConvertFlag@flag 0020                           _vPutSampleDataIntoTable 03BF  
                                 __end_of_initPin 0572                                             _timer 004C  
                                           pclath 000A                                             status 0003  
                                           wtemp0 007E                    __end_of_getAdOriginalCh14Value 0444  
                   __size_of_startTwelveHourTimer 000E                              __end_of_clrSampeTime 061B  
                           __end_of_clearAllTimer 0554                                      __end_of_main 0357  
                          __size_of_adc_test_init 0015                                 __end_of_AD_Sample 052B  
                              main@ucTimerSeond1s 0067                                            ??_main 0049  
                            _clearPinPortAndTimer 0543                                            _ADCON0 001F  
                                          _ADCON1 009F                              __end_of_clock_config 05F5  
                                          _DACCON 0087                                            _ADRESH 001E  
                                          _ADRESL 009E                                            _CLKPCE 0847  
                                          i1l4010 0000                                            i1l4012 03CB  
                                          i1l4004 0000                                            i1l4022 0000  
                                          i1l4014 0000                                            i1l4006 0000  
                                          i1l4110 0000                                            i1l4102 0000  
                                          i1l2407 0000                                            i1l4040 03FB  
                                          i1l4024 03E0                                            i1l4016 03D1  
                                          i1l4112 039E                                            i1l4104 0000  
                                          i1l4050 0000                                            i1l4034 0000  
                                          i1l4026 0000                                            i1l4114 0000  
                                          i1l4036 03F5                                            i1l4028 03E6  
                                          i1l4108 0393                                            u113_25 0419  
                                          i1l4046 0401                                            i1l4038 0000  
                                          i1l4118 0000                                            i1l4048 0000  
                                          i1l1664 0000                                            i1l4080 0000  
                                          i1l1753 03A7                                            i1l1745 036C  
                                          i1l1746 0376                                            i1l4090 0000  
                                          i1l4084 0000                                            i1l4086 0000  
                                          i1l4098 0380                                  __end_of_dac_init 0616  
                       ??_clearTwentySecondsTimer 0020                                            _TMR1IE 0460  
                                          _TMR1IF 0060                                 _getAD_ConvertFlag 0507  
                               _setAD_ConvertFlag 050B                                            _TRISA0 0428  
                                          _TRISA1 0429                                            _TRISB0 0430  
                                          _TRISA2 042A                                            _TRISB1 0431  
                                          _TRISA3 042B                                            _TRISB2 0432  
                                          _TRISB3 0433                                            _TRISB4 0434  
                                          _TRISA6 042E                                            _TRISB5 0435  
                                          _TRISA7 042F                                            _TRISB6 0436  
                                          _TRISB7 0437                                     main@ucTimer1s 0058  
                              ?_getAD_ConvertFlag 0070                                            _Filter 0444  
                              ?_setAD_ConvertFlag 0070                                  __end_of_op1_init 05D3  
                                __end_of_op2_init 05ED                       ??_isFinishedThreeHoursTimer 0020  
                   __size_of_clearThreeHoursTimer 0004                                         ??_adc_get 0072  
                             ??_getAD_ConvertFlag 0020                               ??_setAD_ConvertFlag 0020  
                                          clrloop 05DE                                  Filter@filter_buf 0026  
                                Filter@filter_sum 0040                                         ??_initPin 0020  
                       ??_vPutSampleDataIntoTable 0077                             ?_clearPinPortAndTimer 0070  
                                          saved_w 007E                           ??_clearTwelveHoursTimer 0020  
                     ?_process_AD_Converter_Value 0070                                     _adc_test_init 052B  
                __size_of_startTwentySecondsTimer 0005                         __end_of_getAD_ConvertFlag 050B  
                       __end_of_setAD_ConvertFlag 050E                                __size_of_adc_start 0003  
                             main@ucTimerDelayP5s 0060                                    __pcstackCOMMON 0070  
                                    __pidataBANK0 0000                   __end_of_clearTwentySecondsTimer 055F  
                            _uiSampleChannelFirst 00A6                    vPutSampleDataIntoTable@channel 0076  
                             main@ucTimerRightP5s 0066                         _isFinishedThreeHoursTimer 05F5  
                         ??_getAdOriginalCh1Value 0049                             __end_of_timer1_config 05DD  
                                  ?_adc_test_init 0020       vPutSampleDataIntoTable@ucChannelFirstLength 007D  
                __size_of_timer1_interrupt_config 0003                             __size_of_clrSampeTime 0002  
                                      __pbssBANK0 0049                                        __pbssBANK1 00A0  
                    __size_ofi1_setAD_ConvertFlag 0003                                        adc_get@val 0072  
                 __end_of_vPutSampleDataIntoTable 041C                                           ?_Filter 0020  
                                      __pmaintext 0013                                        __pintentry 0004  
                             main@enumInteralStep 004F                                         ?_dac_init 0070  
                          ??_clearPinPortAndTimer 0020                             __size_of_clock_config 0008  
                                         _OP1CON0 001B                                           _OP1CON1 001C  
                                         _OP1CON2 001D                                           _OP2CON0 009B  
                                         _OP2CON1 009C                                           _OP2CON2 009D  
                                    _clrSampeTime 0619                                 __end_of_adc_start 0543  
                            _uiTwentySecondsTimer 00A4                                         ?_op1_init 0070  
                                       ?_op2_init 0070                                _isPermitSampleTime 060C  
                                         Filter@i 0046                                           Filter@j 0045  
                   __size_of_startThreeHoursTimer 000E                        __size_of_getAD_ConvertFlag 0004  
                      __size_of_setAD_ConvertFlag 0003                                    main@ucTimer20s 0059  
                                  main@ucTimerP3s 0064                                    main@ucTimerP5s 0065  
                             ?_isPermitSampleTime 0070                                   __size_of_Filter 008F  
                                      _uiBigTimer 00A0                                      _clock_config 05ED  
                                         _adc_get 03B4              __end_of_isFinishedTwentySecondsTimer 0601  
           __size_of_isFinishedTwentySecondsTimer 0006                      _isFinishedTwentySecondsTimer 05FB  
                            ??_isPermitSampleTime 0020                      __end_of_startTwelveHourTimer 05BC  
                                      ??_dac_init 0020                                         _AD_Sample 050E  
                                    __size_of_ISR 005D                                           _initPin 055F  
                   __size_of_getAdOriginaCh4Value 0007                                   ??_adc_test_init 0021  
                                      ??_op1_init 0020                                        ??_op2_init 0020  
                         _startTwentySecondsTimer 0607                              end_of_initialization 0581  
                               Filter@filter_temp 003E                                  main@ucLoaderStep 0053  
                                      ?_AD_Sample 0070                     ?_isFinishedTwentySecondsTimer 0070  
                            main@enumMainLoopStep 0050                                main@ucChannel4Type 0052  
                    ??_isFinishedTwelveHoursTimer 0020                                         Filter@cir 0043  
                                _adc_convert_flag 004A                            __size_of_clearAllTimer 0005  
                    __end_of_clearThreeHoursTimer 055C                            main@ucTimerADC1ZeroP5s 005A  
                  __size_of_clearTwelveHoursTimer 0004                           _timer1_interrupt_config 0616  
                   __end_of_clearTwelveHoursTimer 0558                __size_of_isFinishedThreeHoursTimer 0006  
                                main@ucTimerX1P5s 0068                                  main@ucTimerX2P5s 0069  
                          main@ucTimerZeroPoint3s 006A                            main@ucTimerZeroPoint5s 006B  
                                main@ucTimerDelay 005B                                    __end_of_Filter 04D3  
                                 main@ucADC4_Step 0051               __size_of_isFinishedTwelveHoursTimer 0006  
                        vPutSampleDataIntoTable@i 0077                               i1_setAD_ConvertFlag 041C  
                       ??_startTwentySecondsTimer 0020                               start_initialization 0572  
                                     __end_of_ISR 03B4                              main@ucTimerLessX1P5s 0062  
                            main@ucTimerLessX2P5s 0063                             _uiSampleChannelFourth 00D6  
                        ?_clearTwentySecondsTimer 0070                    __size_of_getAdOriginalCh1Value 0007  
                   __end_of_getAdOriginalCh1Value 043D                          ??_getAdOriginalCh14Value 0049  
                            ?i1_setAD_ConvertFlag 0070                              _startTwelveHourTimer 05AE  
               __end_of_isFinishedThreeHoursTimer 05FB                                main@enumBranchStep 004E  
                                        ??_Filter 0022                                     _clearAllTimer 054F  
                                     __pdataBANK0 006E                          ?_vPutSampleDataIntoTable 0074  
                                     ??_AD_Sample 0020                         ??_timer1_interrupt_config 0020  
                                     __pbssCOMMON 007D                                 __size_of_dac_init 0005  
                                   __pcstackBANK0 0020                    ??_isFinishedTwentySecondsTimer 0020  
                                       _adc_start 0540                                 __size_of_op1_init 000B  
                               __size_of_op2_init 0008                             ??i1_setAD_ConvertFlag 0070  
                           ?_startTwelveHourTimer 0020                   __end_of_startTwentySecondsTimer 060C  
                                  ?_clearAllTimer 0070                            __size_of_timer1_config 000A  
                            _clearThreeHoursTimer 0558                      __end_of_startThreeHoursTimer 05AE  
                                       __ptext740 050E                                         __ptext741 050B  
                                       __ptext750 0619                                         __ptext742 0507  
                                       __ptext734 0543                                         __ptext751 060C  
                                       __ptext743 0444                                         __ptext735 042F  
                                       __ptext760 055F                                         __ptext752 0540  
                                       __ptext744 05F5                                         __ptext736 0436  
                                       __ptext761 055C                                         __ptext753 05E5  
                                       __ptext745 05A0                                         __ptext737 043D  
                                       __ptext762 0558                                         __ptext754 05C8  
                                       __ptext746 05FB                                         __ptext738 04E9  
                                       __ptext763 0554                                         __ptext755 0611  
                                       __ptext747 0607                                         __ptext739 054F  
                                       __ptext764 0357                                         __ptext756 052B  
                                       __ptext748 0601                                         __ptext765 041C  
                                       __ptext757 0616                                         __ptext749 05AE  
                                       __ptext766 03B4                                         __ptext758 05D3  
                                       __ptext767 03BF                                         __ptext759 05ED  
                                       __ptext768 0000                                          ?_adc_get 0070  
                                       __pswtext1 0584                                         __pswtext2 0592  
                                       __pswtext3 05BC                __end_of_isFinishedTwelveHoursTimer 0607  
                      _isFinishedTwelveHoursTimer 0601                                   ISR@ucTimer1sCnt 0049  
                                        ?_initPin 0070                     __size_of_clearPinPortAndTimer 000C  
                       _uiSampleChannelFourteenth 00BE                                        ?_adc_start 0070  
                 __size_of_getAdOriginalCh14Value 0007                                 interrupt_function 0004  
                    __end_of_getAdOriginaCh4Value 0436                   __end_of_timer1_interrupt_config 0619  
                      main@ucTimerLessADC1ZeroP5s 0061                             ?_clearThreeHoursTimer 0070  
                            adc_test_init@channel 0022               vPutSampleDataIntoTable@uiSampleData 0074  
    vPutSampleDataIntoTable@ucChannelFourthLength 006D                       __size_of_isPermitSampleTime 0005  
                                    _uiSmallTimer 00A2                             __end_of_adc_test_init 0540  
                                   _timer1_config 05D3                      ??_process_AD_Converter_Value 0023  
                          ??_startTwelveHourTimer 0022                                   ??_clearAllTimer 0020  
                          _getAdOriginalCh14Value 043D                                  __size_of_adc_get 000B  
             __size_of_process_AD_Converter_Value 001E                                          _dac_init 0611  
vPutSampleDataIntoTable@ucChannelFourteenthLength 006C                                  __size_of_initPin 0013  
                                main@cTimer1s_815 004D                                    Filter@tmpValue 0042  
                                  ?_timer1_config 0070                                          _op1_init 05C8  
                                        _op2_init 05E5                                       ??_adc_start 0020  
                            _startThreeHoursTimer 05A0                             _clearTwelveHoursTimer 0554  
                                   __size_of_main 0344                                          clear_ram 05DD  
                          ??_clearThreeHoursTimer 0020                  __size_of_clearTwentySecondsTimer 0003  
                                   ?_clrSampeTime 0070                              _getAdOriginaCh4Value 042F  
                                     _sampleTimes 004B                             ?_startThreeHoursTimer 0020  
                __size_of_vPutSampleDataIntoTable 005D                                          intlevel1 0000  
                           _getAdOriginalCh1Value 0436                        ?_isFinishedThreeHoursTimer 0070  
                               main@ucLoaderStep1 0054                                 main@ucLoaderStep2 0055  
                               main@ucLoaderStep3 0056                                 main@ucLoaderStep4 0057  
                                   ?_clock_config 0070                          ?_startTwentySecondsTimer 0070  
                   startThreeHoursTimer@uiSetTime 0020                           i1setAD_ConvertFlag@flag 0070  
                                  ??_clrSampeTime 0020                       ?_isFinishedTwelveHoursTimer 0070  
                           ?_getAdOriginaCh4Value 0047                                   ??_timer1_config 0020  
                     __end_ofi1_setAD_ConvertFlag 041F                __end_of_process_AD_Converter_Value 0507  
                      _process_AD_Converter_Value 04E9                            ?_clearTwelveHoursTimer 0070  
                                adc_test_init@ref 0020                      __end_of_clearPinPortAndTimer 054F  
